                              1 ;--------------------------------------------------------
                              2 ; File Created by SDCC : FreeWare ANSI-C Compiler
                              3 ; Version 2.2.1 Sat Oct 18 11:39:23 2014
                              4 
                              5 ;--------------------------------------------------------
                              6 	.module lcc19480
                              7 	
                              8 ;--------------------------------------------------------
                              9 ; Public variables in this module
                             10 ;--------------------------------------------------------
                             11 	.globl _door4_tiles
                             12 	.globl _door3_tiles
                             13 	.globl _door2_tiles
                             14 	.globl _door1_tiles
                             15 	.globl _frame_tiles
                             16 	.globl _earth_tiles
                             17 	.globl _bkg_tiles
                             18 	.globl _bkg_data
                             19 	.globl _frame_data
                             20 	.globl _earth_data
                             21 	.globl _std_data
                             22 	.globl _main
                             23 	.globl _place_sprite
                             24 	.globl _tile_sprite
                             25 	.globl _animate_sprite
                             26 	.globl _door
                             27 	.globl _scroll
                             28 	.globl _fade
                             29 	.globl _get_tiles
                             30 	.globl _set_tiles
                             31 	.globl _get_data
                             32 	.globl _set_data
                             33 	.globl _scroll_sprite
                             34 	.globl _move_sprite
                             35 	.globl _get_sprite_prop
                             36 	.globl _set_sprite_prop
                             37 	.globl _get_sprite_tile
                             38 	.globl _set_sprite_tile
                             39 	.globl _get_sprite_data
                             40 	.globl _set_sprite_data
                             41 	.globl _scroll_win
                             42 	.globl _move_win
                             43 	.globl _get_win_tiles
                             44 	.globl _set_win_tiles
                             45 	.globl _set_win_data
                             46 	.globl _scroll_bkg
                             47 	.globl _move_bkg
                             48 	.globl _get_bkg_tiles
                             49 	.globl _set_bkg_tiles
                             50 	.globl _set_bkg_data
                             51 	.globl _hiramcpy
                             52 	.globl _display_off
                             53 	.globl _wait_vbl_done
                             54 	.globl _reset
                             55 	.globl _set_interrupts
                             56 	.globl _disable_interrupts
                             57 	.globl _enable_interrupts
                             58 	.globl _waitpadup
                             59 	.globl _waitpad
                             60 	.globl _joypad
                             61 	.globl _delay
                             62 	.globl _receive_byte
                             63 	.globl _send_byte
                             64 	.globl _get_mode
                             65 	.globl _mode
                             66 	.globl _add_TIM
                             67 	.globl _add_LCD
                             68 	.globl _add_VBL
                             69 	.globl _remove_JOY
                             70 	.globl _remove_SIO
                             71 	.globl _remove_TIM
                             72 	.globl _remove_LCD
                             73 	.globl _remove_VBL
                             74 	.globl _cgb_compatibility
                             75 	.globl _cpu_fast
                             76 	.globl _cpu_slow
                             77 	.globl _set_sprite_palette_entry
                             78 	.globl _set_bkg_palette_entry
                             79 	.globl _set_sprite_palette
                             80 	.globl _set_bkg_palette
                             81 	.globl _sgb_check
                             82 	.globl _sspy
                             83 	.globl _sspx
                             84 	.globl _sposy
                             85 	.globl _sposx
                             86 	.globl _wspy
                             87 	.globl _wspx
                             88 	.globl _wposy
                             89 	.globl _wposx
                             90 	.globl _bspy
                             91 	.globl _bspx
                             92 	.globl _bposy
                             93 	.globl _bposx
                             94 	.globl _sframe
                             95 	.globl _color
                             96 	.globl _doorpos
                             97 	.globl _doorstate
                             98 	.globl _time
                             99 	.globl _film
                            100 ;--------------------------------------------------------
                            101 ; Externals used
                            102 ;--------------------------------------------------------
                            103 	.globl _IE_REG
                            104 	.globl _SVBK_REG
                            105 	.globl _OCPD_REG
                            106 	.globl _OCPS_REG
                            107 	.globl _BCPD_REG
                            108 	.globl _BCPS_REG
                            109 	.globl _RP_REG
                            110 	.globl _HDMA5_REG
                            111 	.globl _HDMA4_REG
                            112 	.globl _HDMA3_REG
                            113 	.globl _HDMA2_REG
                            114 	.globl _HDMA1_REG
                            115 	.globl _VBK_REG
                            116 	.globl _KEY1_REG
                            117 	.globl _WX_REG
                            118 	.globl _WY_REG
                            119 	.globl _OBP1_REG
                            120 	.globl _OBP0_REG
                            121 	.globl _BGP_REG
                            122 	.globl _DMA_REG
                            123 	.globl _LYC_REG
                            124 	.globl _LY_REG
                            125 	.globl _SCX_REG
                            126 	.globl _SCY_REG
                            127 	.globl _STAT_REG
                            128 	.globl _LCDC_REG
                            129 	.globl _NR52_REG
                            130 	.globl _NR51_REG
                            131 	.globl _NR50_REG
                            132 	.globl _NR44_REG
                            133 	.globl _NR43_REG
                            134 	.globl _NR42_REG
                            135 	.globl _NR41_REG
                            136 	.globl _NR34_REG
                            137 	.globl _NR33_REG
                            138 	.globl _NR32_REG
                            139 	.globl _NR31_REG
                            140 	.globl _NR30_REG
                            141 	.globl _NR24_REG
                            142 	.globl _NR23_REG
                            143 	.globl _NR22_REG
                            144 	.globl _NR21_REG
                            145 	.globl _NR14_REG
                            146 	.globl _NR13_REG
                            147 	.globl _NR12_REG
                            148 	.globl _NR11_REG
                            149 	.globl _NR10_REG
                            150 	.globl _IF_REG
                            151 	.globl _TAC_REG
                            152 	.globl _TMA_REG
                            153 	.globl _TIMA_REG
                            154 	.globl _DIV_REG
                            155 	.globl _SC_REG
                            156 	.globl _SB_REG
                            157 	.globl _P1_REG
                            158 	.globl __io_out
                            159 	.globl __io_in
                            160 	.globl __io_status
                            161 	.globl _sys_time
                            162 	.globl __cpu
                            163 ;--------------------------------------------------------
                            164 ; special function registers
                            165 ;--------------------------------------------------------
                            166 ;--------------------------------------------------------
                            167 ; special function bits 
                            168 ;--------------------------------------------------------
                            169 ;--------------------------------------------------------
                            170 ; internal ram data
                            171 ;--------------------------------------------------------
                            172 	.area _DATA
   0000                     173 _film::
   0000                     174 	.ds 50
   0032                     175 _time::
   0032                     176 	.ds 1
   0033                     177 _doorstate::
   0033                     178 	.ds 1
   0034                     179 _doorpos::
   0034                     180 	.ds 1
   0035                     181 _color::
   0035                     182 	.ds 1
   0036                     183 _sframe::
   0036                     184 	.ds 1
   0037                     185 _bposx::
   0037                     186 	.ds 2
   0039                     187 _bposy::
   0039                     188 	.ds 2
   003B                     189 _bspx::
   003B                     190 	.ds 2
   003D                     191 _bspy::
   003D                     192 	.ds 2
   003F                     193 _wposx::
   003F                     194 	.ds 2
   0041                     195 _wposy::
   0041                     196 	.ds 2
   0043                     197 _wspx::
   0043                     198 	.ds 2
   0045                     199 _wspy::
   0045                     200 	.ds 2
   0047                     201 _sposx::
   0047                     202 	.ds 2
   0049                     203 _sposy::
   0049                     204 	.ds 2
   004B                     205 _sspx::
   004B                     206 	.ds 2
   004D                     207 _sspy::
   004D                     208 	.ds 2
                            209 ;--------------------------------------------------------
                            210 ; overlayable items in internal ram 
                            211 ;--------------------------------------------------------
                            212 	.area _OVERLAY
                            213 ;--------------------------------------------------------
                            214 ; indirectly addressable internal ram data
                            215 ;--------------------------------------------------------
                            216 	.area _ISEG
                            217 ;--------------------------------------------------------
                            218 ; bit data
                            219 ;--------------------------------------------------------
                            220 	.area _BSEG
                            221 ;--------------------------------------------------------
                            222 ; external ram data
                            223 ;--------------------------------------------------------
                            224 	.area _XSEG
                            225 ;--------------------------------------------------------
                            226 ; global & static initialisations
                            227 ;--------------------------------------------------------
                            228 	.area _GSINIT
                            229 	.area _GSFINAL
                            230 	.area _GSINIT
                            231 ;	galaxy.c 632
                            232 ;	galaxy.c 326
                            233 ; genAssign (pointer)
   0000 11 00 00            234 	ld	de,#_film + 0
   0003 3E 90               235 	ld	a,#<_door1_tiles
   0005 12                  236 	ld	(de),a
   0006 13                  237 	inc	de
   0007 3E 10               238 	ld	a,#>_door1_tiles
   0009 12                  239 	ld	(de),a
                            240 ;	galaxy.c 632
                            241 ; genPlus
                            242 ; genPlusIncr
   000A 11 02 00            243 	ld	de,#_film + 2
                            244 ;	galaxy.c 327
                            245 ; genAssign (pointer)
   000D 3E 20               246 	ld	a,#<_door2_tiles
   000F 12                  247 	ld	(de),a
   0010 13                  248 	inc	de
   0011 3E 11               249 	ld	a,#>_door2_tiles
   0013 12                  250 	ld	(de),a
                            251 ;	galaxy.c 632
                            252 ; genPlus
                            253 ; genPlusIncr
   0014 11 04 00            254 	ld	de,#_film + 4
                            255 ;	galaxy.c 328
                            256 ; genAssign (pointer)
   0017 3E A4               257 	ld	a,#<_door3_tiles
   0019 12                  258 	ld	(de),a
   001A 13                  259 	inc	de
   001B 3E 11               260 	ld	a,#>_door3_tiles
   001D 12                  261 	ld	(de),a
                            262 ;	galaxy.c 632
                            263 ; genPlus
                            264 ; genPlusIncr
   001E 11 06 00            265 	ld	de,#_film + 6
                            266 ;	galaxy.c 329
                            267 ; genAssign (pointer)
   0021 3E 28               268 	ld	a,#<_door4_tiles
   0023 12                  269 	ld	(de),a
   0024 13                  270 	inc	de
   0025 3E 12               271 	ld	a,#>_door4_tiles
   0027 12                  272 	ld	(de),a
                            273 ;	galaxy.c 632
                            274 ; genPlus
                            275 ; genPlusIncr
   0028 11 08 00            276 	ld	de,#_film + 8
                            277 ;	galaxy.c 330
                            278 ; genPlus
                            279 ; genPlusIncr
   002B 01 9C 10            280 	ld	bc,#_door1_tiles + 12
                            281 ; genAssign (pointer)
   002E 79                  282 	ld	a,c
   002F 12                  283 	ld	(de),a
   0030 13                  284 	inc	de
   0031 78                  285 	ld	a,b
   0032 12                  286 	ld	(de),a
                            287 ;	galaxy.c 632
                            288 ; genPlus
                            289 ; genPlusIncr
   0033 11 0A 00            290 	ld	de,#_film + 10
                            291 ;	galaxy.c 331
                            292 ; genPlus
                            293 ; genPlusIncr
   0036 01 2C 11            294 	ld	bc,#_door2_tiles + 12
                            295 ; genAssign (pointer)
   0039 79                  296 	ld	a,c
   003A 12                  297 	ld	(de),a
   003B 13                  298 	inc	de
   003C 78                  299 	ld	a,b
   003D 12                  300 	ld	(de),a
                            301 ;	galaxy.c 632
                            302 ; genPlus
                            303 ; genPlusIncr
   003E 11 0C 00            304 	ld	de,#_film + 12
                            305 ;	galaxy.c 332
                            306 ; genPlus
                            307 ; genPlusIncr
   0041 01 B0 11            308 	ld	bc,#_door3_tiles + 12
                            309 ; genAssign (pointer)
   0044 79                  310 	ld	a,c
   0045 12                  311 	ld	(de),a
   0046 13                  312 	inc	de
   0047 78                  313 	ld	a,b
   0048 12                  314 	ld	(de),a
                            315 ;	galaxy.c 632
                            316 ; genPlus
                            317 ; genPlusIncr
   0049 11 0E 00            318 	ld	de,#_film + 14
                            319 ;	galaxy.c 333
                            320 ; genPlus
                            321 ; genPlusIncr
   004C 01 34 12            322 	ld	bc,#_door4_tiles + 12
                            323 ; genAssign (pointer)
   004F 79                  324 	ld	a,c
   0050 12                  325 	ld	(de),a
   0051 13                  326 	inc	de
   0052 78                  327 	ld	a,b
   0053 12                  328 	ld	(de),a
                            329 ;	galaxy.c 632
                            330 ; genPlus
                            331 ; genPlusIncr
   0054 11 10 00            332 	ld	de,#_film + 16
                            333 ;	galaxy.c 334
                            334 ; genPlus
                            335 ; genPlusIncr
   0057 01 A8 10            336 	ld	bc,#_door1_tiles + 24
                            337 ; genAssign (pointer)
   005A 79                  338 	ld	a,c
   005B 12                  339 	ld	(de),a
   005C 13                  340 	inc	de
   005D 78                  341 	ld	a,b
   005E 12                  342 	ld	(de),a
                            343 ;	galaxy.c 632
                            344 ; genPlus
                            345 ; genPlusIncr
   005F 11 12 00            346 	ld	de,#_film + 18
                            347 ;	galaxy.c 335
                            348 ; genPlus
                            349 ; genPlusIncr
   0062 01 38 11            350 	ld	bc,#_door2_tiles + 24
                            351 ; genAssign (pointer)
   0065 79                  352 	ld	a,c
   0066 12                  353 	ld	(de),a
   0067 13                  354 	inc	de
   0068 78                  355 	ld	a,b
   0069 12                  356 	ld	(de),a
                            357 ;	galaxy.c 632
                            358 ; genPlus
                            359 ; genPlusIncr
   006A 11 14 00            360 	ld	de,#_film + 20
                            361 ;	galaxy.c 336
                            362 ; genPlus
                            363 ; genPlusIncr
   006D 01 BC 11            364 	ld	bc,#_door3_tiles + 24
                            365 ; genAssign (pointer)
   0070 79                  366 	ld	a,c
   0071 12                  367 	ld	(de),a
   0072 13                  368 	inc	de
   0073 78                  369 	ld	a,b
   0074 12                  370 	ld	(de),a
                            371 ;	galaxy.c 632
                            372 ; genPlus
                            373 ; genPlusIncr
   0075 11 16 00            374 	ld	de,#_film + 22
                            375 ;	galaxy.c 337
                            376 ; genPlus
                            377 ; genPlusIncr
   0078 01 40 12            378 	ld	bc,#_door4_tiles + 24
                            379 ; genAssign (pointer)
   007B 79                  380 	ld	a,c
   007C 12                  381 	ld	(de),a
   007D 13                  382 	inc	de
   007E 78                  383 	ld	a,b
   007F 12                  384 	ld	(de),a
                            385 ;	galaxy.c 632
                            386 ; genPlus
                            387 ; genPlusIncr
   0080 11 18 00            388 	ld	de,#_film + 24
                            389 ;	galaxy.c 338
                            390 ; genPlus
                            391 ; genPlusIncr
   0083 01 B4 10            392 	ld	bc,#_door1_tiles + 36
                            393 ; genAssign (pointer)
   0086 79                  394 	ld	a,c
   0087 12                  395 	ld	(de),a
   0088 13                  396 	inc	de
   0089 78                  397 	ld	a,b
   008A 12                  398 	ld	(de),a
                            399 ;	galaxy.c 632
                            400 ; genPlus
                            401 ; genPlusIncr
   008B 11 1A 00            402 	ld	de,#_film + 26
                            403 ;	galaxy.c 339
                            404 ; genPlus
                            405 ; genPlusIncr
   008E 01 44 11            406 	ld	bc,#_door2_tiles + 36
                            407 ; genAssign (pointer)
   0091 79                  408 	ld	a,c
   0092 12                  409 	ld	(de),a
   0093 13                  410 	inc	de
   0094 78                  411 	ld	a,b
   0095 12                  412 	ld	(de),a
                            413 ;	galaxy.c 632
                            414 ; genPlus
                            415 ; genPlusIncr
   0096 11 1C 00            416 	ld	de,#_film + 28
                            417 ;	galaxy.c 340
                            418 ; genPlus
                            419 ; genPlusIncr
   0099 01 C8 11            420 	ld	bc,#_door3_tiles + 36
                            421 ; genAssign (pointer)
   009C 79                  422 	ld	a,c
   009D 12                  423 	ld	(de),a
   009E 13                  424 	inc	de
   009F 78                  425 	ld	a,b
   00A0 12                  426 	ld	(de),a
                            427 ;	galaxy.c 632
                            428 ; genPlus
                            429 ; genPlusIncr
   00A1 11 1E 00            430 	ld	de,#_film + 30
                            431 ;	galaxy.c 341
                            432 ; genPlus
                            433 ; genPlusIncr
   00A4 01 4C 12            434 	ld	bc,#_door4_tiles + 36
                            435 ; genAssign (pointer)
   00A7 79                  436 	ld	a,c
   00A8 12                  437 	ld	(de),a
   00A9 13                  438 	inc	de
   00AA 78                  439 	ld	a,b
   00AB 12                  440 	ld	(de),a
                            441 ;	galaxy.c 632
                            442 ; genPlus
                            443 ; genPlusIncr
   00AC 11 20 00            444 	ld	de,#_film + 32
                            445 ;	galaxy.c 342
                            446 ; genPlus
                            447 ; genPlusIncr
   00AF 01 C0 10            448 	ld	bc,#_door1_tiles + 48
                            449 ; genAssign (pointer)
   00B2 79                  450 	ld	a,c
   00B3 12                  451 	ld	(de),a
   00B4 13                  452 	inc	de
   00B5 78                  453 	ld	a,b
   00B6 12                  454 	ld	(de),a
                            455 ;	galaxy.c 632
                            456 ; genPlus
                            457 ; genPlusIncr
   00B7 11 22 00            458 	ld	de,#_film + 34
                            459 ;	galaxy.c 343
                            460 ; genPlus
                            461 ; genPlusIncr
   00BA 01 50 11            462 	ld	bc,#_door2_tiles + 48
                            463 ; genAssign (pointer)
   00BD 79                  464 	ld	a,c
   00BE 12                  465 	ld	(de),a
   00BF 13                  466 	inc	de
   00C0 78                  467 	ld	a,b
   00C1 12                  468 	ld	(de),a
                            469 ;	galaxy.c 632
                            470 ; genPlus
                            471 ; genPlusIncr
   00C2 11 24 00            472 	ld	de,#_film + 36
                            473 ;	galaxy.c 344
                            474 ; genPlus
                            475 ; genPlusIncr
   00C5 01 D4 11            476 	ld	bc,#_door3_tiles + 48
                            477 ; genAssign (pointer)
   00C8 79                  478 	ld	a,c
   00C9 12                  479 	ld	(de),a
   00CA 13                  480 	inc	de
   00CB 78                  481 	ld	a,b
   00CC 12                  482 	ld	(de),a
                            483 ;	galaxy.c 632
                            484 ; genPlus
                            485 ; genPlusIncr
   00CD 11 26 00            486 	ld	de,#_film + 38
                            487 ;	galaxy.c 345
                            488 ; genPlus
                            489 ; genPlusIncr
   00D0 01 58 12            490 	ld	bc,#_door4_tiles + 48
                            491 ; genAssign (pointer)
   00D3 79                  492 	ld	a,c
   00D4 12                  493 	ld	(de),a
   00D5 13                  494 	inc	de
   00D6 78                  495 	ld	a,b
   00D7 12                  496 	ld	(de),a
                            497 ;	galaxy.c 632
                            498 ; genPlus
                            499 ; genPlusIncr
   00D8 11 28 00            500 	ld	de,#_film + 40
                            501 ;	galaxy.c 346
                            502 ; genPlus
                            503 ; genPlusIncr
   00DB 01 CC 10            504 	ld	bc,#_door1_tiles + 60
                            505 ; genAssign (pointer)
   00DE 79                  506 	ld	a,c
   00DF 12                  507 	ld	(de),a
   00E0 13                  508 	inc	de
   00E1 78                  509 	ld	a,b
   00E2 12                  510 	ld	(de),a
                            511 ;	galaxy.c 632
                            512 ; genPlus
                            513 ; genPlusIncr
   00E3 11 2A 00            514 	ld	de,#_film + 42
                            515 ;	galaxy.c 347
                            516 ; genPlus
                            517 ; genPlusIncr
   00E6 01 5C 11            518 	ld	bc,#_door2_tiles + 60
                            519 ; genAssign (pointer)
   00E9 79                  520 	ld	a,c
   00EA 12                  521 	ld	(de),a
   00EB 13                  522 	inc	de
   00EC 78                  523 	ld	a,b
   00ED 12                  524 	ld	(de),a
                            525 ;	galaxy.c 632
                            526 ; genPlus
                            527 ; genPlusIncr
   00EE 11 2C 00            528 	ld	de,#_film + 44
                            529 ;	galaxy.c 348
                            530 ; genPlus
                            531 ; genPlusIncr
   00F1 01 E0 11            532 	ld	bc,#_door3_tiles + 60
                            533 ; genAssign (pointer)
   00F4 79                  534 	ld	a,c
   00F5 12                  535 	ld	(de),a
   00F6 13                  536 	inc	de
   00F7 78                  537 	ld	a,b
   00F8 12                  538 	ld	(de),a
                            539 ;	galaxy.c 632
                            540 ; genPlus
                            541 ; genPlusIncr
   00F9 11 2E 00            542 	ld	de,#_film + 46
                            543 ;	galaxy.c 349
                            544 ; genPlus
                            545 ; genPlusIncr
   00FC 01 64 12            546 	ld	bc,#_door4_tiles + 60
                            547 ; genAssign (pointer)
   00FF 79                  548 	ld	a,c
   0100 12                  549 	ld	(de),a
   0101 13                  550 	inc	de
   0102 78                  551 	ld	a,b
   0103 12                  552 	ld	(de),a
                            553 ;	galaxy.c 632
                            554 ; genPlus
                            555 ; genPlusIncr
   0104 11 30 00            556 	ld	de,#_film + 48
                            557 ;	galaxy.c 350
                            558 ; genPlus
                            559 ; genPlusIncr
   0107 01 D8 10            560 	ld	bc,#_door1_tiles + 72
                            561 ; genAssign (pointer)
   010A 79                  562 	ld	a,c
   010B 12                  563 	ld	(de),a
   010C 13                  564 	inc	de
   010D 78                  565 	ld	a,b
   010E 12                  566 	ld	(de),a
                            567 ;--------------------------------------------------------
                            568 ; code
                            569 ;--------------------------------------------------------
                            570 	.area _CODE
                            571 ;	galaxy.c 389
                            572 ; genLabel
                            573 ; genFunction
                            574 ;	---------------------------------
                            575 ; Function fade
                            576 ; ---------------------------------
   0000                     577 ___fade_start:
   0000                     578 _fade:
   0000 C5                  579 	push	bc
                            580 ;	galaxy.c 391
                            581 ; genCmpEq
                            582 ; AOP_HL for _color
   0001 21 35 00            583 	ld	hl,#_color + 0
   0004 7E                  584 	ld	a,(hl)
   0005 B7                  585 	or	a,a
   0006 C2 0B 00            586 	jp	nz,00118$
   0009 18 03               587 	jr	00119$
   000B                     588 00118$:
   000B C3 11 00            589 	jp	00102$
   000E                     590 00119$:
                            591 ;	galaxy.c 392
                            592 ; genRet
   000E C3 7B 00            593 	jp	00110$
                            594 ; genLabel
   0011                     595 00102$:
                            596 ;	galaxy.c 393
                            597 ; genCast
                            598 ; AOP_HL for _color
   0011 21 35 00            599 	ld	hl,#_color + 0
   0014 4E                  600 	ld	c,(hl)
   0015 06 00               601 	ld	b,#0x00
                            602 ; genCmpEq
   0017 79                  603 	ld	a,c ; 2
   0018 FE 10               604 	cp	a,#0x10
   001A C2 22 00            605 	jp	nz,00120$
   001D 78                  606 	ld	a,b ; 2
                            607 ; Rule 3
   001E B7                  608 	or	a,a
                            609 ; Rule 5
   001F CA 73 00            610 	jp	z,00108$
   0022                     611 00120$:
                            612 ; genCmpEq
   0022 79                  613 	ld	a,c ; 2
   0023 FE 20               614 	cp	a,#0x20
   0025 C2 2D 00            615 	jp	nz,00121$
   0028 78                  616 	ld	a,b ; 2
                            617 ; Rule 3
   0029 B7                  618 	or	a,a
                            619 ; Rule 5
   002A CA 5E 00            620 	jp	z,00103$
   002D                     621 00121$:
                            622 ; genCmpEq
   002D 79                  623 	ld	a,c ; 2
   002E FE 30               624 	cp	a,#0x30
   0030 C2 38 00            625 	jp	nz,00122$
   0033 78                  626 	ld	a,b ; 2
                            627 ; Rule 3
   0034 B7                  628 	or	a,a
                            629 ; Rule 5
   0035 CA 65 00            630 	jp	z,00105$
   0038                     631 00122$:
                            632 ; genCmpEq
   0038 79                  633 	ld	a,c ; 2
   0039 FE 40               634 	cp	a,#0x40
   003B C2 43 00            635 	jp	nz,00123$
   003E 78                  636 	ld	a,b ; 2
                            637 ; Rule 3
   003F B7                  638 	or	a,a
                            639 ; Rule 5
   0040 CA 6C 00            640 	jp	z,00107$
   0043                     641 00123$:
                            642 ; genCmpEq
   0043 79                  643 	ld	a,c ; 2
   0044 FE 50               644 	cp	a,#0x50
   0046 C2 4E 00            645 	jp	nz,00124$
   0049 78                  646 	ld	a,b ; 2
                            647 ; Rule 3
   004A B7                  648 	or	a,a
                            649 ; Rule 5
   004B CA 65 00            650 	jp	z,00105$
   004E                     651 00124$:
                            652 ; genCmpEq
   004E 79                  653 	ld	a,c ; 2
   004F FE 60               654 	cp	a,#0x60
   0051 C2 5B 00            655 	jp	nz,00125$
   0054 78                  656 	ld	a,b ; 2
                            657 ; Rule 3
   0055 B7                  658 	or	a,a
   0056 C2 5B 00            659 	jp	nz,00125$
   0059 18 03               660 	jr	00126$
   005B                     661 00125$:
   005B C3 77 00            662 	jp	00109$
   005E                     663 00126$:
                            664 ;	galaxy.c 397
                            665 ; genLabel
   005E                     666 00103$:
                            667 ; genAssign
                            668 ; AOP_SFR for _BGP_REG
   005E 3E F9               669 	ld	a,#0xF9
   0060 E0 00               670 	ldh	(_BGP_REG+0),a
                            671 ;	galaxy.c 398
                            672 ; genGoto
   0062 C3 77 00            673 	jp	00109$
                            674 ;	galaxy.c 401
                            675 ; genLabel
   0065                     676 00105$:
                            677 ; genAssign
                            678 ; AOP_SFR for _BGP_REG
   0065 3E FE               679 	ld	a,#0xFE
   0067 E0 00               680 	ldh	(_BGP_REG+0),a
                            681 ;	galaxy.c 402
                            682 ; genGoto
   0069 C3 77 00            683 	jp	00109$
                            684 ;	galaxy.c 404
                            685 ; genLabel
   006C                     686 00107$:
                            687 ; genAssign
                            688 ; AOP_SFR for _BGP_REG
   006C 3E FF               689 	ld	a,#0xFF
   006E E0 00               690 	ldh	(_BGP_REG+0),a
                            691 ;	galaxy.c 405
                            692 ; genGoto
   0070 C3 77 00            693 	jp	00109$
                            694 ;	galaxy.c 407
                            695 ; genLabel
   0073                     696 00108$:
                            697 ; genAssign
                            698 ; AOP_SFR for _BGP_REG
   0073 3E E4               699 	ld	a,#0xE4
   0075 E0 00               700 	ldh	(_BGP_REG+0),a
                            701 ;	galaxy.c 409
                            702 ; genLabel
   0077                     703 00109$:
                            704 ;	galaxy.c 410
                            705 ; genMinus
                            706 ; AOP_HL for _color
   0077 21 35 00            707 	ld	hl,#_color + 0
   007A 35                  708 	dec	(hl)
                            709 ; genLabel
   007B                     710 00110$:
                            711 ; genEndFunction
   007B C1                  712 	pop	bc
   007C C9                  713 	ret
   007D                     714 ___fade_end:
                            715 ;	galaxy.c 414
                            716 ; genLabel
                            717 ; genFunction
                            718 ;	---------------------------------
                            719 ; Function scroll
                            720 ; ---------------------------------
   007D                     721 ___scroll_start:
   007D                     722 _scroll:
   007D C5                  723 	push	bc
   007E E8 F8               724 	lda sp,-8(sp)
                            725 ;	galaxy.c 417
                            726 ; genPointerGet
                            727 ; AOP_STK for _scroll_sloc0_1_0
   0080 11 37 00            728 	ld	de,#_bposx + 0
   0083 1A                  729 	ld	a,(de)
   0084 F8 06               730 	lda	hl,6(sp)
   0086 77                  731 	ld	(hl),a ; 3
   0087 13                  732 	inc	de
   0088 1A                  733 	ld	a,(de)
   0089 23                  734 	inc	hl
   008A 77                  735 	ld	(hl),a ; 3
                            736 ; genPointerGet
   008B 11 3B 00            737 	ld	de,#_bspx + 0
   008E 1A                  738 	ld	a,(de)
   008F 4F                  739 	ld	c,a
   0090 13                  740 	inc	de
   0091 1A                  741 	ld	a,(de)
   0092 47                  742 	ld	b,a
                            743 ; genPlus
                            744 ; AOP_STK for _scroll_sloc0_1_0
   0093 2B                  745 	dec	hl
   0094 7E                  746 	ld	a,(hl)
   0095 81                  747 	add	a,c
   0096 4F                  748 	ld	c,a
   0097 23                  749 	inc	hl
   0098 7E                  750 	ld	a,(hl)
   0099 88                  751 	adc	a,b
   009A 47                  752 	ld	b,a
                            753 ; genAssign (pointer)
   009B 11 37 00            754 	ld	de,#_bposx + 0
   009E 79                  755 	ld	a,c
   009F 12                  756 	ld	(de),a
   00A0 13                  757 	inc	de
   00A1 78                  758 	ld	a,b
   00A2 12                  759 	ld	(de),a
                            760 ;	galaxy.c 418
                            761 ; genPointerGet
                            762 ; AOP_STK for _scroll_sloc0_1_0
   00A3 11 39 00            763 	ld	de,#_bposy + 0
   00A6 1A                  764 	ld	a,(de)
   00A7 2B                  765 	dec	hl
   00A8 77                  766 	ld	(hl),a ; 3
   00A9 13                  767 	inc	de
   00AA 1A                  768 	ld	a,(de)
   00AB 23                  769 	inc	hl
   00AC 77                  770 	ld	(hl),a ; 3
                            771 ; genPointerGet
   00AD 11 3D 00            772 	ld	de,#_bspy + 0
   00B0 1A                  773 	ld	a,(de)
   00B1 4F                  774 	ld	c,a
   00B2 13                  775 	inc	de
   00B3 1A                  776 	ld	a,(de)
   00B4 47                  777 	ld	b,a
                            778 ; genPlus
                            779 ; AOP_STK for _scroll_sloc0_1_0
   00B5 2B                  780 	dec	hl
   00B6 7E                  781 	ld	a,(hl)
   00B7 81                  782 	add	a,c
   00B8 4F                  783 	ld	c,a
   00B9 23                  784 	inc	hl
   00BA 7E                  785 	ld	a,(hl)
   00BB 88                  786 	adc	a,b
   00BC 47                  787 	ld	b,a
                            788 ; genAssign (pointer)
   00BD 11 39 00            789 	ld	de,#_bposy + 0
   00C0 79                  790 	ld	a,c
   00C1 12                  791 	ld	(de),a
   00C2 13                  792 	inc	de
   00C3 78                  793 	ld	a,b
   00C4 12                  794 	ld	(de),a
                            795 ;	galaxy.c 419
                            796 ; genPlus
                            797 ; genPlusIncr
   00C5 11 38 00            798 	ld	de,#_bposx + 1
                            799 ; genPointerGet
                            800 ; AOP_SFR for _SCX_REG
   00C8 1A                  801 	ld	a,(de)
   00C9 E0 00               802 	ldh	(_SCX_REG+0),a
                            803 ;	galaxy.c 420
                            804 ; genPlus
                            805 ; genPlusIncr
   00CB 11 3A 00            806 	ld	de,#_bposy + 1
                            807 ; genPointerGet
                            808 ; AOP_SFR for _SCY_REG
   00CE 1A                  809 	ld	a,(de)
   00CF E0 00               810 	ldh	(_SCY_REG+0),a
                            811 ;	galaxy.c 423
                            812 ; genPointerGet
                            813 ; AOP_STK for _scroll_sloc0_1_0
   00D1 11 3F 00            814 	ld	de,#_wposx + 0
   00D4 1A                  815 	ld	a,(de)
   00D5 2B                  816 	dec	hl
   00D6 77                  817 	ld	(hl),a ; 3
   00D7 13                  818 	inc	de
   00D8 1A                  819 	ld	a,(de)
   00D9 23                  820 	inc	hl
   00DA 77                  821 	ld	(hl),a ; 3
                            822 ; genPointerGet
                            823 ; AOP_STK for _scroll_sloc1_1_0
   00DB 11 43 00            824 	ld	de,#_wspx + 0
   00DE 1A                  825 	ld	a,(de)
   00DF F8 04               826 	lda	hl,4(sp)
   00E1 77                  827 	ld	(hl),a ; 3
   00E2 13                  828 	inc	de
   00E3 1A                  829 	ld	a,(de)
   00E4 23                  830 	inc	hl
   00E5 77                  831 	ld	(hl),a ; 3
                            832 ; genPlus
                            833 ; AOP_STK for _scroll_sloc0_1_0
                            834 ; AOP_STK for _scroll_sloc1_1_0
   00E6 23                  835 	inc	hl
   00E7 7E                  836 	ld	a,(hl)
   00E8 2B                  837 	dec	hl
   00E9 2B                  838 	dec	hl
   00EA 86                  839 	add	a,(hl)
   00EB 23                  840 	inc	hl
   00EC 23                  841 	inc	hl
   00ED 77                  842 	ld	(hl),a ; 3
   00EE 23                  843 	inc	hl
   00EF 7E                  844 	ld	a,(hl)
   00F0 2B                  845 	dec	hl
   00F1 2B                  846 	dec	hl
   00F2 8E                  847 	adc	a,(hl)
   00F3 23                  848 	inc	hl
   00F4 23                  849 	inc	hl
   00F5 77                  850 	ld	(hl),a ; 3
                            851 ; genAssign (pointer)
                            852 ; AOP_STK for _scroll_sloc0_1_0
   00F6 11 3F 00            853 	ld	de,#_wposx + 0
   00F9 2B                  854 	dec	hl
   00FA 7E                  855 	ld	a,(hl)
   00FB 12                  856 	ld	(de),a
   00FC 13                  857 	inc	de
   00FD 23                  858 	inc	hl
   00FE 7E                  859 	ld	a,(hl)
   00FF 12                  860 	ld	(de),a
                            861 ;	galaxy.c 424
                            862 ; genPointerGet
                            863 ; AOP_STK for _scroll_sloc0_1_0
   0100 11 41 00            864 	ld	de,#_wposy + 0
   0103 1A                  865 	ld	a,(de)
   0104 2B                  866 	dec	hl
   0105 77                  867 	ld	(hl),a ; 3
   0106 13                  868 	inc	de
   0107 1A                  869 	ld	a,(de)
   0108 23                  870 	inc	hl
   0109 77                  871 	ld	(hl),a ; 3
                            872 ; genPointerGet
                            873 ; AOP_STK for _scroll_sloc2_1_0
   010A 11 45 00            874 	ld	de,#_wspy + 0
   010D 1A                  875 	ld	a,(de)
   010E F8 02               876 	lda	hl,2(sp)
   0110 77                  877 	ld	(hl),a ; 3
   0111 13                  878 	inc	de
   0112 1A                  879 	ld	a,(de)
   0113 23                  880 	inc	hl
   0114 77                  881 	ld	(hl),a ; 3
                            882 ; genPlus
                            883 ; AOP_STK for _scroll_sloc0_1_0
                            884 ; AOP_STK for _scroll_sloc2_1_0
   0115 F8 06               885 	lda	hl,6(sp)
   0117 7E                  886 	ld	a,(hl)
   0118 F8 02               887 	lda	hl,2(sp)
   011A 86                  888 	add	a,(hl)
   011B F8 06               889 	lda	hl,6(sp)
   011D 77                  890 	ld	(hl),a ; 3
   011E 23                  891 	inc	hl
   011F 7E                  892 	ld	a,(hl)
   0120 F8 03               893 	lda	hl,3(sp)
   0122 8E                  894 	adc	a,(hl)
   0123 F8 07               895 	lda	hl,7(sp)
   0125 77                  896 	ld	(hl),a ; 3
                            897 ; genAssign (pointer)
                            898 ; AOP_STK for _scroll_sloc0_1_0
   0126 11 41 00            899 	ld	de,#_wposy + 0
   0129 2B                  900 	dec	hl
   012A 7E                  901 	ld	a,(hl)
   012B 12                  902 	ld	(de),a
   012C 13                  903 	inc	de
   012D 23                  904 	inc	hl
   012E 7E                  905 	ld	a,(hl)
   012F 12                  906 	ld	(de),a
                            907 ;	galaxy.c 426
                            908 ; genPlus
                            909 ; AOP_STK for _scroll_sloc3_1_0
                            910 ; genPlusIncr
   0130 3E 3F               911 	ld	a,#<_wposx
   0132 C6 01               912 	add	a,#0x01
   0134 F8 00               913 	lda	hl,0(sp)
   0136 77                  914 	ld	(hl),a ; 3
   0137 3E 00               915 	ld	a,#>_wposx
   0139 CE 00               916 	adc	a,#0x00
   013B 23                  917 	inc	hl
   013C 77                  918 	ld	(hl),a ; 3
                            919 ; genPointerGet
                            920 ; AOP_STK for _scroll_sloc3_1_0
                            921 ; AOP_STK for _scroll_sloc0_1_0
   013D 2B                  922 	dec	hl
   013E 5E                  923 	ld	e,(hl)
   013F 23                  924 	inc	hl
   0140 56                  925 	ld	d,(hl)
   0141 1A                  926 	ld	a,(de)
   0142 F8 06               927 	lda	hl,6(sp)
   0144 77                  928 	ld	(hl),a ; 3
                            929 ; genCmpLt
                            930 ; AOP_STK for _scroll_sloc0_1_0
   0145 7E                  931 	ld	a,(hl)
   0146 FE A6               932 	cp	#0xA6
   0148 DA 6A 01            933 	jp	c,00104$
                            934 ;	galaxy.c 427
                            935 ; genAssign (pointer)
                            936 ; AOP_STK for _scroll_sloc3_1_0
   014B F8 00               937 	lda	hl,0(sp)
   014D 5E                  938 	ld	e,(hl)
   014E 23                  939 	inc	hl
   014F 56                  940 	ld	d,(hl)
   0150 3E A6               941 	ld	a,#0xA6
   0152 12                  942 	ld	(de),a
                            943 ;	galaxy.c 429
                            944 ; genUminus
                            945 ; AOP_STK for _scroll_sloc1_1_0
   0153 AF                  946 	xor	a,a
   0154 F8 04               947 	lda	hl,4(sp)
   0156 3E 00               948 	ld	a,#0x00
   0158 9E                  949 	sbc	a,(hl)
   0159 4F                  950 	ld	c,a
   015A 23                  951 	inc	hl
   015B 3E 00               952 	ld	a,#0x00
   015D 9E                  953 	sbc	a,(hl)
   015E 47                  954 	ld	b,a
                            955 ; genAssign (pointer)
   015F 11 43 00            956 	ld	de,#_wspx + 0
   0162 79                  957 	ld	a,c
   0163 12                  958 	ld	(de),a
   0164 13                  959 	inc	de
   0165 78                  960 	ld	a,b
   0166 12                  961 	ld	(de),a
                            962 ; genGoto
   0167 C3 98 01            963 	jp	00105$
                            964 ; genLabel
   016A                     965 00104$:
                            966 ;	galaxy.c 430
                            967 ; genPointerGet
                            968 ; AOP_STK for _scroll_sloc3_1_0
   016A F8 00               969 	lda	hl,0(sp)
   016C 5E                  970 	ld	e,(hl)
   016D 23                  971 	inc	hl
   016E 56                  972 	ld	d,(hl)
   016F 1A                  973 	ld	a,(de)
   0170 4F                  974 	ld	c,a
                            975 ; genCast
                            976 ; Removed redundent load
   0171 06 00               977 	ld	b,#0x00
                            978 ; genCmpGt
   0173 AF                  979 	xor	a,a
   0174 3E 27               980 	ld	a,#0x27
   0176 99                  981 	sbc	a,c ; 2
   0177 3E 00               982 	ld	a,#0x00
   0179 98                  983 	sbc	a,b ; 2
   017A DA 98 01            984 	jp	c,00105$
                            985 ;	galaxy.c 431
                            986 ; genAssign (pointer)
                            987 ; AOP_STK for _scroll_sloc3_1_0
   017D 2B                  988 	dec	hl
   017E 5E                  989 	ld	e,(hl)
   017F 23                  990 	inc	hl
   0180 56                  991 	ld	d,(hl)
   0181 3E 27               992 	ld	a,#0x27
   0183 12                  993 	ld	(de),a
                            994 ;	galaxy.c 433
                            995 ; genUminus
                            996 ; AOP_STK for _scroll_sloc1_1_0
   0184 AF                  997 	xor	a,a
   0185 F8 04               998 	lda	hl,4(sp)
   0187 3E 00               999 	ld	a,#0x00
   0189 9E                 1000 	sbc	a,(hl)
   018A 4F                 1001 	ld	c,a
   018B 23                 1002 	inc	hl
   018C 3E 00              1003 	ld	a,#0x00
   018E 9E                 1004 	sbc	a,(hl)
   018F 47                 1005 	ld	b,a
                           1006 ; genAssign (pointer)
   0190 11 43 00           1007 	ld	de,#_wspx + 0
   0193 79                 1008 	ld	a,c
   0194 12                 1009 	ld	(de),a
   0195 13                 1010 	inc	de
   0196 78                 1011 	ld	a,b
   0197 12                 1012 	ld	(de),a
                           1013 ; genLabel
   0198                    1014 00105$:
                           1015 ;	galaxy.c 435
                           1016 ; genPointerGet
                           1017 ; AOP_STK for _scroll_sloc3_1_0
                           1018 ; AOP_SFR for _WX_REG
   0198 F8 00              1019 	lda	hl,0(sp)
   019A 5E                 1020 	ld	e,(hl)
   019B 23                 1021 	inc	hl
   019C 56                 1022 	ld	d,(hl)
   019D 1A                 1023 	ld	a,(de)
   019E E0 00              1024 	ldh	(_WX_REG+0),a
                           1025 ;	galaxy.c 437
                           1026 ; genPlus
                           1027 ; AOP_STK for _scroll_sloc1_1_0
                           1028 ; genPlusIncr
   01A0 3E 41              1029 	ld	a,#<_wposy
   01A2 C6 01              1030 	add	a,#0x01
   01A4 F8 04              1031 	lda	hl,4(sp)
   01A6 77                 1032 	ld	(hl),a ; 3
   01A7 3E 00              1033 	ld	a,#>_wposy
   01A9 CE 00              1034 	adc	a,#0x00
   01AB 23                 1035 	inc	hl
   01AC 77                 1036 	ld	(hl),a ; 3
                           1037 ; genPointerGet
                           1038 ; AOP_STK for _scroll_sloc1_1_0
                           1039 ; AOP_STK for _scroll_sloc3_1_0
   01AD 2B                 1040 	dec	hl
   01AE 5E                 1041 	ld	e,(hl)
   01AF 23                 1042 	inc	hl
   01B0 56                 1043 	ld	d,(hl)
   01B1 1A                 1044 	ld	a,(de)
   01B2 F8 00              1045 	lda	hl,0(sp)
   01B4 77                 1046 	ld	(hl),a ; 3
                           1047 ; genCmpLt
                           1048 ; AOP_STK for _scroll_sloc3_1_0
   01B5 7E                 1049 	ld	a,(hl)
   01B6 FE 8F              1050 	cp	#0x8F
   01B8 DA DA 01           1051 	jp	c,00109$
                           1052 ;	galaxy.c 438
                           1053 ; genAssign (pointer)
                           1054 ; AOP_STK for _scroll_sloc1_1_0
   01BB F8 04              1055 	lda	hl,4(sp)
   01BD 5E                 1056 	ld	e,(hl)
   01BE 23                 1057 	inc	hl
   01BF 56                 1058 	ld	d,(hl)
   01C0 3E 8F              1059 	ld	a,#0x8F
   01C2 12                 1060 	ld	(de),a
                           1061 ;	galaxy.c 440
                           1062 ; genUminus
                           1063 ; AOP_STK for _scroll_sloc2_1_0
   01C3 AF                 1064 	xor	a,a
   01C4 F8 02              1065 	lda	hl,2(sp)
   01C6 3E 00              1066 	ld	a,#0x00
   01C8 9E                 1067 	sbc	a,(hl)
   01C9 4F                 1068 	ld	c,a
   01CA 23                 1069 	inc	hl
   01CB 3E 00              1070 	ld	a,#0x00
   01CD 9E                 1071 	sbc	a,(hl)
   01CE 47                 1072 	ld	b,a
                           1073 ; genAssign (pointer)
   01CF 11 45 00           1074 	ld	de,#_wspy + 0
   01D2 79                 1075 	ld	a,c
   01D3 12                 1076 	ld	(de),a
   01D4 13                 1077 	inc	de
   01D5 78                 1078 	ld	a,b
   01D6 12                 1079 	ld	(de),a
                           1080 ; genGoto
   01D7 C3 08 02           1081 	jp	00110$
                           1082 ; genLabel
   01DA                    1083 00109$:
                           1084 ;	galaxy.c 441
                           1085 ; genPointerGet
                           1086 ; AOP_STK for _scroll_sloc1_1_0
   01DA F8 04              1087 	lda	hl,4(sp)
   01DC 5E                 1088 	ld	e,(hl)
   01DD 23                 1089 	inc	hl
   01DE 56                 1090 	ld	d,(hl)
   01DF 1A                 1091 	ld	a,(de)
   01E0 4F                 1092 	ld	c,a
                           1093 ; genCast
                           1094 ; Removed redundent load
   01E1 06 00              1095 	ld	b,#0x00
                           1096 ; genCmpGt
   01E3 AF                 1097 	xor	a,a
   01E4 3E 40              1098 	ld	a,#0x40
   01E6 99                 1099 	sbc	a,c ; 2
   01E7 3E 00              1100 	ld	a,#0x00
   01E9 98                 1101 	sbc	a,b ; 2
   01EA DA 08 02           1102 	jp	c,00110$
                           1103 ;	galaxy.c 442
                           1104 ; genAssign (pointer)
                           1105 ; AOP_STK for _scroll_sloc1_1_0
   01ED 2B                 1106 	dec	hl
   01EE 5E                 1107 	ld	e,(hl)
   01EF 23                 1108 	inc	hl
   01F0 56                 1109 	ld	d,(hl)
   01F1 3E 40              1110 	ld	a,#0x40
   01F3 12                 1111 	ld	(de),a
                           1112 ;	galaxy.c 444
                           1113 ; genUminus
                           1114 ; AOP_STK for _scroll_sloc2_1_0
   01F4 AF                 1115 	xor	a,a
   01F5 F8 02              1116 	lda	hl,2(sp)
   01F7 3E 00              1117 	ld	a,#0x00
   01F9 9E                 1118 	sbc	a,(hl)
   01FA 4F                 1119 	ld	c,a
   01FB 23                 1120 	inc	hl
   01FC 3E 00              1121 	ld	a,#0x00
   01FE 9E                 1122 	sbc	a,(hl)
   01FF 47                 1123 	ld	b,a
                           1124 ; genAssign (pointer)
   0200 11 45 00           1125 	ld	de,#_wspy + 0
   0203 79                 1126 	ld	a,c
   0204 12                 1127 	ld	(de),a
   0205 13                 1128 	inc	de
   0206 78                 1129 	ld	a,b
   0207 12                 1130 	ld	(de),a
                           1131 ; genLabel
   0208                    1132 00110$:
                           1133 ;	galaxy.c 446
                           1134 ; genPointerGet
                           1135 ; AOP_STK for _scroll_sloc1_1_0
                           1136 ; AOP_SFR for _WY_REG
   0208 F8 04              1137 	lda	hl,4(sp)
   020A 5E                 1138 	ld	e,(hl)
   020B 23                 1139 	inc	hl
   020C 56                 1140 	ld	d,(hl)
   020D 1A                 1141 	ld	a,(de)
   020E E0 00              1142 	ldh	(_WY_REG+0),a
                           1143 ;	galaxy.c 449
                           1144 ; genPointerGet
                           1145 ; AOP_STK for _scroll_sloc3_1_0
   0210 11 47 00           1146 	ld	de,#_sposx + 0
   0213 1A                 1147 	ld	a,(de)
   0214 F8 00              1148 	lda	hl,0(sp)
   0216 77                 1149 	ld	(hl),a ; 3
   0217 13                 1150 	inc	de
   0218 1A                 1151 	ld	a,(de)
   0219 23                 1152 	inc	hl
   021A 77                 1153 	ld	(hl),a ; 3
                           1154 ; genPointerGet
   021B 11 4B 00           1155 	ld	de,#_sspx + 0
   021E 1A                 1156 	ld	a,(de)
   021F 4F                 1157 	ld	c,a
   0220 13                 1158 	inc	de
   0221 1A                 1159 	ld	a,(de)
   0222 47                 1160 	ld	b,a
                           1161 ; genPlus
                           1162 ; AOP_STK for _scroll_sloc3_1_0
   0223 2B                 1163 	dec	hl
   0224 7E                 1164 	ld	a,(hl)
   0225 81                 1165 	add	a,c
   0226 4F                 1166 	ld	c,a
   0227 23                 1167 	inc	hl
   0228 7E                 1168 	ld	a,(hl)
   0229 88                 1169 	adc	a,b
   022A 47                 1170 	ld	b,a
                           1171 ; genAssign (pointer)
   022B 11 47 00           1172 	ld	de,#_sposx + 0
   022E 79                 1173 	ld	a,c
   022F 12                 1174 	ld	(de),a
   0230 13                 1175 	inc	de
   0231 78                 1176 	ld	a,b
   0232 12                 1177 	ld	(de),a
                           1178 ;	galaxy.c 450
                           1179 ; genPointerGet
                           1180 ; AOP_STK for _scroll_sloc3_1_0
   0233 11 49 00           1181 	ld	de,#_sposy + 0
   0236 1A                 1182 	ld	a,(de)
   0237 2B                 1183 	dec	hl
   0238 77                 1184 	ld	(hl),a ; 3
   0239 13                 1185 	inc	de
   023A 1A                 1186 	ld	a,(de)
   023B 23                 1187 	inc	hl
   023C 77                 1188 	ld	(hl),a ; 3
                           1189 ; genPointerGet
   023D 11 4D 00           1190 	ld	de,#_sspy + 0
   0240 1A                 1191 	ld	a,(de)
   0241 4F                 1192 	ld	c,a
   0242 13                 1193 	inc	de
   0243 1A                 1194 	ld	a,(de)
   0244 47                 1195 	ld	b,a
                           1196 ; genPlus
                           1197 ; AOP_STK for _scroll_sloc3_1_0
   0245 2B                 1198 	dec	hl
   0246 7E                 1199 	ld	a,(hl)
   0247 81                 1200 	add	a,c
   0248 4F                 1201 	ld	c,a
   0249 23                 1202 	inc	hl
   024A 7E                 1203 	ld	a,(hl)
   024B 88                 1204 	adc	a,b
   024C 47                 1205 	ld	b,a
                           1206 ; genAssign (pointer)
   024D 11 49 00           1207 	ld	de,#_sposy + 0
   0250 79                 1208 	ld	a,c
   0251 12                 1209 	ld	(de),a
   0252 13                 1210 	inc	de
   0253 78                 1211 	ld	a,b
   0254 12                 1212 	ld	(de),a
                           1213 ;	galaxy.c 451
                           1214 ; genCall
   0255 CD 5C 03           1215 	call	_place_sprite
                           1216 ; genLabel
   0258                    1217 00111$:
                           1218 ; genEndFunction
   0258 E8 08              1219 	lda	sp,8(sp)
   025A C1                 1220 	pop bc
   025B C9                 1221 	ret
   025C                    1222 ___scroll_end:
                           1223 ;	galaxy.c 455
                           1224 ; genLabel
                           1225 ; genFunction
                           1226 ;	---------------------------------
                           1227 ; Function door
                           1228 ; ---------------------------------
   025C                    1229 ___door_start:
   025C                    1230 _door:
   025C C5                 1231 	push	bc
                           1232 ;	galaxy.c 457
                           1233 ; genCmpEq
                           1234 ; AOP_HL for _doorstate
   025D 21 33 00           1235 	ld	hl,#_doorstate + 0
   0260 7E                 1236 	ld	a,(hl) ; 2
   0261 FE 01              1237 	cp	a,#0x01
   0263 C2 68 02           1238 	jp	nz,00116$
   0266 18 03              1239 	jr	00117$
   0268                    1240 00116$:
   0268 C3 AC 02           1241 	jp	00108$
   026B                    1242 00117$:
                           1243 ;	galaxy.c 458
                           1244 ; genPlus
                           1245 ; AOP_HL for _doorpos
                           1246 ; genPlusIncr
   026B 21 34 00           1247 	ld	hl,#_doorpos + 0
   026E 34                 1248 	inc	(hl)
                           1249 ;	galaxy.c 460
                           1250 ; genLeftShift
                           1251 ; AOP_HL for _doorpos
   026F 7E                 1252 	ld	a,(hl)
   0270 87                 1253 	add	a,a
   0271 4F                 1254 	ld	c,a
                           1255 ; genPlus
   0272 3E 00              1256 	ld	a,#<_film
   0274 81                 1257 	add	a,c
   0275 5F                 1258 	ld	e,a
   0276 3E 00              1259 	ld	a,#>_film
   0278 CE 00              1260 	adc	a,#0x00
   027A 57                 1261 	ld	d,a
                           1262 ; genPointerGet
                           1263 ; Removed redundent load
                           1264 ; Removed redundent load
   027B 1A                 1265 	ld	a,(de)
   027C 4F                 1266 	ld	c,a
   027D 13                 1267 	inc	de
   027E 1A                 1268 	ld	a,(de)
   027F 47                 1269 	ld	b,a
                           1270 ; genIpush
   0280 C5                 1271 	push	bc
                           1272 ; genIpush
   0281 3E 06              1273 	ld	a,#0x06
   0283 F5                 1274 	push	af
   0284 33                 1275 	inc	sp
                           1276 ; genIpush
   0285 3E 0C              1277 	ld	a,#0x0C
   0287 F5                 1278 	push	af
   0288 33                 1279 	inc	sp
                           1280 ; genIpush
   0289 3E 02              1281 	ld	a,#0x02
   028B F5                 1282 	push	af
   028C 33                 1283 	inc	sp
                           1284 ; genIpush
   028D 3E 02              1285 	ld	a,#0x02
   028F F5                 1286 	push	af
   0290 33                 1287 	inc	sp
                           1288 ; genCall
   0291 CD 00 00           1289 	call	_set_win_tiles
   0294 E8 06              1290 	lda	sp,6(sp)
                           1291 ;	galaxy.c 461
                           1292 ; genCmpEq
                           1293 ; AOP_HL for _doorpos
   0296 21 34 00           1294 	ld	hl,#_doorpos + 0
   0299 7E                 1295 	ld	a,(hl) ; 2
   029A FE 18              1296 	cp	a,#0x18
   029C C2 A1 02           1297 	jp	nz,00118$
   029F 18 03              1298 	jr	00119$
   02A1                    1299 00118$:
   02A1 C3 F7 02           1300 	jp	00110$
   02A4                    1301 00119$:
                           1302 ;	galaxy.c 462
                           1303 ; genAssign
                           1304 ; AOP_HL for _doorstate
   02A4 21 33 00           1305 	ld	hl,#_doorstate + 0
   02A7 36 02              1306 	ld	(hl),#0x02
                           1307 ; genGoto
   02A9 C3 F7 02           1308 	jp	00110$
                           1309 ; genLabel
   02AC                    1310 00108$:
                           1311 ;	galaxy.c 463
                           1312 ; genCmpEq
                           1313 ; AOP_HL for _doorstate
   02AC 21 33 00           1314 	ld	hl,#_doorstate + 0
   02AF 7E                 1315 	ld	a,(hl) ; 2
   02B0 FE 03              1316 	cp	a,#0x03
   02B2 C2 B7 02           1317 	jp	nz,00120$
   02B5 18 03              1318 	jr	00121$
   02B7                    1319 00120$:
   02B7 C3 F7 02           1320 	jp	00110$
   02BA                    1321 00121$:
                           1322 ;	galaxy.c 464
                           1323 ; genMinus
                           1324 ; AOP_HL for _doorpos
   02BA 21 34 00           1325 	ld	hl,#_doorpos + 0
   02BD 35                 1326 	dec	(hl)
                           1327 ;	galaxy.c 466
                           1328 ; genLeftShift
                           1329 ; AOP_HL for _doorpos
   02BE 7E                 1330 	ld	a,(hl)
   02BF 87                 1331 	add	a,a
   02C0 4F                 1332 	ld	c,a
                           1333 ; genPlus
   02C1 3E 00              1334 	ld	a,#<_film
   02C3 81                 1335 	add	a,c
   02C4 5F                 1336 	ld	e,a
   02C5 3E 00              1337 	ld	a,#>_film
   02C7 CE 00              1338 	adc	a,#0x00
   02C9 57                 1339 	ld	d,a
                           1340 ; genPointerGet
                           1341 ; Removed redundent load
                           1342 ; Removed redundent load
   02CA 1A                 1343 	ld	a,(de)
   02CB 4F                 1344 	ld	c,a
   02CC 13                 1345 	inc	de
   02CD 1A                 1346 	ld	a,(de)
   02CE 47                 1347 	ld	b,a
                           1348 ; genIpush
   02CF C5                 1349 	push	bc
                           1350 ; genIpush
   02D0 3E 06              1351 	ld	a,#0x06
   02D2 F5                 1352 	push	af
   02D3 33                 1353 	inc	sp
                           1354 ; genIpush
   02D4 3E 0C              1355 	ld	a,#0x0C
   02D6 F5                 1356 	push	af
   02D7 33                 1357 	inc	sp
                           1358 ; genIpush
   02D8 3E 02              1359 	ld	a,#0x02
   02DA F5                 1360 	push	af
   02DB 33                 1361 	inc	sp
                           1362 ; genIpush
   02DC 3E 02              1363 	ld	a,#0x02
   02DE F5                 1364 	push	af
   02DF 33                 1365 	inc	sp
                           1366 ; genCall
   02E0 CD 00 00           1367 	call	_set_win_tiles
   02E3 E8 06              1368 	lda	sp,6(sp)
                           1369 ;	galaxy.c 467
                           1370 ; genCmpEq
                           1371 ; AOP_HL for _doorpos
   02E5 21 34 00           1372 	ld	hl,#_doorpos + 0
   02E8 7E                 1373 	ld	a,(hl)
   02E9 B7                 1374 	or	a,a
   02EA C2 EF 02           1375 	jp	nz,00122$
   02ED 18 03              1376 	jr	00123$
   02EF                    1377 00122$:
   02EF C3 F7 02           1378 	jp	00110$
   02F2                    1379 00123$:
                           1380 ;	galaxy.c 468
                           1381 ; genAssign
                           1382 ; AOP_HL for _doorstate
   02F2 21 33 00           1383 	ld	hl,#_doorstate + 0
   02F5 36 00              1384 	ld	(hl),#0x00
                           1385 ; genLabel
   02F7                    1386 00110$:
                           1387 ; genEndFunction
   02F7 C1                 1388 	pop	bc
   02F8 C9                 1389 	ret
   02F9                    1390 ___door_end:
                           1391 ;	galaxy.c 473
                           1392 ; genLabel
                           1393 ; genFunction
                           1394 ;	---------------------------------
                           1395 ; Function animate_sprite
                           1396 ; ---------------------------------
   02F9                    1397 ___animate_sprite_start:
   02F9                    1398 _animate_sprite:
   02F9 C5                 1399 	push	bc
                           1400 ;	galaxy.c 475
                           1401 ; genAnd
                           1402 ; AOP_HL for _time
   02FA 21 32 00           1403 	ld	hl,#_time + 0
   02FD 7E                 1404 	ld	a,(hl)
   02FE E6 07              1405 	and	a,#0x07
   0300 4F                 1406 	ld	c,a
                           1407 ; genCmpEq
   0301 79                 1408 	ld	a,c
   0302 B7                 1409 	or	a,a
   0303 C2 08 03           1410 	jp	nz,00109$
   0306 18 03              1411 	jr	00110$
   0308                    1412 00109$:
   0308 C3 22 03           1413 	jp	00105$
   030B                    1414 00110$:
                           1415 ;	galaxy.c 476
                           1416 ; genPlus
                           1417 ; AOP_HL for _sframe
                           1418 ; genPlusIncr
   030B 21 36 00           1419 	ld	hl,#_sframe + 0
   030E 34                 1420 	inc	(hl)
                           1421 ;	galaxy.c 477
                           1422 ; genCmpEq
                           1423 ; AOP_HL for _sframe
   030F 7E                 1424 	ld	a,(hl) ; 2
   0310 FE 07              1425 	cp	a,#0x07
   0312 C2 17 03           1426 	jp	nz,00111$
   0315 18 03              1427 	jr	00112$
   0317                    1428 00111$:
   0317 C3 1F 03           1429 	jp	00102$
   031A                    1430 00112$:
                           1431 ;	galaxy.c 478
                           1432 ; genAssign
                           1433 ; AOP_HL for _sframe
   031A 21 36 00           1434 	ld	hl,#_sframe + 0
   031D 36 00              1435 	ld	(hl),#0x00
                           1436 ; genLabel
   031F                    1437 00102$:
                           1438 ;	galaxy.c 479
                           1439 ; genCall
   031F CD 24 03           1440 	call	_tile_sprite
                           1441 ; genLabel
   0322                    1442 00105$:
                           1443 ; genEndFunction
   0322 C1                 1444 	pop	bc
   0323 C9                 1445 	ret
   0324                    1446 ___animate_sprite_end:
                           1447 ;	galaxy.c 484
                           1448 ; genLabel
                           1449 ; genFunction
                           1450 ;	---------------------------------
                           1451 ; Function tile_sprite
                           1452 ; ---------------------------------
   0324                    1453 ___tile_sprite_start:
   0324                    1454 _tile_sprite:
   0324 C5                 1455 	push	bc
                           1456 ;	galaxy.c 488
                           1457 ; genLeftShift
                           1458 ; AOP_HL for _sframe
   0325 21 36 00           1459 	ld	hl,#_sframe + 0
   0328 7E                 1460 	ld	a,(hl)
   0329 87                 1461 	add	a,a
   032A 4F                 1462 	ld	c,a
                           1463 ;	galaxy.c 489
                           1464 ; genPlus
   032B 3E E2              1465 	ld	a,#<_earth_tiles
   032D 81                 1466 	add	a,c
   032E 5F                 1467 	ld	e,a
   032F 3E 0F              1468 	ld	a,#>_earth_tiles
   0331 CE 00              1469 	adc	a,#0x00
   0333 57                 1470 	ld	d,a
                           1471 ; genPointerGet
   0334 1A                 1472 	ld	a,(de)
   0335 47                 1473 	ld	b,a
                           1474 ; genIpush
   0336 78                 1475 	ld	a,b
   0337 F5                 1476 	push	af
   0338 33                 1477 	inc	sp
                           1478 ; genIpush
   0339 3E 00              1479 	ld	a,#0x00
   033B F5                 1480 	push	af
   033C 33                 1481 	inc	sp
                           1482 ; genCall
   033D CD 00 00           1483 	call	_set_sprite_tile
   0340 E8 02              1484 	lda	sp,2(sp)
                           1485 ;	galaxy.c 490
                           1486 ; genPlus
                           1487 ; genPlusIncr
   0342 0C                 1488 	inc	c
                           1489 ; genPlus
   0343 3E E2              1490 	ld	a,#<_earth_tiles
   0345 81                 1491 	add	a,c
   0346 5F                 1492 	ld	e,a
   0347 3E 0F              1493 	ld	a,#>_earth_tiles
   0349 CE 00              1494 	adc	a,#0x00
   034B 57                 1495 	ld	d,a
                           1496 ; genPointerGet
   034C 1A                 1497 	ld	a,(de)
   034D 4F                 1498 	ld	c,a
                           1499 ; genIpush
   034E 79                 1500 	ld	a,c
   034F F5                 1501 	push	af
   0350 33                 1502 	inc	sp
                           1503 ; genIpush
   0351 3E 01              1504 	ld	a,#0x01
   0353 F5                 1505 	push	af
   0354 33                 1506 	inc	sp
                           1507 ; genCall
   0355 CD 00 00           1508 	call	_set_sprite_tile
   0358 E8 02              1509 	lda	sp,2(sp)
                           1510 ; genLabel
   035A                    1511 00101$:
                           1512 ; genEndFunction
   035A C1                 1513 	pop	bc
   035B C9                 1514 	ret
   035C                    1515 ___tile_sprite_end:
                           1516 ;	galaxy.c 494
                           1517 ; genLabel
                           1518 ; genFunction
                           1519 ;	---------------------------------
                           1520 ; Function place_sprite
                           1521 ; ---------------------------------
   035C                    1522 ___place_sprite_start:
   035C                    1523 _place_sprite:
   035C C5                 1524 	push	bc
   035D E8 FA              1525 	lda sp,-6(sp)
                           1526 ;	galaxy.c 496
                           1527 ; genPlus
                           1528 ; AOP_STK for _place_sprite_sloc1_1_0
                           1529 ; genPlusIncr
   035F 3E 49              1530 	ld	a,#<_sposy
   0361 C6 01              1531 	add	a,#0x01
   0363 F8 03              1532 	lda	hl,3(sp)
   0365 77                 1533 	ld	(hl),a ; 3
   0366 3E 00              1534 	ld	a,#>_sposy
   0368 CE 00              1535 	adc	a,#0x00
   036A 23                 1536 	inc	hl
   036B 77                 1537 	ld	(hl),a ; 3
                           1538 ; genPointerGet
                           1539 ; AOP_STK for _place_sprite_sloc1_1_0
                           1540 ; AOP_STK for _place_sprite_sloc0_1_0
   036C 2B                 1541 	dec	hl
   036D 5E                 1542 	ld	e,(hl)
   036E 23                 1543 	inc	hl
   036F 56                 1544 	ld	d,(hl)
   0370 1A                 1545 	ld	a,(de)
   0371 23                 1546 	inc	hl
   0372 77                 1547 	ld	(hl),a ; 3
                           1548 ; genPlus
                           1549 ; AOP_STK for _place_sprite_sloc3_1_0
                           1550 ; genPlusIncr
   0373 3E 47              1551 	ld	a,#<_sposx
   0375 C6 01              1552 	add	a,#0x01
   0377 F8 00              1553 	lda	hl,0(sp)
   0379 77                 1554 	ld	(hl),a ; 3
   037A 3E 00              1555 	ld	a,#>_sposx
   037C CE 00              1556 	adc	a,#0x00
   037E 23                 1557 	inc	hl
   037F 77                 1558 	ld	(hl),a ; 3
                           1559 ; genPointerGet
                           1560 ; AOP_STK for _place_sprite_sloc3_1_0
                           1561 ; AOP_STK for _place_sprite_sloc2_1_0
   0380 2B                 1562 	dec	hl
   0381 5E                 1563 	ld	e,(hl)
   0382 23                 1564 	inc	hl
   0383 56                 1565 	ld	d,(hl)
   0384 1A                 1566 	ld	a,(de)
   0385 23                 1567 	inc	hl
   0386 77                 1568 	ld	(hl),a ; 3
                           1569 ; genIpush
                           1570 ; AOP_STK for _place_sprite_sloc0_1_0
   0387 F8 05              1571 	lda	hl,5(sp)
   0389 7E                 1572 	ld	a,(hl)
   038A F5                 1573 	push	af
   038B 33                 1574 	inc	sp
                           1575 ; genIpush
                           1576 ; AOP_STK for _place_sprite_sloc2_1_0
   038C F8 03              1577 	lda	hl,3(sp)
   038E 7E                 1578 	ld	a,(hl)
   038F F5                 1579 	push	af
   0390 33                 1580 	inc	sp
                           1581 ; genIpush
   0391 3E 00              1582 	ld	a,#0x00
   0393 F5                 1583 	push	af
   0394 33                 1584 	inc	sp
                           1585 ; genCall
   0395 CD 00 00           1586 	call	_move_sprite
   0398 E8 03              1587 	lda	sp,3(sp)
                           1588 ;	galaxy.c 497
                           1589 ; genPointerGet
                           1590 ; AOP_STK for _place_sprite_sloc1_1_0
   039A F8 03              1591 	lda	hl,3(sp)
   039C 5E                 1592 	ld	e,(hl)
   039D 23                 1593 	inc	hl
   039E 56                 1594 	ld	d,(hl)
   039F 1A                 1595 	ld	a,(de)
   03A0 4F                 1596 	ld	c,a
                           1597 ; genPointerGet
                           1598 ; AOP_STK for _place_sprite_sloc3_1_0
   03A1 F8 00              1599 	lda	hl,0(sp)
   03A3 5E                 1600 	ld	e,(hl)
   03A4 23                 1601 	inc	hl
   03A5 56                 1602 	ld	d,(hl)
   03A6 1A                 1603 	ld	a,(de)
   03A7 47                 1604 	ld	b,a
                           1605 ; genPlus
                           1606 ; genPlusIncr
   03A8 78                 1607 	ld	a,b
   03A9 C6 08              1608 	add	a,#0x08
   03AB 47                 1609 	ld	b,a
                           1610 ; genIpush
   03AC 79                 1611 	ld	a,c
   03AD F5                 1612 	push	af
   03AE 33                 1613 	inc	sp
                           1614 ; genIpush
   03AF 78                 1615 	ld	a,b
   03B0 F5                 1616 	push	af
   03B1 33                 1617 	inc	sp
                           1618 ; genIpush
   03B2 3E 01              1619 	ld	a,#0x01
   03B4 F5                 1620 	push	af
   03B5 33                 1621 	inc	sp
                           1622 ; genCall
   03B6 CD 00 00           1623 	call	_move_sprite
   03B9 E8 03              1624 	lda	sp,3(sp)
                           1625 ; genLabel
   03BB                    1626 00101$:
                           1627 ; genEndFunction
   03BB E8 06              1628 	lda	sp,6(sp)
   03BD C1                 1629 	pop bc
   03BE C9                 1630 	ret
   03BF                    1631 ___place_sprite_end:
                           1632 ;	galaxy.c 500
                           1633 ; genLabel
                           1634 ; genFunction
                           1635 ;	---------------------------------
                           1636 ; Function main
                           1637 ; ---------------------------------
   03BF                    1638 ___main_start:
   03BF                    1639 _main:
   03BF C5                 1640 	push	bc
   03C0 E8 FA              1641 	lda sp,-6(sp)
                           1642 ;	galaxy.c 504
                           1643 ; genCall
   03C2 CD 00 00           1644 	call	_disable_interrupts
                           1645 ;	galaxy.c 505
                           1646 ; genCall
   03C5 CD 00 00           1647 	call	_display_off
                           1648 ;	galaxy.c 506
                           1649 ; genAssign
                           1650 ; AOP_SFR for _LCDC_REG
   03C8 3E 67              1651 	ld	a,#0x67
   03CA E0 00              1652 	ldh	(_LCDC_REG+0),a
                           1653 ;	galaxy.c 518
                           1654 ; genAssign
                           1655 ; AOP_HL for _doorstate
   03CC 21 33 00           1656 	ld	hl,#_doorstate + 0
   03CF 36 00              1657 	ld	(hl),#0x00
                           1658 ;	galaxy.c 521
                           1659 ; genAssign
                           1660 ; AOP_SFR for _OBP1_REG
   03D1 3E E4              1661 	ld	a,#0xE4
   03D3 E0 00              1662 	ldh	(_OBP1_REG+0),a
                           1663 ; genAssign
                           1664 ; AOP_SFR for _OBP0_REG
   03D5 3E E4              1665 	ld	a,#0xE4
   03D7 E0 00              1666 	ldh	(_OBP0_REG+0),a
                           1667 ; genAssign
                           1668 ; AOP_SFR for _BGP_REG
   03D9 3E E4              1669 	ld	a,#0xE4
   03DB E0 00              1670 	ldh	(_BGP_REG+0),a
                           1671 ;	galaxy.c 524
                           1672 ; genIpush
   03DD 21 C2 08           1673 	ld	hl,#_std_data + 0
   03E0 E5                 1674 	push	hl
                           1675 ; genIpush
   03E1 3E 04              1676 	ld	a,#0x04
   03E3 F5                 1677 	push	af
   03E4 33                 1678 	inc	sp
                           1679 ; genIpush
   03E5 3E FC              1680 	ld	a,#0xFC
   03E7 F5                 1681 	push	af
   03E8 33                 1682 	inc	sp
                           1683 ; genCall
   03E9 CD 00 00           1684 	call	_set_bkg_data
   03EC E8 04              1685 	lda	sp,4(sp)
                           1686 ;	galaxy.c 525
                           1687 ; genIpush
   03EE 21 D2 0C           1688 	ld	hl,#_bkg_data + 0
   03F1 E5                 1689 	push	hl
                           1690 ; genIpush
   03F2 3E 2D              1691 	ld	a,#0x2D
   03F4 F5                 1692 	push	af
   03F5 33                 1693 	inc	sp
                           1694 ; genIpush
   03F6 3E 00              1695 	ld	a,#0x00
   03F8 F5                 1696 	push	af
   03F9 33                 1697 	inc	sp
                           1698 ; genCall
   03FA CD 00 00           1699 	call	_set_bkg_data
   03FD E8 04              1700 	lda	sp,4(sp)
                           1701 ;	galaxy.c 532
                           1702 ; genAssign
                           1703 ; AOP_STK for _main_i_1_1
   03FF F8 05              1704 	lda	hl,5(sp)
   0401 36 00              1705 	ld	(hl),#0x00 ; 3
                           1706 ; genLabel
   0403                    1707 00147$:
                           1708 ; genCmpLt
                           1709 ; AOP_STK for _main_i_1_1
   0403 F8 05              1710 	lda	hl,5(sp)
   0405 7E                 1711 	ld	a,(hl)
   0406 FE 20              1712 	cp	#0x20
   0408 D2 45 04           1713 	jp	nc,00150$
                           1714 ;	galaxy.c 533
                           1715 ; genAssign
   040B 06 00              1716 	ld	b,#0x00
                           1717 ; genLabel
   040D                    1718 00143$:
                           1719 ; genCmpLt
                           1720 ; AOP_STK for _main_sloc0_1_0
   040D 78                 1721 	ld	a,b
   040E FE 20              1722 	cp	#0x20
   0410 3E 00              1723 	ld	a,#0x00
   0412 17                 1724 	rla
   0413 F8 04              1725 	lda	hl,4(sp)
   0415 77                 1726 	ld	(hl),a ; 3
                           1727 ; genIfx
                           1728 ; AOP_STK for _main_sloc0_1_0
                           1729 ; Removed redundent or a,a
   0416 AF                 1730 	xor	a,a
   0417 B6                 1731 	or	a,(hl)
   0418 CA 3C 04           1732 	jp	z,00149$
                           1733 ;	galaxy.c 534
                           1734 ; genIpush
   041B 21 A2 0F           1735 	ld	hl,#_bkg_tiles + 0
   041E E5                 1736 	push	hl
                           1737 ; genIpush
   041F 3E 08              1738 	ld	a,#0x08
   0421 F5                 1739 	push	af
   0422 33                 1740 	inc	sp
                           1741 ; genIpush
   0423 3E 08              1742 	ld	a,#0x08
   0425 F5                 1743 	push	af
   0426 33                 1744 	inc	sp
                           1745 ; genIpush
   0427 78                 1746 	ld	a,b
   0428 F5                 1747 	push	af
   0429 33                 1748 	inc	sp
                           1749 ; genIpush
                           1750 ; AOP_STK for _main_i_1_1
   042A F8 0A              1751 	lda	hl,10(sp)
   042C 7E                 1752 	ld	a,(hl)
   042D F5                 1753 	push	af
   042E 33                 1754 	inc	sp
                           1755 ; genCall
   042F CD 00 00           1756 	call	_set_bkg_tiles
   0432 E8 06              1757 	lda	sp,6(sp)
                           1758 ;	galaxy.c 533
                           1759 ; genPlus
                           1760 ; genPlusIncr
   0434 78                 1761 	ld	a,b
   0435 C6 08              1762 	add	a,#0x08
   0437 4F                 1763 	ld	c,a
                           1764 ; genAssign
   0438 41                 1765 	ld	b,c
                           1766 ; genGoto
   0439 C3 0D 04           1767 	jp	00143$
                           1768 ; genLabel
   043C                    1769 00149$:
                           1770 ;	galaxy.c 532
                           1771 ; genPlus
                           1772 ; AOP_STK for _main_i_1_1
                           1773 ; genPlusIncr
   043C F8 05              1774 	lda	hl,5(sp)
   043E 7E                 1775 	ld	a,(hl)
   043F C6 08              1776 	add	a,#0x08
   0441 77                 1777 	ld	(hl),a ; 3
                           1778 ; genGoto
   0442 C3 03 04           1779 	jp	00147$
                           1780 ; genLabel
   0445                    1781 00150$:
                           1782 ;	galaxy.c 535
                           1783 ; genAssign (pointer)
   0445 11 37 00           1784 	ld	de,#_bposx + 0
   0448 3E 00              1785 	ld	a,#0x00
   044A 12                 1786 	ld	(de),a
   044B 13                 1787 	inc	de
   044C 3E 00              1788 	ld	a,#0x00
   044E 12                 1789 	ld	(de),a
                           1790 ;	galaxy.c 536
                           1791 ; genAssign
                           1792 ; AOP_SFR for _SCX_REG
   044F 3E 00              1793 	ld	a,#0x00
   0451 E0 00              1794 	ldh	(_SCX_REG+0),a
                           1795 ;	galaxy.c 537
                           1796 ; genAssign (pointer)
   0453 11 39 00           1797 	ld	de,#_bposy + 0
   0456 3E 00              1798 	ld	a,#0x00
   0458 12                 1799 	ld	(de),a
   0459 13                 1800 	inc	de
   045A 3E 00              1801 	ld	a,#0x00
   045C 12                 1802 	ld	(de),a
                           1803 ;	galaxy.c 538
                           1804 ; genAssign
                           1805 ; AOP_SFR for _SCY_REG
   045D 3E 00              1806 	ld	a,#0x00
   045F E0 00              1807 	ldh	(_SCY_REG+0),a
                           1808 ;	galaxy.c 539
                           1809 ; genAssign (pointer)
   0461 11 3B 00           1810 	ld	de,#_bspx + 0
   0464 3E 00              1811 	ld	a,#0x00
   0466 12                 1812 	ld	(de),a
   0467 13                 1813 	inc	de
   0468 3E FF              1814 	ld	a,#0xFF
   046A 12                 1815 	ld	(de),a
                           1816 ;	galaxy.c 540
                           1817 ; genAssign (pointer)
   046B 11 3D 00           1818 	ld	de,#_bspy + 0
   046E 3E 80              1819 	ld	a,#0x80
   0470 12                 1820 	ld	(de),a
   0471 13                 1821 	inc	de
   0472 3E 00              1822 	ld	a,#0x00
   0474 12                 1823 	ld	(de),a
                           1824 ;	galaxy.c 543
                           1825 ; genIpush
   0475 21 C2 0A           1826 	ld	hl,#_frame_data + 0
   0478 E5                 1827 	push	hl
                           1828 ; genIpush
   0479 3E 21              1829 	ld	a,#0x21
   047B F5                 1830 	push	af
   047C 33                 1831 	inc	sp
                           1832 ; genIpush
   047D 3E 80              1833 	ld	a,#0x80
   047F F5                 1834 	push	af
   0480 33                 1835 	inc	sp
                           1836 ; genCall
   0481 CD 00 00           1837 	call	_set_win_data
   0484 E8 04              1838 	lda	sp,4(sp)
                           1839 ;	galaxy.c 550
                           1840 ; genIpush
   0486 21 F0 0F           1841 	ld	hl,#_frame_tiles + 0
   0489 E5                 1842 	push	hl
                           1843 ; genIpush
   048A 3E 0A              1844 	ld	a,#0x0A
   048C F5                 1845 	push	af
   048D 33                 1846 	inc	sp
                           1847 ; genIpush
   048E 3E 10              1848 	ld	a,#0x10
   0490 F5                 1849 	push	af
   0491 33                 1850 	inc	sp
                           1851 ; genIpush
   0492 3E 00              1852 	ld	a,#0x00
   0494 F5                 1853 	push	af
   0495 33                 1854 	inc	sp
                           1855 ; genIpush
   0496 3E 00              1856 	ld	a,#0x00
   0498 F5                 1857 	push	af
   0499 33                 1858 	inc	sp
                           1859 ; genCall
   049A CD 00 00           1860 	call	_set_win_tiles
   049D E8 06              1861 	lda	sp,6(sp)
                           1862 ;	galaxy.c 557
                           1863 ; genIpush
   049F 21 90 10           1864 	ld	hl,#_door1_tiles + 0
   04A2 E5                 1865 	push	hl
                           1866 ; genIpush
   04A3 3E 06              1867 	ld	a,#0x06
   04A5 F5                 1868 	push	af
   04A6 33                 1869 	inc	sp
                           1870 ; genIpush
   04A7 3E 0C              1871 	ld	a,#0x0C
   04A9 F5                 1872 	push	af
   04AA 33                 1873 	inc	sp
                           1874 ; genIpush
   04AB 3E 02              1875 	ld	a,#0x02
   04AD F5                 1876 	push	af
   04AE 33                 1877 	inc	sp
                           1878 ; genIpush
   04AF 3E 02              1879 	ld	a,#0x02
   04B1 F5                 1880 	push	af
   04B2 33                 1881 	inc	sp
                           1882 ; genCall
   04B3 CD 00 00           1883 	call	_set_win_tiles
   04B6 E8 06              1884 	lda	sp,6(sp)
                           1885 ;	galaxy.c 558
                           1886 ; genPlus
                           1887 ; genPlusIncr
   04B8 11 40 00           1888 	ld	de,#_wposx + 1
                           1889 ; genAssign (pointer)
   04BB 3E A6              1890 	ld	a,#0xA6
   04BD 12                 1891 	ld	(de),a
                           1892 ;	galaxy.c 559
                           1893 ; genAssign (pointer)
   04BE 11 3F 00           1894 	ld	de,#_wposx + 0
   04C1 3E 00              1895 	ld	a,#0x00
   04C3 12                 1896 	ld	(de),a
                           1897 ;	galaxy.c 560
                           1898 ; genAssign
                           1899 ; AOP_SFR for _WX_REG
   04C4 3E A6              1900 	ld	a,#0xA6
   04C6 E0 00              1901 	ldh	(_WX_REG+0),a
                           1902 ;	galaxy.c 561
                           1903 ; genPlus
                           1904 ; genPlusIncr
   04C8 11 42 00           1905 	ld	de,#_wposy + 1
                           1906 ; genAssign (pointer)
   04CB 3E 8F              1907 	ld	a,#0x8F
   04CD 12                 1908 	ld	(de),a
                           1909 ;	galaxy.c 562
                           1910 ; genAssign (pointer)
   04CE 11 41 00           1911 	ld	de,#_wposy + 0
   04D1 3E 00              1912 	ld	a,#0x00
   04D3 12                 1913 	ld	(de),a
                           1914 ;	galaxy.c 563
                           1915 ; genAssign
                           1916 ; AOP_SFR for _WY_REG
   04D4 3E 8F              1917 	ld	a,#0x8F
   04D6 E0 00              1918 	ldh	(_WY_REG+0),a
                           1919 ;	galaxy.c 564
                           1920 ; genAssign (pointer)
   04D8 11 43 00           1921 	ld	de,#_wspx + 0
   04DB 3E 80              1922 	ld	a,#0x80
   04DD 12                 1923 	ld	(de),a
   04DE 13                 1924 	inc	de
   04DF 3E FF              1925 	ld	a,#0xFF
   04E1 12                 1926 	ld	(de),a
                           1927 ;	galaxy.c 565
                           1928 ; genAssign (pointer)
   04E2 11 45 00           1929 	ld	de,#_wspy + 0
   04E5 3E C0              1930 	ld	a,#0xC0
   04E7 12                 1931 	ld	(de),a
   04E8 13                 1932 	inc	de
   04E9 3E FF              1933 	ld	a,#0xFF
   04EB 12                 1934 	ld	(de),a
                           1935 ;	galaxy.c 568
                           1936 ; genIpush
   04EC 21 02 09           1937 	ld	hl,#_earth_data + 0
   04EF E5                 1938 	push	hl
                           1939 ; genIpush
   04F0 3E 1C              1940 	ld	a,#0x1C
   04F2 F5                 1941 	push	af
   04F3 33                 1942 	inc	sp
                           1943 ; genIpush
   04F4 3E 00              1944 	ld	a,#0x00
   04F6 F5                 1945 	push	af
   04F7 33                 1946 	inc	sp
                           1947 ; genCall
   04F8 CD 00 00           1948 	call	_set_sprite_data
   04FB E8 04              1949 	lda	sp,4(sp)
                           1950 ;	galaxy.c 569
                           1951 ; genIpush
   04FD 3E 00              1952 	ld	a,#0x00
   04FF F5                 1953 	push	af
   0500 33                 1954 	inc	sp
                           1955 ; genIpush
   0501 3E 00              1956 	ld	a,#0x00
   0503 F5                 1957 	push	af
   0504 33                 1958 	inc	sp
                           1959 ; genCall
   0505 CD 00 00           1960 	call	_set_sprite_prop
   0508 E8 02              1961 	lda	sp,2(sp)
                           1962 ;	galaxy.c 570
                           1963 ; genIpush
   050A 3E 00              1964 	ld	a,#0x00
   050C F5                 1965 	push	af
   050D 33                 1966 	inc	sp
                           1967 ; genIpush
   050E 3E 01              1968 	ld	a,#0x01
   0510 F5                 1969 	push	af
   0511 33                 1970 	inc	sp
                           1971 ; genCall
   0512 CD 00 00           1972 	call	_set_sprite_prop
   0515 E8 02              1973 	lda	sp,2(sp)
                           1974 ;	galaxy.c 571
                           1975 ; genAssign
                           1976 ; AOP_HL for _sframe
   0517 21 36 00           1977 	ld	hl,#_sframe + 0
   051A 36 00              1978 	ld	(hl),#0x00
                           1979 ;	galaxy.c 572
                           1980 ; genAssign (pointer)
   051C 11 47 00           1981 	ld	de,#_sposx + 0
   051F 3E 00              1982 	ld	a,#0x00
   0521 12                 1983 	ld	(de),a
   0522 13                 1984 	inc	de
   0523 3E 10              1985 	ld	a,#0x10
   0525 12                 1986 	ld	(de),a
                           1987 ;	galaxy.c 573
                           1988 ; genAssign (pointer)
   0526 11 49 00           1989 	ld	de,#_sposy + 0
   0529 3E 00              1990 	ld	a,#0x00
   052B 12                 1991 	ld	(de),a
   052C 13                 1992 	inc	de
   052D 3E 10              1993 	ld	a,#0x10
   052F 12                 1994 	ld	(de),a
                           1995 ;	galaxy.c 574
                           1996 ; genAssign (pointer)
   0530 11 4B 00           1997 	ld	de,#_sspx + 0
   0533 3E 40              1998 	ld	a,#0x40
   0535 12                 1999 	ld	(de),a
   0536 13                 2000 	inc	de
   0537 3E 00              2001 	ld	a,#0x00
   0539 12                 2002 	ld	(de),a
                           2003 ;	galaxy.c 575
                           2004 ; genAssign (pointer)
   053A 11 4D 00           2005 	ld	de,#_sspy + 0
   053D 3E 40              2006 	ld	a,#0x40
   053F 12                 2007 	ld	(de),a
   0540 13                 2008 	inc	de
   0541 3E 00              2009 	ld	a,#0x00
   0543 12                 2010 	ld	(de),a
                           2011 ;	galaxy.c 576
                           2012 ; genCall
   0544 CD 24 03           2013 	call	_tile_sprite
                           2014 ;	galaxy.c 577
                           2015 ; genCall
   0547 CD 5C 03           2016 	call	_place_sprite
                           2017 ;	galaxy.c 579
                           2018 ; genOr
                           2019 ; AOP_SFR for _LCDC_REG
                           2020 ; Type res[4] = l[4]&r[1]
                           2021 ; Size res[1] = l[1]&r[1]
   054A F0 00              2022 	ldh	a,(_LCDC_REG+0) ; x
   054C F6 80              2023 	or	a,#0x80
   054E E0 00              2024 	ldh	(_LCDC_REG+0),a
                           2025 ;	galaxy.c 580
                           2026 ; genCall
   0550 CD 00 00           2027 	call	_enable_interrupts
                           2028 ;	galaxy.c 582
                           2029 ; genLabel
   0553                    2030 00141$:
                           2031 ;	galaxy.c 584
                           2032 ; genAssign
                           2033 ; AOP_STK for _main_i_1_1
   0553 F8 05              2034 	lda	hl,5(sp)
   0555 36 00              2035 	ld	(hl),#0x00 ; 3
                           2036 ; genLabel
   0557                    2037 00151$:
                           2038 ; genCmpLt
                           2039 ; AOP_STK for _main_i_1_1
   0557 F8 05              2040 	lda	hl,5(sp)
   0559 7E                 2041 	ld	a,(hl)
   055A FE 04              2042 	cp	#0x04
   055C 3E 00              2043 	ld	a,#0x00
   055E 17                 2044 	rla
   055F 4F                 2045 	ld	c,a
                           2046 ; genIfx
                           2047 ; Removed redundent or a,a
   0560 AF                 2048 	xor	a,a
   0561 B1                 2049 	or	a,c
   0562 CA 72 05           2050 	jp	z,00154$
                           2051 ;	galaxy.c 585
                           2052 ; genCall
   0565 CD 00 00           2053 	call	_wait_vbl_done
                           2054 ;	galaxy.c 584
                           2055 ; genPlus
                           2056 ; AOP_STK for _main_i_1_1
                           2057 ; genPlusIncr
   0568 F8 05              2058 	lda	hl,5(sp)
   056A 7E                 2059 	ld	a,(hl)
   056B C6 01              2060 	add	a,#0x01
   056D 47                 2061 	ld	b,a
                           2062 ; genAssign
                           2063 ; AOP_STK for _main_i_1_1
   056E 70                 2064 	ld	(hl),b ; 3
                           2065 ; genGoto
   056F C3 57 05           2066 	jp	00151$
                           2067 ; genLabel
   0572                    2068 00154$:
                           2069 ;	galaxy.c 586
                           2070 ; genPlus
                           2071 ; AOP_HL for _time
                           2072 ; genPlusIncr
   0572 21 32 00           2073 	ld	hl,#_time + 0
   0575 34                 2074 	inc	(hl)
                           2075 ;	galaxy.c 587
                           2076 ; genCall
   0576 CD 00 00           2077 	call	_fade
                           2078 ;	galaxy.c 588
                           2079 ; genCall
   0579 CD 5C 02           2080 	call	_door
                           2081 ;	galaxy.c 589
                           2082 ; genCall
   057C CD 7D 00           2083 	call	_scroll
                           2084 ;	galaxy.c 590
                           2085 ; genCall
   057F CD F9 02           2086 	call	_animate_sprite
                           2087 ;	galaxy.c 591
                           2088 ; genCall
   0582 CD 00 00           2089 	call	_joypad
                           2090 ; AOP_STK for _main_i_1_1
   0585 F8 05              2091 	lda	hl,5(sp)
   0587 73                 2092 	ld	(hl),e ; 3
                           2093 ;	galaxy.c 592
                           2094 ; genAnd
                           2095 ; AOP_STK for _main_i_1_1
   0588 7E                 2096 	ld	a,(hl)
   0589 CB 6F              2097 	bit	5,a
   058B CA 83 06           2098 	jp	z,00138$
                           2099 ;	galaxy.c 593
                           2100 ; genAnd
                           2101 ; AOP_STK for _main_i_1_1
   058E 7E                 2102 	ld	a,(hl)
   058F CB 57              2103 	bit	2,a
   0591 CA C9 05           2104 	jp	z,00102$
                           2105 ;	galaxy.c 594
                           2106 ; genPointerGet
   0594 11 3D 00           2107 	ld	de,#_bspy + 0
   0597 1A                 2108 	ld	a,(de)
   0598 4F                 2109 	ld	c,a
   0599 13                 2110 	inc	de
   059A 1A                 2111 	ld	a,(de)
   059B 47                 2112 	ld	b,a
                           2113 ; genCast
                           2114 ; AOP_STK for _main_sloc1_1_0
   059C F8 00              2115 	lda	hl,0(sp)
   059E 71                 2116 	ld	(hl),c ; 3
   059F 23                 2117 	inc	hl
   05A0 70                 2118 	ld	(hl),b ; 3
   05A1 23                 2119 	inc	hl
   05A2 36 00              2120 	ld	(hl),#0x00 ; 3
   05A4 23                 2121 	inc	hl
   05A5 36 00              2122 	ld	(hl),#0x00 ; 3
                           2123 ; genMinus
                           2124 ; AOP_STK for _main_sloc1_1_0
   05A7 F8 00              2125 	lda	hl,0(sp)
   05A9 7E                 2126 	ld	a,(hl)
   05AA C6 F0              2127 	add	a,#0xF0
   05AC 77                 2128 	ld	(hl),a ; 3
   05AD 23                 2129 	inc	hl
   05AE 7E                 2130 	ld	a,(hl)
   05AF CE FF              2131 	adc	a,#0xFF
   05B1 77                 2132 	ld	(hl),a ; 3
   05B2 23                 2133 	inc	hl
   05B3 7E                 2134 	ld	a,(hl)
   05B4 CE FF              2135 	adc	a,#0xFF
   05B6 77                 2136 	ld	(hl),a ; 3
   05B7 23                 2137 	inc	hl
   05B8 7E                 2138 	ld	a,(hl)
   05B9 CE FF              2139 	adc	a,#0xFF
   05BB 77                 2140 	ld	(hl),a ; 3
                           2141 ; genCast
                           2142 ; AOP_STK for _main_sloc1_1_0
   05BC F8 00              2143 	lda	hl,0(sp)
   05BE 4E                 2144 	ld	c,(hl)
   05BF 23                 2145 	inc	hl
   05C0 46                 2146 	ld	b,(hl)
                           2147 ; genAssign (pointer)
   05C1 11 3D 00           2148 	ld	de,#_bspy + 0
   05C4 79                 2149 	ld	a,c
   05C5 12                 2150 	ld	(de),a
   05C6 13                 2151 	inc	de
   05C7 78                 2152 	ld	a,b
   05C8 12                 2153 	ld	(de),a
                           2154 ; genLabel
   05C9                    2155 00102$:
                           2156 ;	galaxy.c 595
                           2157 ; genAnd
                           2158 ; AOP_STK for _main_i_1_1
   05C9 F8 05              2159 	lda	hl,5(sp)
   05CB 7E                 2160 	ld	a,(hl)
   05CC CB 5F              2161 	bit	3,a
   05CE CA 06 06           2162 	jp	z,00104$
                           2163 ;	galaxy.c 596
                           2164 ; genPointerGet
   05D1 11 3D 00           2165 	ld	de,#_bspy + 0
   05D4 1A                 2166 	ld	a,(de)
   05D5 4F                 2167 	ld	c,a
   05D6 13                 2168 	inc	de
   05D7 1A                 2169 	ld	a,(de)
   05D8 47                 2170 	ld	b,a
                           2171 ; genCast
                           2172 ; AOP_STK for _main_sloc1_1_0
   05D9 F8 00              2173 	lda	hl,0(sp)
   05DB 71                 2174 	ld	(hl),c ; 3
   05DC 23                 2175 	inc	hl
   05DD 70                 2176 	ld	(hl),b ; 3
   05DE 23                 2177 	inc	hl
   05DF 36 00              2178 	ld	(hl),#0x00 ; 3
   05E1 23                 2179 	inc	hl
   05E2 36 00              2180 	ld	(hl),#0x00 ; 3
                           2181 ; genPlus
                           2182 ; AOP_STK for _main_sloc1_1_0
                           2183 ; genPlusIncr
   05E4 F8 00              2184 	lda	hl,0(sp)
   05E6 7E                 2185 	ld	a,(hl)
   05E7 C6 10              2186 	add	a,#0x10
   05E9 77                 2187 	ld	(hl),a ; 3
   05EA 23                 2188 	inc	hl
   05EB 7E                 2189 	ld	a,(hl)
   05EC CE 00              2190 	adc	a,#0x00
   05EE 77                 2191 	ld	(hl),a ; 3
   05EF 23                 2192 	inc	hl
   05F0 7E                 2193 	ld	a,(hl)
   05F1 CE 00              2194 	adc	a,#0x00
   05F3 77                 2195 	ld	(hl),a ; 3
   05F4 23                 2196 	inc	hl
   05F5 7E                 2197 	ld	a,(hl)
   05F6 CE 00              2198 	adc	a,#0x00
   05F8 77                 2199 	ld	(hl),a ; 3
                           2200 ; genCast
                           2201 ; AOP_STK for _main_sloc1_1_0
   05F9 F8 00              2202 	lda	hl,0(sp)
   05FB 4E                 2203 	ld	c,(hl)
   05FC 23                 2204 	inc	hl
   05FD 46                 2205 	ld	b,(hl)
                           2206 ; genAssign (pointer)
   05FE 11 3D 00           2207 	ld	de,#_bspy + 0
   0601 79                 2208 	ld	a,c
   0602 12                 2209 	ld	(de),a
   0603 13                 2210 	inc	de
   0604 78                 2211 	ld	a,b
   0605 12                 2212 	ld	(de),a
                           2213 ; genLabel
   0606                    2214 00104$:
                           2215 ;	galaxy.c 597
                           2216 ; genAnd
                           2217 ; AOP_STK for _main_i_1_1
   0606 F8 05              2218 	lda	hl,5(sp)
   0608 7E                 2219 	ld	a,(hl)
   0609 CB 4F              2220 	bit	1,a
   060B CA 43 06           2221 	jp	z,00106$
                           2222 ;	galaxy.c 598
                           2223 ; genPointerGet
   060E 11 3B 00           2224 	ld	de,#_bspx + 0
   0611 1A                 2225 	ld	a,(de)
   0612 4F                 2226 	ld	c,a
   0613 13                 2227 	inc	de
   0614 1A                 2228 	ld	a,(de)
   0615 47                 2229 	ld	b,a
                           2230 ; genCast
                           2231 ; AOP_STK for _main_sloc1_1_0
   0616 F8 00              2232 	lda	hl,0(sp)
   0618 71                 2233 	ld	(hl),c ; 3
   0619 23                 2234 	inc	hl
   061A 70                 2235 	ld	(hl),b ; 3
   061B 23                 2236 	inc	hl
   061C 36 00              2237 	ld	(hl),#0x00 ; 3
   061E 23                 2238 	inc	hl
   061F 36 00              2239 	ld	(hl),#0x00 ; 3
                           2240 ; genMinus
                           2241 ; AOP_STK for _main_sloc1_1_0
   0621 F8 00              2242 	lda	hl,0(sp)
   0623 7E                 2243 	ld	a,(hl)
   0624 C6 F0              2244 	add	a,#0xF0
   0626 77                 2245 	ld	(hl),a ; 3
   0627 23                 2246 	inc	hl
   0628 7E                 2247 	ld	a,(hl)
   0629 CE FF              2248 	adc	a,#0xFF
   062B 77                 2249 	ld	(hl),a ; 3
   062C 23                 2250 	inc	hl
   062D 7E                 2251 	ld	a,(hl)
   062E CE FF              2252 	adc	a,#0xFF
   0630 77                 2253 	ld	(hl),a ; 3
   0631 23                 2254 	inc	hl
   0632 7E                 2255 	ld	a,(hl)
   0633 CE FF              2256 	adc	a,#0xFF
   0635 77                 2257 	ld	(hl),a ; 3
                           2258 ; genCast
                           2259 ; AOP_STK for _main_sloc1_1_0
   0636 F8 00              2260 	lda	hl,0(sp)
   0638 4E                 2261 	ld	c,(hl)
   0639 23                 2262 	inc	hl
   063A 46                 2263 	ld	b,(hl)
                           2264 ; genAssign (pointer)
   063B 11 3B 00           2265 	ld	de,#_bspx + 0
   063E 79                 2266 	ld	a,c
   063F 12                 2267 	ld	(de),a
   0640 13                 2268 	inc	de
   0641 78                 2269 	ld	a,b
   0642 12                 2270 	ld	(de),a
                           2271 ; genLabel
   0643                    2272 00106$:
                           2273 ;	galaxy.c 599
                           2274 ; genAnd
                           2275 ; AOP_STK for _main_i_1_1
   0643 F8 05              2276 	lda	hl,5(sp)
   0645 7E                 2277 	ld	a,(hl)
   0646 CB 47              2278 	bit	0,a
   0648 CA 53 05           2279 	jp	z,00141$
                           2280 ;	galaxy.c 600
                           2281 ; genPointerGet
   064B 11 3B 00           2282 	ld	de,#_bspx + 0
   064E 1A                 2283 	ld	a,(de)
   064F 4F                 2284 	ld	c,a
   0650 13                 2285 	inc	de
   0651 1A                 2286 	ld	a,(de)
   0652 47                 2287 	ld	b,a
                           2288 ; genCast
                           2289 ; AOP_STK for _main_sloc1_1_0
   0653 F8 00              2290 	lda	hl,0(sp)
   0655 71                 2291 	ld	(hl),c ; 3
   0656 23                 2292 	inc	hl
   0657 70                 2293 	ld	(hl),b ; 3
   0658 23                 2294 	inc	hl
   0659 36 00              2295 	ld	(hl),#0x00 ; 3
   065B 23                 2296 	inc	hl
   065C 36 00              2297 	ld	(hl),#0x00 ; 3
                           2298 ; genPlus
                           2299 ; AOP_STK for _main_sloc1_1_0
                           2300 ; genPlusIncr
   065E F8 00              2301 	lda	hl,0(sp)
   0660 7E                 2302 	ld	a,(hl)
   0661 C6 10              2303 	add	a,#0x10
   0663 77                 2304 	ld	(hl),a ; 3
   0664 23                 2305 	inc	hl
   0665 7E                 2306 	ld	a,(hl)
   0666 CE 00              2307 	adc	a,#0x00
   0668 77                 2308 	ld	(hl),a ; 3
   0669 23                 2309 	inc	hl
   066A 7E                 2310 	ld	a,(hl)
   066B CE 00              2311 	adc	a,#0x00
   066D 77                 2312 	ld	(hl),a ; 3
   066E 23                 2313 	inc	hl
   066F 7E                 2314 	ld	a,(hl)
   0670 CE 00              2315 	adc	a,#0x00
   0672 77                 2316 	ld	(hl),a ; 3
                           2317 ; genCast
                           2318 ; AOP_STK for _main_sloc1_1_0
   0673 F8 00              2319 	lda	hl,0(sp)
   0675 4E                 2320 	ld	c,(hl)
   0676 23                 2321 	inc	hl
   0677 46                 2322 	ld	b,(hl)
                           2323 ; genAssign (pointer)
   0678 11 3B 00           2324 	ld	de,#_bspx + 0
   067B 79                 2325 	ld	a,c
   067C 12                 2326 	ld	(de),a
   067D 13                 2327 	inc	de
   067E 78                 2328 	ld	a,b
   067F 12                 2329 	ld	(de),a
                           2330 ; genGoto
   0680 C3 53 05           2331 	jp	00141$
                           2332 ; genLabel
   0683                    2333 00138$:
                           2334 ;	galaxy.c 601
                           2335 ; genAnd
                           2336 ; AOP_STK for _main_i_1_1
   0683 F8 05              2337 	lda	hl,5(sp)
   0685 7E                 2338 	ld	a,(hl)
   0686 CB 67              2339 	bit	4,a
   0688 CA 80 07           2340 	jp	z,00135$
                           2341 ;	galaxy.c 602
                           2342 ; genAnd
                           2343 ; AOP_STK for _main_i_1_1
   068B 7E                 2344 	ld	a,(hl)
   068C CB 57              2345 	bit	2,a
   068E CA C6 06           2346 	jp	z,00110$
                           2347 ;	galaxy.c 603
                           2348 ; genPointerGet
   0691 11 45 00           2349 	ld	de,#_wspy + 0
   0694 1A                 2350 	ld	a,(de)
   0695 4F                 2351 	ld	c,a
   0696 13                 2352 	inc	de
   0697 1A                 2353 	ld	a,(de)
   0698 47                 2354 	ld	b,a
                           2355 ; genCast
                           2356 ; AOP_STK for _main_sloc1_1_0
   0699 F8 00              2357 	lda	hl,0(sp)
   069B 71                 2358 	ld	(hl),c ; 3
   069C 23                 2359 	inc	hl
   069D 70                 2360 	ld	(hl),b ; 3
   069E 23                 2361 	inc	hl
   069F 36 00              2362 	ld	(hl),#0x00 ; 3
   06A1 23                 2363 	inc	hl
   06A2 36 00              2364 	ld	(hl),#0x00 ; 3
                           2365 ; genMinus
                           2366 ; AOP_STK for _main_sloc1_1_0
   06A4 F8 00              2367 	lda	hl,0(sp)
   06A6 7E                 2368 	ld	a,(hl)
   06A7 C6 F0              2369 	add	a,#0xF0
   06A9 77                 2370 	ld	(hl),a ; 3
   06AA 23                 2371 	inc	hl
   06AB 7E                 2372 	ld	a,(hl)
   06AC CE FF              2373 	adc	a,#0xFF
   06AE 77                 2374 	ld	(hl),a ; 3
   06AF 23                 2375 	inc	hl
   06B0 7E                 2376 	ld	a,(hl)
   06B1 CE FF              2377 	adc	a,#0xFF
   06B3 77                 2378 	ld	(hl),a ; 3
   06B4 23                 2379 	inc	hl
   06B5 7E                 2380 	ld	a,(hl)
   06B6 CE FF              2381 	adc	a,#0xFF
   06B8 77                 2382 	ld	(hl),a ; 3
                           2383 ; genCast
                           2384 ; AOP_STK for _main_sloc1_1_0
   06B9 F8 00              2385 	lda	hl,0(sp)
   06BB 4E                 2386 	ld	c,(hl)
   06BC 23                 2387 	inc	hl
   06BD 46                 2388 	ld	b,(hl)
                           2389 ; genAssign (pointer)
   06BE 11 45 00           2390 	ld	de,#_wspy + 0
   06C1 79                 2391 	ld	a,c
   06C2 12                 2392 	ld	(de),a
   06C3 13                 2393 	inc	de
   06C4 78                 2394 	ld	a,b
   06C5 12                 2395 	ld	(de),a
                           2396 ; genLabel
   06C6                    2397 00110$:
                           2398 ;	galaxy.c 604
                           2399 ; genAnd
                           2400 ; AOP_STK for _main_i_1_1
   06C6 F8 05              2401 	lda	hl,5(sp)
   06C8 7E                 2402 	ld	a,(hl)
   06C9 CB 5F              2403 	bit	3,a
   06CB CA 03 07           2404 	jp	z,00112$
                           2405 ;	galaxy.c 605
                           2406 ; genPointerGet
   06CE 11 45 00           2407 	ld	de,#_wspy + 0
   06D1 1A                 2408 	ld	a,(de)
   06D2 4F                 2409 	ld	c,a
   06D3 13                 2410 	inc	de
   06D4 1A                 2411 	ld	a,(de)
   06D5 47                 2412 	ld	b,a
                           2413 ; genCast
                           2414 ; AOP_STK for _main_sloc1_1_0
   06D6 F8 00              2415 	lda	hl,0(sp)
   06D8 71                 2416 	ld	(hl),c ; 3
   06D9 23                 2417 	inc	hl
   06DA 70                 2418 	ld	(hl),b ; 3
   06DB 23                 2419 	inc	hl
   06DC 36 00              2420 	ld	(hl),#0x00 ; 3
   06DE 23                 2421 	inc	hl
   06DF 36 00              2422 	ld	(hl),#0x00 ; 3
                           2423 ; genPlus
                           2424 ; AOP_STK for _main_sloc1_1_0
                           2425 ; genPlusIncr
   06E1 F8 00              2426 	lda	hl,0(sp)
   06E3 7E                 2427 	ld	a,(hl)
   06E4 C6 10              2428 	add	a,#0x10
   06E6 77                 2429 	ld	(hl),a ; 3
   06E7 23                 2430 	inc	hl
   06E8 7E                 2431 	ld	a,(hl)
   06E9 CE 00              2432 	adc	a,#0x00
   06EB 77                 2433 	ld	(hl),a ; 3
   06EC 23                 2434 	inc	hl
   06ED 7E                 2435 	ld	a,(hl)
   06EE CE 00              2436 	adc	a,#0x00
   06F0 77                 2437 	ld	(hl),a ; 3
   06F1 23                 2438 	inc	hl
   06F2 7E                 2439 	ld	a,(hl)
   06F3 CE 00              2440 	adc	a,#0x00
   06F5 77                 2441 	ld	(hl),a ; 3
                           2442 ; genCast
                           2443 ; AOP_STK for _main_sloc1_1_0
   06F6 F8 00              2444 	lda	hl,0(sp)
   06F8 4E                 2445 	ld	c,(hl)
   06F9 23                 2446 	inc	hl
   06FA 46                 2447 	ld	b,(hl)
                           2448 ; genAssign (pointer)
   06FB 11 45 00           2449 	ld	de,#_wspy + 0
   06FE 79                 2450 	ld	a,c
   06FF 12                 2451 	ld	(de),a
   0700 13                 2452 	inc	de
   0701 78                 2453 	ld	a,b
   0702 12                 2454 	ld	(de),a
                           2455 ; genLabel
   0703                    2456 00112$:
                           2457 ;	galaxy.c 606
                           2458 ; genAnd
                           2459 ; AOP_STK for _main_i_1_1
   0703 F8 05              2460 	lda	hl,5(sp)
   0705 7E                 2461 	ld	a,(hl)
   0706 CB 4F              2462 	bit	1,a
   0708 CA 40 07           2463 	jp	z,00114$
                           2464 ;	galaxy.c 607
                           2465 ; genPointerGet
   070B 11 43 00           2466 	ld	de,#_wspx + 0
   070E 1A                 2467 	ld	a,(de)
   070F 4F                 2468 	ld	c,a
   0710 13                 2469 	inc	de
   0711 1A                 2470 	ld	a,(de)
   0712 47                 2471 	ld	b,a
                           2472 ; genCast
                           2473 ; AOP_STK for _main_sloc1_1_0
   0713 F8 00              2474 	lda	hl,0(sp)
   0715 71                 2475 	ld	(hl),c ; 3
   0716 23                 2476 	inc	hl
   0717 70                 2477 	ld	(hl),b ; 3
   0718 23                 2478 	inc	hl
   0719 36 00              2479 	ld	(hl),#0x00 ; 3
   071B 23                 2480 	inc	hl
   071C 36 00              2481 	ld	(hl),#0x00 ; 3
                           2482 ; genMinus
                           2483 ; AOP_STK for _main_sloc1_1_0
   071E F8 00              2484 	lda	hl,0(sp)
   0720 7E                 2485 	ld	a,(hl)
   0721 C6 F0              2486 	add	a,#0xF0
   0723 77                 2487 	ld	(hl),a ; 3
   0724 23                 2488 	inc	hl
   0725 7E                 2489 	ld	a,(hl)
   0726 CE FF              2490 	adc	a,#0xFF
   0728 77                 2491 	ld	(hl),a ; 3
   0729 23                 2492 	inc	hl
   072A 7E                 2493 	ld	a,(hl)
   072B CE FF              2494 	adc	a,#0xFF
   072D 77                 2495 	ld	(hl),a ; 3
   072E 23                 2496 	inc	hl
   072F 7E                 2497 	ld	a,(hl)
   0730 CE FF              2498 	adc	a,#0xFF
   0732 77                 2499 	ld	(hl),a ; 3
                           2500 ; genCast
                           2501 ; AOP_STK for _main_sloc1_1_0
   0733 F8 00              2502 	lda	hl,0(sp)
   0735 4E                 2503 	ld	c,(hl)
   0736 23                 2504 	inc	hl
   0737 46                 2505 	ld	b,(hl)
                           2506 ; genAssign (pointer)
   0738 11 43 00           2507 	ld	de,#_wspx + 0
   073B 79                 2508 	ld	a,c
   073C 12                 2509 	ld	(de),a
   073D 13                 2510 	inc	de
   073E 78                 2511 	ld	a,b
   073F 12                 2512 	ld	(de),a
                           2513 ; genLabel
   0740                    2514 00114$:
                           2515 ;	galaxy.c 608
                           2516 ; genAnd
                           2517 ; AOP_STK for _main_i_1_1
   0740 F8 05              2518 	lda	hl,5(sp)
   0742 7E                 2519 	ld	a,(hl)
   0743 CB 47              2520 	bit	0,a
   0745 CA 53 05           2521 	jp	z,00141$
                           2522 ;	galaxy.c 609
                           2523 ; genPointerGet
   0748 11 43 00           2524 	ld	de,#_wspx + 0
   074B 1A                 2525 	ld	a,(de)
   074C 4F                 2526 	ld	c,a
   074D 13                 2527 	inc	de
   074E 1A                 2528 	ld	a,(de)
   074F 47                 2529 	ld	b,a
                           2530 ; genCast
                           2531 ; AOP_STK for _main_sloc1_1_0
   0750 F8 00              2532 	lda	hl,0(sp)
   0752 71                 2533 	ld	(hl),c ; 3
   0753 23                 2534 	inc	hl
   0754 70                 2535 	ld	(hl),b ; 3
   0755 23                 2536 	inc	hl
   0756 36 00              2537 	ld	(hl),#0x00 ; 3
   0758 23                 2538 	inc	hl
   0759 36 00              2539 	ld	(hl),#0x00 ; 3
                           2540 ; genPlus
                           2541 ; AOP_STK for _main_sloc1_1_0
                           2542 ; genPlusIncr
   075B F8 00              2543 	lda	hl,0(sp)
   075D 7E                 2544 	ld	a,(hl)
   075E C6 10              2545 	add	a,#0x10
   0760 77                 2546 	ld	(hl),a ; 3
   0761 23                 2547 	inc	hl
   0762 7E                 2548 	ld	a,(hl)
   0763 CE 00              2549 	adc	a,#0x00
   0765 77                 2550 	ld	(hl),a ; 3
   0766 23                 2551 	inc	hl
   0767 7E                 2552 	ld	a,(hl)
   0768 CE 00              2553 	adc	a,#0x00
   076A 77                 2554 	ld	(hl),a ; 3
   076B 23                 2555 	inc	hl
   076C 7E                 2556 	ld	a,(hl)
   076D CE 00              2557 	adc	a,#0x00
   076F 77                 2558 	ld	(hl),a ; 3
                           2559 ; genCast
                           2560 ; AOP_STK for _main_sloc1_1_0
   0770 F8 00              2561 	lda	hl,0(sp)
   0772 4E                 2562 	ld	c,(hl)
   0773 23                 2563 	inc	hl
   0774 46                 2564 	ld	b,(hl)
                           2565 ; genAssign (pointer)
   0775 11 43 00           2566 	ld	de,#_wspx + 0
   0778 79                 2567 	ld	a,c
   0779 12                 2568 	ld	(de),a
   077A 13                 2569 	inc	de
   077B 78                 2570 	ld	a,b
   077C 12                 2571 	ld	(de),a
                           2572 ; genGoto
   077D C3 53 05           2573 	jp	00141$
                           2574 ; genLabel
   0780                    2575 00135$:
                           2576 ;	galaxy.c 611
                           2577 ; genAnd
                           2578 ; AOP_STK for _main_i_1_1
   0780 F8 05              2579 	lda	hl,5(sp)
   0782 7E                 2580 	ld	a,(hl)
   0783 CB 77              2581 	bit	6,a
   0785 CA 8D 07           2582 	jp	z,00118$
                           2583 ;	galaxy.c 612
                           2584 ; genAssign
                           2585 ; AOP_HL for _color
   0788 21 35 00           2586 	ld	hl,#_color + 0
   078B 36 60              2587 	ld	(hl),#0x60
                           2588 ; genLabel
   078D                    2589 00118$:
                           2590 ;	galaxy.c 613
                           2591 ; genAnd
                           2592 ; AOP_STK for _main_i_1_1
   078D F8 05              2593 	lda	hl,5(sp)
   078F 7E                 2594 	ld	a,(hl)
   0790 CB 7F              2595 	bit	7,a
   0792 CA C7 07           2596 	jp	z,00125$
                           2597 ;	galaxy.c 614
                           2598 ; genCmpEq
                           2599 ; AOP_HL for _doorstate
   0795 21 33 00           2600 	ld	hl,#_doorstate + 0
   0798 7E                 2601 	ld	a,(hl)
   0799 B7                 2602 	or	a,a
   079A C2 9F 07           2603 	jp	nz,00182$
   079D 18 03              2604 	jr	00183$
   079F                    2605 00182$:
   079F C3 AF 07           2606 	jp	00122$
   07A2                    2607 00183$:
                           2608 ;	galaxy.c 615
                           2609 ; genAssign
                           2610 ; AOP_HL for _doorstate
   07A2 21 33 00           2611 	ld	hl,#_doorstate + 0
   07A5 36 01              2612 	ld	(hl),#0x01
                           2613 ;	galaxy.c 616
                           2614 ; genAssign
                           2615 ; AOP_HL for _doorpos
   07A7 21 34 00           2616 	ld	hl,#_doorpos + 0
   07AA 36 00              2617 	ld	(hl),#0x00
                           2618 ; genGoto
   07AC C3 C7 07           2619 	jp	00125$
                           2620 ; genLabel
   07AF                    2621 00122$:
                           2622 ;	galaxy.c 617
                           2623 ; genCmpEq
                           2624 ; AOP_HL for _doorstate
   07AF 21 33 00           2625 	ld	hl,#_doorstate + 0
   07B2 7E                 2626 	ld	a,(hl) ; 2
   07B3 FE 02              2627 	cp	a,#0x02
   07B5 C2 BA 07           2628 	jp	nz,00184$
   07B8 18 03              2629 	jr	00185$
   07BA                    2630 00184$:
   07BA C3 C7 07           2631 	jp	00125$
   07BD                    2632 00185$:
                           2633 ;	galaxy.c 618
                           2634 ; genAssign
                           2635 ; AOP_HL for _doorstate
   07BD 21 33 00           2636 	ld	hl,#_doorstate + 0
   07C0 36 03              2637 	ld	(hl),#0x03
                           2638 ;	galaxy.c 619
                           2639 ; genAssign
                           2640 ; AOP_HL for _doorpos
   07C2 21 34 00           2641 	ld	hl,#_doorpos + 0
   07C5 36 18              2642 	ld	(hl),#0x18
                           2643 ; genLabel
   07C7                    2644 00125$:
                           2645 ;	galaxy.c 621
                           2646 ; genAnd
                           2647 ; AOP_STK for _main_i_1_1
   07C7 F8 05              2648 	lda	hl,5(sp)
   07C9 7E                 2649 	ld	a,(hl)
   07CA CB 57              2650 	bit	2,a
   07CC CA 04 08           2651 	jp	z,00127$
                           2652 ;	galaxy.c 622
                           2653 ; genPointerGet
   07CF 11 4D 00           2654 	ld	de,#_sspy + 0
   07D2 1A                 2655 	ld	a,(de)
   07D3 4F                 2656 	ld	c,a
   07D4 13                 2657 	inc	de
   07D5 1A                 2658 	ld	a,(de)
   07D6 47                 2659 	ld	b,a
                           2660 ; genCast
                           2661 ; AOP_STK for _main_sloc1_1_0
   07D7 F8 00              2662 	lda	hl,0(sp)
   07D9 71                 2663 	ld	(hl),c ; 3
   07DA 23                 2664 	inc	hl
   07DB 70                 2665 	ld	(hl),b ; 3
   07DC 23                 2666 	inc	hl
   07DD 36 00              2667 	ld	(hl),#0x00 ; 3
   07DF 23                 2668 	inc	hl
   07E0 36 00              2669 	ld	(hl),#0x00 ; 3
                           2670 ; genMinus
                           2671 ; AOP_STK for _main_sloc1_1_0
   07E2 F8 00              2672 	lda	hl,0(sp)
   07E4 7E                 2673 	ld	a,(hl)
   07E5 C6 F0              2674 	add	a,#0xF0
   07E7 77                 2675 	ld	(hl),a ; 3
   07E8 23                 2676 	inc	hl
   07E9 7E                 2677 	ld	a,(hl)
   07EA CE FF              2678 	adc	a,#0xFF
   07EC 77                 2679 	ld	(hl),a ; 3
   07ED 23                 2680 	inc	hl
   07EE 7E                 2681 	ld	a,(hl)
   07EF CE FF              2682 	adc	a,#0xFF
   07F1 77                 2683 	ld	(hl),a ; 3
   07F2 23                 2684 	inc	hl
   07F3 7E                 2685 	ld	a,(hl)
   07F4 CE FF              2686 	adc	a,#0xFF
   07F6 77                 2687 	ld	(hl),a ; 3
                           2688 ; genCast
                           2689 ; AOP_STK for _main_sloc1_1_0
   07F7 F8 00              2690 	lda	hl,0(sp)
   07F9 4E                 2691 	ld	c,(hl)
   07FA 23                 2692 	inc	hl
   07FB 46                 2693 	ld	b,(hl)
                           2694 ; genAssign (pointer)
   07FC 11 4D 00           2695 	ld	de,#_sspy + 0
   07FF 79                 2696 	ld	a,c
   0800 12                 2697 	ld	(de),a
   0801 13                 2698 	inc	de
   0802 78                 2699 	ld	a,b
   0803 12                 2700 	ld	(de),a
                           2701 ; genLabel
   0804                    2702 00127$:
                           2703 ;	galaxy.c 623
                           2704 ; genAnd
                           2705 ; AOP_STK for _main_i_1_1
   0804 F8 05              2706 	lda	hl,5(sp)
   0806 7E                 2707 	ld	a,(hl)
   0807 CB 5F              2708 	bit	3,a
   0809 CA 41 08           2709 	jp	z,00129$
                           2710 ;	galaxy.c 624
                           2711 ; genPointerGet
   080C 11 4D 00           2712 	ld	de,#_sspy + 0
   080F 1A                 2713 	ld	a,(de)
   0810 4F                 2714 	ld	c,a
   0811 13                 2715 	inc	de
   0812 1A                 2716 	ld	a,(de)
   0813 47                 2717 	ld	b,a
                           2718 ; genCast
                           2719 ; AOP_STK for _main_sloc1_1_0
   0814 F8 00              2720 	lda	hl,0(sp)
   0816 71                 2721 	ld	(hl),c ; 3
   0817 23                 2722 	inc	hl
   0818 70                 2723 	ld	(hl),b ; 3
   0819 23                 2724 	inc	hl
   081A 36 00              2725 	ld	(hl),#0x00 ; 3
   081C 23                 2726 	inc	hl
   081D 36 00              2727 	ld	(hl),#0x00 ; 3
                           2728 ; genPlus
                           2729 ; AOP_STK for _main_sloc1_1_0
                           2730 ; genPlusIncr
   081F F8 00              2731 	lda	hl,0(sp)
   0821 7E                 2732 	ld	a,(hl)
   0822 C6 10              2733 	add	a,#0x10
   0824 77                 2734 	ld	(hl),a ; 3
   0825 23                 2735 	inc	hl
   0826 7E                 2736 	ld	a,(hl)
   0827 CE 00              2737 	adc	a,#0x00
   0829 77                 2738 	ld	(hl),a ; 3
   082A 23                 2739 	inc	hl
   082B 7E                 2740 	ld	a,(hl)
   082C CE 00              2741 	adc	a,#0x00
   082E 77                 2742 	ld	(hl),a ; 3
   082F 23                 2743 	inc	hl
   0830 7E                 2744 	ld	a,(hl)
   0831 CE 00              2745 	adc	a,#0x00
   0833 77                 2746 	ld	(hl),a ; 3
                           2747 ; genCast
                           2748 ; AOP_STK for _main_sloc1_1_0
   0834 F8 00              2749 	lda	hl,0(sp)
   0836 4E                 2750 	ld	c,(hl)
   0837 23                 2751 	inc	hl
   0838 46                 2752 	ld	b,(hl)
                           2753 ; genAssign (pointer)
   0839 11 4D 00           2754 	ld	de,#_sspy + 0
   083C 79                 2755 	ld	a,c
   083D 12                 2756 	ld	(de),a
   083E 13                 2757 	inc	de
   083F 78                 2758 	ld	a,b
   0840 12                 2759 	ld	(de),a
                           2760 ; genLabel
   0841                    2761 00129$:
                           2762 ;	galaxy.c 625
                           2763 ; genAnd
                           2764 ; AOP_STK for _main_i_1_1
   0841 F8 05              2765 	lda	hl,5(sp)
   0843 7E                 2766 	ld	a,(hl)
   0844 CB 4F              2767 	bit	1,a
   0846 CA 7E 08           2768 	jp	z,00131$
                           2769 ;	galaxy.c 626
                           2770 ; genPointerGet
   0849 11 4B 00           2771 	ld	de,#_sspx + 0
   084C 1A                 2772 	ld	a,(de)
   084D 4F                 2773 	ld	c,a
   084E 13                 2774 	inc	de
   084F 1A                 2775 	ld	a,(de)
   0850 47                 2776 	ld	b,a
                           2777 ; genCast
                           2778 ; AOP_STK for _main_sloc1_1_0
   0851 F8 00              2779 	lda	hl,0(sp)
   0853 71                 2780 	ld	(hl),c ; 3
   0854 23                 2781 	inc	hl
   0855 70                 2782 	ld	(hl),b ; 3
   0856 23                 2783 	inc	hl
   0857 36 00              2784 	ld	(hl),#0x00 ; 3
   0859 23                 2785 	inc	hl
   085A 36 00              2786 	ld	(hl),#0x00 ; 3
                           2787 ; genMinus
                           2788 ; AOP_STK for _main_sloc1_1_0
   085C F8 00              2789 	lda	hl,0(sp)
   085E 7E                 2790 	ld	a,(hl)
   085F C6 F0              2791 	add	a,#0xF0
   0861 77                 2792 	ld	(hl),a ; 3
   0862 23                 2793 	inc	hl
   0863 7E                 2794 	ld	a,(hl)
   0864 CE FF              2795 	adc	a,#0xFF
   0866 77                 2796 	ld	(hl),a ; 3
   0867 23                 2797 	inc	hl
   0868 7E                 2798 	ld	a,(hl)
   0869 CE FF              2799 	adc	a,#0xFF
   086B 77                 2800 	ld	(hl),a ; 3
   086C 23                 2801 	inc	hl
   086D 7E                 2802 	ld	a,(hl)
   086E CE FF              2803 	adc	a,#0xFF
   0870 77                 2804 	ld	(hl),a ; 3
                           2805 ; genCast
                           2806 ; AOP_STK for _main_sloc1_1_0
   0871 F8 00              2807 	lda	hl,0(sp)
   0873 4E                 2808 	ld	c,(hl)
   0874 23                 2809 	inc	hl
   0875 46                 2810 	ld	b,(hl)
                           2811 ; genAssign (pointer)
   0876 11 4B 00           2812 	ld	de,#_sspx + 0
   0879 79                 2813 	ld	a,c
   087A 12                 2814 	ld	(de),a
   087B 13                 2815 	inc	de
   087C 78                 2816 	ld	a,b
   087D 12                 2817 	ld	(de),a
                           2818 ; genLabel
   087E                    2819 00131$:
                           2820 ;	galaxy.c 627
                           2821 ; genAnd
                           2822 ; AOP_STK for _main_i_1_1
   087E F8 05              2823 	lda	hl,5(sp)
   0880 7E                 2824 	ld	a,(hl)
   0881 CB 47              2825 	bit	0,a
   0883 CA 53 05           2826 	jp	z,00141$
                           2827 ;	galaxy.c 628
                           2828 ; genPointerGet
   0886 11 4B 00           2829 	ld	de,#_sspx + 0
   0889 1A                 2830 	ld	a,(de)
   088A 4F                 2831 	ld	c,a
   088B 13                 2832 	inc	de
   088C 1A                 2833 	ld	a,(de)
   088D 47                 2834 	ld	b,a
                           2835 ; genCast
                           2836 ; AOP_STK for _main_sloc1_1_0
   088E F8 00              2837 	lda	hl,0(sp)
   0890 71                 2838 	ld	(hl),c ; 3
   0891 23                 2839 	inc	hl
   0892 70                 2840 	ld	(hl),b ; 3
   0893 23                 2841 	inc	hl
   0894 36 00              2842 	ld	(hl),#0x00 ; 3
   0896 23                 2843 	inc	hl
   0897 36 00              2844 	ld	(hl),#0x00 ; 3
                           2845 ; genPlus
                           2846 ; AOP_STK for _main_sloc1_1_0
                           2847 ; genPlusIncr
   0899 F8 00              2848 	lda	hl,0(sp)
   089B 7E                 2849 	ld	a,(hl)
   089C C6 10              2850 	add	a,#0x10
   089E 77                 2851 	ld	(hl),a ; 3
   089F 23                 2852 	inc	hl
   08A0 7E                 2853 	ld	a,(hl)
   08A1 CE 00              2854 	adc	a,#0x00
   08A3 77                 2855 	ld	(hl),a ; 3
   08A4 23                 2856 	inc	hl
   08A5 7E                 2857 	ld	a,(hl)
   08A6 CE 00              2858 	adc	a,#0x00
   08A8 77                 2859 	ld	(hl),a ; 3
   08A9 23                 2860 	inc	hl
   08AA 7E                 2861 	ld	a,(hl)
   08AB CE 00              2862 	adc	a,#0x00
   08AD 77                 2863 	ld	(hl),a ; 3
                           2864 ; genCast
                           2865 ; AOP_STK for _main_sloc1_1_0
   08AE F8 00              2866 	lda	hl,0(sp)
   08B0 4E                 2867 	ld	c,(hl)
   08B1 23                 2868 	inc	hl
   08B2 46                 2869 	ld	b,(hl)
                           2870 ; genAssign (pointer)
   08B3 11 4B 00           2871 	ld	de,#_sspx + 0
   08B6 79                 2872 	ld	a,c
   08B7 12                 2873 	ld	(de),a
   08B8 13                 2874 	inc	de
   08B9 78                 2875 	ld	a,b
   08BA 12                 2876 	ld	(de),a
                           2877 ; genGoto
   08BB C3 53 05           2878 	jp	00141$
                           2879 ; genLabel
   08BE                    2880 00155$:
                           2881 ; genEndFunction
   08BE E8 06              2882 	lda	sp,6(sp)
   08C0 C1                 2883 	pop bc
   08C1 C9                 2884 	ret
   08C2                    2885 ___main_end:
                           2886 	.area _CODE
   08C2                    2887 _std_data:
   08C2 FF                 2888 	.db #0xFF
   08C3 FF                 2889 	.db #0xFF
   08C4 FF                 2890 	.db #0xFF
   08C5 FF                 2891 	.db #0xFF
   08C6 FF                 2892 	.db #0xFF
   08C7 FF                 2893 	.db #0xFF
   08C8 FF                 2894 	.db #0xFF
   08C9 FF                 2895 	.db #0xFF
   08CA FF                 2896 	.db #0xFF
   08CB FF                 2897 	.db #0xFF
   08CC FF                 2898 	.db #0xFF
   08CD FF                 2899 	.db #0xFF
   08CE FF                 2900 	.db #0xFF
   08CF FF                 2901 	.db #0xFF
   08D0 FF                 2902 	.db #0xFF
   08D1 FF                 2903 	.db #0xFF
   08D2 FF                 2904 	.db #0xFF
   08D3 00                 2905 	.db #0x00
   08D4 FF                 2906 	.db #0xFF
   08D5 00                 2907 	.db #0x00
   08D6 FF                 2908 	.db #0xFF
   08D7 00                 2909 	.db #0x00
   08D8 FF                 2910 	.db #0xFF
   08D9 00                 2911 	.db #0x00
   08DA FF                 2912 	.db #0xFF
   08DB 00                 2913 	.db #0x00
   08DC FF                 2914 	.db #0xFF
   08DD 00                 2915 	.db #0x00
   08DE FF                 2916 	.db #0xFF
   08DF 00                 2917 	.db #0x00
   08E0 FF                 2918 	.db #0xFF
   08E1 00                 2919 	.db #0x00
   08E2 00                 2920 	.db #0x00
   08E3 FF                 2921 	.db #0xFF
   08E4 00                 2922 	.db #0x00
   08E5 FF                 2923 	.db #0xFF
   08E6 00                 2924 	.db #0x00
   08E7 FF                 2925 	.db #0xFF
   08E8 00                 2926 	.db #0x00
   08E9 FF                 2927 	.db #0xFF
   08EA 00                 2928 	.db #0x00
   08EB FF                 2929 	.db #0xFF
   08EC 00                 2930 	.db #0x00
   08ED FF                 2931 	.db #0xFF
   08EE 00                 2932 	.db #0x00
   08EF FF                 2933 	.db #0xFF
   08F0 00                 2934 	.db #0x00
   08F1 FF                 2935 	.db #0xFF
   08F2 00                 2936 	.db #0x00
   08F3 00                 2937 	.db #0x00
   08F4 00                 2938 	.db #0x00
   08F5 00                 2939 	.db #0x00
   08F6 00                 2940 	.db #0x00
   08F7 00                 2941 	.db #0x00
   08F8 00                 2942 	.db #0x00
   08F9 00                 2943 	.db #0x00
   08FA 00                 2944 	.db #0x00
   08FB 00                 2945 	.db #0x00
   08FC 00                 2946 	.db #0x00
   08FD 00                 2947 	.db #0x00
   08FE 00                 2948 	.db #0x00
   08FF 00                 2949 	.db #0x00
   0900 00                 2950 	.db #0x00
   0901 00                 2951 	.db #0x00
   0902                    2952 _earth_data:
   0902 07                 2953 	.db #0x07
   0903 07                 2954 	.db #0x07
   0904 18                 2955 	.db #0x18
   0905 1F                 2956 	.db #0x1F
   0906 32                 2957 	.db #0x32
   0907 2D                 2958 	.db #0x2D
   0908 71                 2959 	.db #0x71
   0909 4E                 2960 	.db #0x4E
   090A 70                 2961 	.db #0x70
   090B 4F                 2962 	.db #0x4F
   090C F8                 2963 	.db #0xF8
   090D 87                 2964 	.db #0x87
   090E F8                 2965 	.db #0xF8
   090F 87                 2966 	.db #0x87
   0910 F8                 2967 	.db #0xF8
   0911 87                 2968 	.db #0x87
   0912 FC                 2969 	.db #0xFC
   0913 83                 2970 	.db #0x83
   0914 FE                 2971 	.db #0xFE
   0915 81                 2972 	.db #0x81
   0916 7F                 2973 	.db #0x7F
   0917 40                 2974 	.db #0x40
   0918 7F                 2975 	.db #0x7F
   0919 40                 2976 	.db #0x40
   091A 3F                 2977 	.db #0x3F
   091B 20                 2978 	.db #0x20
   091C 1F                 2979 	.db #0x1F
   091D 18                 2980 	.db #0x18
   091E 07                 2981 	.db #0x07
   091F 07                 2982 	.db #0x07
   0920 00                 2983 	.db #0x00
   0921 00                 2984 	.db #0x00
   0922 C0                 2985 	.db #0xC0
   0923 C0                 2986 	.db #0xC0
   0924 F0                 2987 	.db #0xF0
   0925 30                 2988 	.db #0x30
   0926 78                 2989 	.db #0x78
   0927 88                 2990 	.db #0x88
   0928 3C                 2991 	.db #0x3C
   0929 C4                 2992 	.db #0xC4
   092A 5C                 2993 	.db #0x5C
   092B A4                 2994 	.db #0xA4
   092C 9E                 2995 	.db #0x9E
   092D 62                 2996 	.db #0x62
   092E 3E                 2997 	.db #0x3E
   092F C2                 2998 	.db #0xC2
   0930 3E                 2999 	.db #0x3E
   0931 C2                 3000 	.db #0xC2
   0932 5E                 3001 	.db #0x5E
   0933 A2                 3002 	.db #0xA2
   0934 7E                 3003 	.db #0x7E
   0935 82                 3004 	.db #0x82
   0936 0C                 3005 	.db #0x0C
   0937 F4                 3006 	.db #0xF4
   0938 0C                 3007 	.db #0x0C
   0939 F4                 3008 	.db #0xF4
   093A 98                 3009 	.db #0x98
   093B 68                 3010 	.db #0x68
   093C B0                 3011 	.db #0xB0
   093D 70                 3012 	.db #0x70
   093E C0                 3013 	.db #0xC0
   093F C0                 3014 	.db #0xC0
   0940 00                 3015 	.db #0x00
   0941 00                 3016 	.db #0x00
   0942 07                 3017 	.db #0x07
   0943 07                 3018 	.db #0x07
   0944 1F                 3019 	.db #0x1F
   0945 18                 3020 	.db #0x18
   0946 2F                 3021 	.db #0x2F
   0947 30                 3022 	.db #0x30
   0948 4F                 3023 	.db #0x4F
   0949 70                 3024 	.db #0x70
   094A 6F                 3025 	.db #0x6F
   094B 50                 3026 	.db #0x50
   094C 9F                 3027 	.db #0x9F
   094D E0                 3028 	.db #0xE0
   094E 9F                 3029 	.db #0x9F
   094F E0                 3030 	.db #0xE0
   0950 BF                 3031 	.db #0xBF
   0951 C0                 3032 	.db #0xC0
   0952 FF                 3033 	.db #0xFF
   0953 80                 3034 	.db #0x80
   0954 B7                 3035 	.db #0xB7
   0955 C8                 3036 	.db #0xC8
   0956 63                 3037 	.db #0x63
   0957 5C                 3038 	.db #0x5C
   0958 43                 3039 	.db #0x43
   0959 7C                 3040 	.db #0x7C
   095A 3F                 3041 	.db #0x3F
   095B 20                 3042 	.db #0x20
   095C 1F                 3043 	.db #0x1F
   095D 18                 3044 	.db #0x18
   095E 07                 3045 	.db #0x07
   095F 07                 3046 	.db #0x07
   0960 00                 3047 	.db #0x00
   0961 00                 3048 	.db #0x00
   0962 C0                 3049 	.db #0xC0
   0963 C0                 3050 	.db #0xC0
   0964 B0                 3051 	.db #0xB0
   0965 70                 3052 	.db #0x70
   0966 18                 3053 	.db #0x18
   0967 E8                 3054 	.db #0xE8
   0968 0C                 3055 	.db #0x0C
   0969 F4                 3056 	.db #0xF4
   096A 0C                 3057 	.db #0x0C
   096B F4                 3058 	.db #0xF4
   096C 82                 3059 	.db #0x82
   096D 7E                 3060 	.db #0x7E
   096E 82                 3061 	.db #0x82
   096F 7E                 3062 	.db #0x7E
   0970 86                 3063 	.db #0x86
   0971 7A                 3064 	.db #0x7A
   0972 C6                 3065 	.db #0xC6
   0973 3A                 3066 	.db #0x3A
   0974 E6                 3067 	.db #0xE6
   0975 1A                 3068 	.db #0x1A
   0976 F4                 3069 	.db #0xF4
   0977 0C                 3070 	.db #0x0C
   0978 FC                 3071 	.db #0xFC
   0979 04                 3072 	.db #0x04
   097A F8                 3073 	.db #0xF8
   097B 08                 3074 	.db #0x08
   097C F0                 3075 	.db #0xF0
   097D 30                 3076 	.db #0x30
   097E C0                 3077 	.db #0xC0
   097F C0                 3078 	.db #0xC0
   0980 00                 3079 	.db #0x00
   0981 00                 3080 	.db #0x00
   0982 07                 3081 	.db #0x07
   0983 07                 3082 	.db #0x07
   0984 1E                 3083 	.db #0x1E
   0985 19                 3084 	.db #0x19
   0986 20                 3085 	.db #0x20
   0987 3F                 3086 	.db #0x3F
   0988 40                 3087 	.db #0x40
   0989 7F                 3088 	.db #0x7F
   098A 42                 3089 	.db #0x42
   098B 7D                 3090 	.db #0x7D
   098C 81                 3091 	.db #0x81
   098D FE                 3092 	.db #0xFE
   098E 81                 3093 	.db #0x81
   098F FE                 3094 	.db #0xFE
   0990 83                 3095 	.db #0x83
   0991 FC                 3096 	.db #0xFC
   0992 D7                 3097 	.db #0xD7
   0993 A8                 3098 	.db #0xA8
   0994 BB                 3099 	.db #0xBB
   0995 C4                 3100 	.db #0xC4
   0996 6E                 3101 	.db #0x6E
   0997 51                 3102 	.db #0x51
   0998 7C                 3103 	.db #0x7C
   0999 43                 3104 	.db #0x43
   099A 3F                 3105 	.db #0x3F
   099B 20                 3106 	.db #0x20
   099C 1F                 3107 	.db #0x1F
   099D 18                 3108 	.db #0x18
   099E 07                 3109 	.db #0x07
   099F 07                 3110 	.db #0x07
   09A0 00                 3111 	.db #0x00
   09A1 00                 3112 	.db #0x00
   09A2 C0                 3113 	.db #0xC0
   09A3 C0                 3114 	.db #0xC0
   09A4 70                 3115 	.db #0x70
   09A5 B0                 3116 	.db #0xB0
   09A6 E8                 3117 	.db #0xE8
   09A7 18                 3118 	.db #0x18
   09A8 F4                 3119 	.db #0xF4
   09A9 0C                 3120 	.db #0x0C
   09AA F4                 3121 	.db #0xF4
   09AB 0C                 3122 	.db #0x0C
   09AC FE                 3123 	.db #0xFE
   09AD 02                 3124 	.db #0x02
   09AE FE                 3125 	.db #0xFE
   09AF 02                 3126 	.db #0x02
   09B0 FE                 3127 	.db #0xFE
   09B1 02                 3128 	.db #0x02
   09B2 FE                 3129 	.db #0xFE
   09B3 02                 3130 	.db #0x02
   09B4 7E                 3131 	.db #0x7E
   09B5 82                 3132 	.db #0x82
   09B6 3C                 3133 	.db #0x3C
   09B7 C4                 3134 	.db #0xC4
   09B8 3C                 3135 	.db #0x3C
   09B9 C4                 3136 	.db #0xC4
   09BA F8                 3137 	.db #0xF8
   09BB 08                 3138 	.db #0x08
   09BC F0                 3139 	.db #0xF0
   09BD 30                 3140 	.db #0x30
   09BE C0                 3141 	.db #0xC0
   09BF C0                 3142 	.db #0xC0
   09C0 00                 3143 	.db #0x00
   09C1 00                 3144 	.db #0x00
   09C2 07                 3145 	.db #0x07
   09C3 07                 3146 	.db #0x07
   09C4 1B                 3147 	.db #0x1B
   09C5 1C                 3148 	.db #0x1C
   09C6 20                 3149 	.db #0x20
   09C7 3F                 3150 	.db #0x3F
   09C8 40                 3151 	.db #0x40
   09C9 7F                 3152 	.db #0x7F
   09CA 40                 3153 	.db #0x40
   09CB 7F                 3154 	.db #0x7F
   09CC E0                 3155 	.db #0xE0
   09CD 9F                 3156 	.db #0x9F
   09CE 90                 3157 	.db #0x90
   09CF EF                 3158 	.db #0xEF
   09D0 89                 3159 	.db #0x89
   09D1 F6                 3160 	.db #0xF6
   09D2 8D                 3161 	.db #0x8D
   09D3 F2                 3162 	.db #0xF2
   09D4 9F                 3163 	.db #0x9F
   09D5 E0                 3164 	.db #0xE0
   09D6 5E                 3165 	.db #0x5E
   09D7 61                 3166 	.db #0x61
   09D8 6F                 3167 	.db #0x6F
   09D9 50                 3168 	.db #0x50
   09DA 3F                 3169 	.db #0x3F
   09DB 20                 3170 	.db #0x20
   09DC 1F                 3171 	.db #0x1F
   09DD 18                 3172 	.db #0x18
   09DE 07                 3173 	.db #0x07
   09DF 07                 3174 	.db #0x07
   09E0 00                 3175 	.db #0x00
   09E1 00                 3176 	.db #0x00
   09E2 C0                 3177 	.db #0xC0
   09E3 C0                 3178 	.db #0xC0
   09E4 B0                 3179 	.db #0xB0
   09E5 70                 3180 	.db #0x70
   09E6 28                 3181 	.db #0x28
   09E7 D8                 3182 	.db #0xD8
   09E8 04                 3183 	.db #0x04
   09E9 FC                 3184 	.db #0xFC
   09EA 2C                 3185 	.db #0x2C
   09EB D4                 3186 	.db #0xD4
   09EC 1E                 3187 	.db #0x1E
   09ED E2                 3188 	.db #0xE2
   09EE 1E                 3189 	.db #0x1E
   09EF E2                 3190 	.db #0xE2
   09F0 3E                 3191 	.db #0x3E
   09F1 C2                 3192 	.db #0xC2
   09F2 7E                 3193 	.db #0x7E
   09F3 82                 3194 	.db #0x82
   09F4 B6                 3195 	.db #0xB6
   09F5 4A                 3196 	.db #0x4A
   09F6 E4                 3197 	.db #0xE4
   09F7 1C                 3198 	.db #0x1C
   09F8 C4                 3199 	.db #0xC4
   09F9 3C                 3200 	.db #0x3C
   09FA F8                 3201 	.db #0xF8
   09FB 08                 3202 	.db #0x08
   09FC F0                 3203 	.db #0xF0
   09FD 30                 3204 	.db #0x30
   09FE C0                 3205 	.db #0xC0
   09FF C0                 3206 	.db #0xC0
   0A00 00                 3207 	.db #0x00
   0A01 00                 3208 	.db #0x00
   0A02 07                 3209 	.db #0x07
   0A03 07                 3210 	.db #0x07
   0A04 18                 3211 	.db #0x18
   0A05 1F                 3212 	.db #0x1F
   0A06 20                 3213 	.db #0x20
   0A07 3F                 3214 	.db #0x3F
   0A08 40                 3215 	.db #0x40
   0A09 7F                 3216 	.db #0x7F
   0A0A 40                 3217 	.db #0x40
   0A0B 7F                 3218 	.db #0x7F
   0A0C EE                 3219 	.db #0xEE
   0A0D 91                 3220 	.db #0x91
   0A0E F1                 3221 	.db #0xF1
   0A0F 8E                 3222 	.db #0x8E
   0A10 E0                 3223 	.db #0xE0
   0A11 9F                 3224 	.db #0x9F
   0A12 E0                 3225 	.db #0xE0
   0A13 9F                 3226 	.db #0x9F
   0A14 F1                 3227 	.db #0xF1
   0A15 8E                 3228 	.db #0x8E
   0A16 71                 3229 	.db #0x71
   0A17 4E                 3230 	.db #0x4E
   0A18 72                 3231 	.db #0x72
   0A19 4D                 3232 	.db #0x4D
   0A1A 3F                 3233 	.db #0x3F
   0A1B 20                 3234 	.db #0x20
   0A1C 1F                 3235 	.db #0x1F
   0A1D 18                 3236 	.db #0x18
   0A1E 07                 3237 	.db #0x07
   0A1F 07                 3238 	.db #0x07
   0A20 00                 3239 	.db #0x00
   0A21 00                 3240 	.db #0x00
   0A22 C0                 3241 	.db #0xC0
   0A23 C0                 3242 	.db #0xC0
   0A24 F0                 3243 	.db #0xF0
   0A25 30                 3244 	.db #0x30
   0A26 08                 3245 	.db #0x08
   0A27 F8                 3246 	.db #0xF8
   0A28 04                 3247 	.db #0x04
   0A29 FC                 3248 	.db #0xFC
   0A2A 04                 3249 	.db #0x04
   0A2B FC                 3250 	.db #0xFC
   0A2C 02                 3251 	.db #0x02
   0A2D FE                 3252 	.db #0xFE
   0A2E 02                 3253 	.db #0x02
   0A2F FE                 3254 	.db #0xFE
   0A30 92                 3255 	.db #0x92
   0A31 6E                 3256 	.db #0x6E
   0A32 D6                 3257 	.db #0xD6
   0A33 2A                 3258 	.db #0x2A
   0A34 FE                 3259 	.db #0xFE
   0A35 02                 3260 	.db #0x02
   0A36 EC                 3261 	.db #0xEC
   0A37 14                 3262 	.db #0x14
   0A38 FC                 3263 	.db #0xFC
   0A39 04                 3264 	.db #0x04
   0A3A F8                 3265 	.db #0xF8
   0A3B 08                 3266 	.db #0x08
   0A3C F0                 3267 	.db #0xF0
   0A3D 30                 3268 	.db #0x30
   0A3E C0                 3269 	.db #0xC0
   0A3F C0                 3270 	.db #0xC0
   0A40 00                 3271 	.db #0x00
   0A41 00                 3272 	.db #0x00
   0A42 07                 3273 	.db #0x07
   0A43 07                 3274 	.db #0x07
   0A44 1D                 3275 	.db #0x1D
   0A45 1A                 3276 	.db #0x1A
   0A46 36                 3277 	.db #0x36
   0A47 29                 3278 	.db #0x29
   0A48 5C                 3279 	.db #0x5C
   0A49 63                 3280 	.db #0x63
   0A4A 6C                 3281 	.db #0x6C
   0A4B 53                 3282 	.db #0x53
   0A4C CE                 3283 	.db #0xCE
   0A4D B1                 3284 	.db #0xB1
   0A4E 9F                 3285 	.db #0x9F
   0A4F E0                 3286 	.db #0xE0
   0A50 9E                 3287 	.db #0x9E
   0A51 E1                 3288 	.db #0xE1
   0A52 AE                 3289 	.db #0xAE
   0A53 D1                 3290 	.db #0xD1
   0A54 BF                 3291 	.db #0xBF
   0A55 C0                 3292 	.db #0xC0
   0A56 47                 3293 	.db #0x47
   0A57 78                 3294 	.db #0x78
   0A58 47                 3295 	.db #0x47
   0A59 78                 3296 	.db #0x78
   0A5A 2F                 3297 	.db #0x2F
   0A5B 30                 3298 	.db #0x30
   0A5C 1F                 3299 	.db #0x1F
   0A5D 18                 3300 	.db #0x18
   0A5E 07                 3301 	.db #0x07
   0A5F 07                 3302 	.db #0x07
   0A60 00                 3303 	.db #0x00
   0A61 00                 3304 	.db #0x00
   0A62 C0                 3305 	.db #0xC0
   0A63 C0                 3306 	.db #0xC0
   0A64 70                 3307 	.db #0x70
   0A65 B0                 3308 	.db #0xB0
   0A66 08                 3309 	.db #0x08
   0A67 F8                 3310 	.db #0xF8
   0A68 04                 3311 	.db #0x04
   0A69 FC                 3312 	.db #0xFC
   0A6A 04                 3313 	.db #0x04
   0A6B FC                 3314 	.db #0xFC
   0A6C E2                 3315 	.db #0xE2
   0A6D 1E                 3316 	.db #0x1E
   0A6E 32                 3317 	.db #0x32
   0A6F CE                 3318 	.db #0xCE
   0A70 0E                 3319 	.db #0x0E
   0A71 F2                 3320 	.db #0xF2
   0A72 0E                 3321 	.db #0x0E
   0A73 F2                 3322 	.db #0xF2
   0A74 1E                 3323 	.db #0x1E
   0A75 E2                 3324 	.db #0xE2
   0A76 1C                 3325 	.db #0x1C
   0A77 E4                 3326 	.db #0xE4
   0A78 2C                 3327 	.db #0x2C
   0A79 D4                 3328 	.db #0xD4
   0A7A F8                 3329 	.db #0xF8
   0A7B 08                 3330 	.db #0x08
   0A7C F0                 3331 	.db #0xF0
   0A7D 30                 3332 	.db #0x30
   0A7E C0                 3333 	.db #0xC0
   0A7F C0                 3334 	.db #0xC0
   0A80 00                 3335 	.db #0x00
   0A81 00                 3336 	.db #0x00
   0A82 07                 3337 	.db #0x07
   0A83 07                 3338 	.db #0x07
   0A84 1E                 3339 	.db #0x1E
   0A85 19                 3340 	.db #0x19
   0A86 33                 3341 	.db #0x33
   0A87 2C                 3342 	.db #0x2C
   0A88 49                 3343 	.db #0x49
   0A89 76                 3344 	.db #0x76
   0A8A 42                 3345 	.db #0x42
   0A8B 7D                 3346 	.db #0x7D
   0A8C C4                 3347 	.db #0xC4
   0A8D BB                 3348 	.db #0xBB
   0A8E C1                 3349 	.db #0xC1
   0A8F BE                 3350 	.db #0xBE
   0A90 C1                 3351 	.db #0xC1
   0A91 BE                 3352 	.db #0xBE
   0A92 E2                 3353 	.db #0xE2
   0A93 9D                 3354 	.db #0x9D
   0A94 F3                 3355 	.db #0xF3
   0A95 8C                 3356 	.db #0x8C
   0A96 78                 3357 	.db #0x78
   0A97 47                 3358 	.db #0x47
   0A98 78                 3359 	.db #0x78
   0A99 47                 3360 	.db #0x47
   0A9A 3C                 3361 	.db #0x3C
   0A9B 23                 3362 	.db #0x23
   0A9C 1C                 3363 	.db #0x1C
   0A9D 1B                 3364 	.db #0x1B
   0A9E 07                 3365 	.db #0x07
   0A9F 07                 3366 	.db #0x07
   0AA0 00                 3367 	.db #0x00
   0AA1 00                 3368 	.db #0x00
   0AA2 C0                 3369 	.db #0xC0
   0AA3 C0                 3370 	.db #0xC0
   0AA4 70                 3371 	.db #0x70
   0AA5 B0                 3372 	.db #0xB0
   0AA6 68                 3373 	.db #0x68
   0AA7 98                 3374 	.db #0x98
   0AA8 C4                 3375 	.db #0xC4
   0AA9 3C                 3376 	.db #0x3C
   0AAA C4                 3377 	.db #0xC4
   0AAB 3C                 3378 	.db #0x3C
   0AAC EE                 3379 	.db #0xEE
   0AAD 12                 3380 	.db #0x12
   0AAE F2                 3381 	.db #0xF2
   0AAF 0E                 3382 	.db #0x0E
   0AB0 E2                 3383 	.db #0xE2
   0AB1 1E                 3384 	.db #0x1E
   0AB2 E2                 3385 	.db #0xE2
   0AB3 1E                 3386 	.db #0x1E
   0AB4 F2                 3387 	.db #0xF2
   0AB5 0E                 3388 	.db #0x0E
   0AB6 7C                 3389 	.db #0x7C
   0AB7 84                 3390 	.db #0x84
   0AB8 7C                 3391 	.db #0x7C
   0AB9 84                 3392 	.db #0x84
   0ABA F8                 3393 	.db #0xF8
   0ABB 08                 3394 	.db #0x08
   0ABC F0                 3395 	.db #0xF0
   0ABD 30                 3396 	.db #0x30
   0ABE C0                 3397 	.db #0xC0
   0ABF C0                 3398 	.db #0xC0
   0AC0 00                 3399 	.db #0x00
   0AC1 00                 3400 	.db #0x00
   0AC2                    3401 _frame_data:
   0AC2 FF                 3402 	.db #0xFF
   0AC3 00                 3403 	.db #0x00
   0AC4 80                 3404 	.db #0x80
   0AC5 7F                 3405 	.db #0x7F
   0AC6 80                 3406 	.db #0x80
   0AC7 7F                 3407 	.db #0x7F
   0AC8 80                 3408 	.db #0x80
   0AC9 7F                 3409 	.db #0x7F
   0ACA 80                 3410 	.db #0x80
   0ACB 7F                 3411 	.db #0x7F
   0ACC 80                 3412 	.db #0x80
   0ACD 7F                 3413 	.db #0x7F
   0ACE 80                 3414 	.db #0x80
   0ACF 7F                 3415 	.db #0x7F
   0AD0 80                 3416 	.db #0x80
   0AD1 7F                 3417 	.db #0x7F
   0AD2 FF                 3418 	.db #0xFF
   0AD3 00                 3419 	.db #0x00
   0AD4 01                 3420 	.db #0x01
   0AD5 FE                 3421 	.db #0xFE
   0AD6 03                 3422 	.db #0x03
   0AD7 FC                 3423 	.db #0xFC
   0AD8 07                 3424 	.db #0x07
   0AD9 F8                 3425 	.db #0xF8
   0ADA 0F                 3426 	.db #0x0F
   0ADB F0                 3427 	.db #0xF0
   0ADC 1F                 3428 	.db #0x1F
   0ADD E0                 3429 	.db #0xE0
   0ADE 3F                 3430 	.db #0x3F
   0ADF C0                 3431 	.db #0xC0
   0AE0 7F                 3432 	.db #0x7F
   0AE1 80                 3433 	.db #0x80
   0AE2 FF                 3434 	.db #0xFF
   0AE3 00                 3435 	.db #0x00
   0AE4 FE                 3436 	.db #0xFE
   0AE5 01                 3437 	.db #0x01
   0AE6 FC                 3438 	.db #0xFC
   0AE7 03                 3439 	.db #0x03
   0AE8 F8                 3440 	.db #0xF8
   0AE9 07                 3441 	.db #0x07
   0AEA F0                 3442 	.db #0xF0
   0AEB 0F                 3443 	.db #0x0F
   0AEC E0                 3444 	.db #0xE0
   0AED 1F                 3445 	.db #0x1F
   0AEE C0                 3446 	.db #0xC0
   0AEF 3F                 3447 	.db #0x3F
   0AF0 80                 3448 	.db #0x80
   0AF1 7F                 3449 	.db #0x7F
   0AF2 FF                 3450 	.db #0xFF
   0AF3 00                 3451 	.db #0x00
   0AF4 00                 3452 	.db #0x00
   0AF5 FF                 3453 	.db #0xFF
   0AF6 00                 3454 	.db #0x00
   0AF7 FF                 3455 	.db #0xFF
   0AF8 00                 3456 	.db #0x00
   0AF9 FF                 3457 	.db #0xFF
   0AFA 00                 3458 	.db #0x00
   0AFB FF                 3459 	.db #0xFF
   0AFC 00                 3460 	.db #0x00
   0AFD FF                 3461 	.db #0xFF
   0AFE 00                 3462 	.db #0x00
   0AFF FF                 3463 	.db #0xFF
   0B00 00                 3464 	.db #0x00
   0B01 FF                 3465 	.db #0xFF
   0B02 FF                 3466 	.db #0xFF
   0B03 00                 3467 	.db #0x00
   0B04 FF                 3468 	.db #0xFF
   0B05 01                 3469 	.db #0x01
   0B06 FD                 3470 	.db #0xFD
   0B07 03                 3471 	.db #0x03
   0B08 F9                 3472 	.db #0xF9
   0B09 07                 3473 	.db #0x07
   0B0A F1                 3474 	.db #0xF1
   0B0B 0F                 3475 	.db #0x0F
   0B0C E1                 3476 	.db #0xE1
   0B0D 1F                 3477 	.db #0x1F
   0B0E C1                 3478 	.db #0xC1
   0B0F 3F                 3479 	.db #0x3F
   0B10 81                 3480 	.db #0x81
   0B11 7F                 3481 	.db #0x7F
   0B12 80                 3482 	.db #0x80
   0B13 7F                 3483 	.db #0x7F
   0B14 81                 3484 	.db #0x81
   0B15 7E                 3485 	.db #0x7E
   0B16 83                 3486 	.db #0x83
   0B17 7C                 3487 	.db #0x7C
   0B18 87                 3488 	.db #0x87
   0B19 78                 3489 	.db #0x78
   0B1A 8F                 3490 	.db #0x8F
   0B1B 70                 3491 	.db #0x70
   0B1C 9F                 3492 	.db #0x9F
   0B1D 60                 3493 	.db #0x60
   0B1E BF                 3494 	.db #0xBF
   0B1F 40                 3495 	.db #0x40
   0B20 FF                 3496 	.db #0xFF
   0B21 00                 3497 	.db #0x00
   0B22 FF                 3498 	.db #0xFF
   0B23 70                 3499 	.db #0x70
   0B24 FF                 3500 	.db #0xFF
   0B25 98                 3501 	.db #0x98
   0B26 EF                 3502 	.db #0xEF
   0B27 B8                 3503 	.db #0xB8
   0B28 CF                 3504 	.db #0xCF
   0B29 F8                 3505 	.db #0xF8
   0B2A FF                 3506 	.db #0xFF
   0B2B 70                 3507 	.db #0x70
   0B2C FF                 3508 	.db #0xFF
   0B2D 00                 3509 	.db #0x00
   0B2E FF                 3510 	.db #0xFF
   0B2F 00                 3511 	.db #0x00
   0B30 FF                 3512 	.db #0xFF
   0B31 01                 3513 	.db #0x01
   0B32 FF                 3514 	.db #0xFF
   0B33 00                 3515 	.db #0x00
   0B34 FE                 3516 	.db #0xFE
   0B35 01                 3517 	.db #0x01
   0B36 FC                 3518 	.db #0xFC
   0B37 03                 3519 	.db #0x03
   0B38 F8                 3520 	.db #0xF8
   0B39 07                 3521 	.db #0x07
   0B3A F0                 3522 	.db #0xF0
   0B3B 0F                 3523 	.db #0x0F
   0B3C E0                 3524 	.db #0xE0
   0B3D 1F                 3525 	.db #0x1F
   0B3E C0                 3526 	.db #0xC0
   0B3F 3F                 3527 	.db #0x3F
   0B40 FF                 3528 	.db #0xFF
   0B41 FF                 3529 	.db #0xFF
   0B42 00                 3530 	.db #0x00
   0B43 FF                 3531 	.db #0xFF
   0B44 00                 3532 	.db #0x00
   0B45 FF                 3533 	.db #0xFF
   0B46 00                 3534 	.db #0x00
   0B47 FF                 3535 	.db #0xFF
   0B48 00                 3536 	.db #0x00
   0B49 FF                 3537 	.db #0xFF
   0B4A 00                 3538 	.db #0x00
   0B4B FF                 3539 	.db #0xFF
   0B4C 00                 3540 	.db #0x00
   0B4D FF                 3541 	.db #0xFF
   0B4E 00                 3542 	.db #0x00
   0B4F FF                 3543 	.db #0xFF
   0B50 FF                 3544 	.db #0xFF
   0B51 FF                 3545 	.db #0xFF
   0B52 00                 3546 	.db #0x00
   0B53 FF                 3547 	.db #0xFF
   0B54 01                 3548 	.db #0x01
   0B55 FE                 3549 	.db #0xFE
   0B56 03                 3550 	.db #0x03
   0B57 FC                 3551 	.db #0xFC
   0B58 07                 3552 	.db #0x07
   0B59 F8                 3553 	.db #0xF8
   0B5A 0F                 3554 	.db #0x0F
   0B5B F0                 3555 	.db #0xF0
   0B5C 1F                 3556 	.db #0x1F
   0B5D E0                 3557 	.db #0xE0
   0B5E 3F                 3558 	.db #0x3F
   0B5F C0                 3559 	.db #0xC0
   0B60 FF                 3560 	.db #0xFF
   0B61 FF                 3561 	.db #0xFF
   0B62 FF                 3562 	.db #0xFF
   0B63 00                 3563 	.db #0x00
   0B64 FF                 3564 	.db #0xFF
   0B65 00                 3565 	.db #0x00
   0B66 FF                 3566 	.db #0xFF
   0B67 00                 3567 	.db #0x00
   0B68 FF                 3568 	.db #0xFF
   0B69 00                 3569 	.db #0x00
   0B6A FF                 3570 	.db #0xFF
   0B6B 00                 3571 	.db #0x00
   0B6C FF                 3572 	.db #0xFF
   0B6D 00                 3573 	.db #0x00
   0B6E FF                 3574 	.db #0xFF
   0B6F 00                 3575 	.db #0x00
   0B70 FF                 3576 	.db #0xFF
   0B71 FF                 3577 	.db #0xFF
   0B72 FF                 3578 	.db #0xFF
   0B73 0E                 3579 	.db #0x0E
   0B74 FF                 3580 	.db #0xFF
   0B75 13                 3581 	.db #0x13
   0B76 FD                 3582 	.db #0xFD
   0B77 17                 3583 	.db #0x17
   0B78 F9                 3584 	.db #0xF9
   0B79 1F                 3585 	.db #0x1F
   0B7A FE                 3586 	.db #0xFE
   0B7B 0F                 3587 	.db #0x0F
   0B7C E0                 3588 	.db #0xE0
   0B7D 1F                 3589 	.db #0x1F
   0B7E C0                 3590 	.db #0xC0
   0B7F 3F                 3591 	.db #0x3F
   0B80 80                 3592 	.db #0x80
   0B81 FF                 3593 	.db #0xFF
   0B82 01                 3594 	.db #0x01
   0B83 FF                 3595 	.db #0xFF
   0B84 01                 3596 	.db #0x01
   0B85 FF                 3597 	.db #0xFF
   0B86 01                 3598 	.db #0x01
   0B87 FF                 3599 	.db #0xFF
   0B88 01                 3600 	.db #0x01
   0B89 FF                 3601 	.db #0xFF
   0B8A 01                 3602 	.db #0x01
   0B8B FF                 3603 	.db #0xFF
   0B8C 01                 3604 	.db #0x01
   0B8D FF                 3605 	.db #0xFF
   0B8E 01                 3606 	.db #0x01
   0B8F FF                 3607 	.db #0xFF
   0B90 01                 3608 	.db #0x01
   0B91 FF                 3609 	.db #0xFF
   0B92 FF                 3610 	.db #0xFF
   0B93 01                 3611 	.db #0x01
   0B94 FF                 3612 	.db #0xFF
   0B95 01                 3613 	.db #0x01
   0B96 FD                 3614 	.db #0xFD
   0B97 03                 3615 	.db #0x03
   0B98 F9                 3616 	.db #0xF9
   0B99 07                 3617 	.db #0x07
   0B9A F1                 3618 	.db #0xF1
   0B9B 0F                 3619 	.db #0x0F
   0B9C E1                 3620 	.db #0xE1
   0B9D 1F                 3621 	.db #0x1F
   0B9E C1                 3622 	.db #0xC1
   0B9F 3F                 3623 	.db #0x3F
   0BA0 81                 3624 	.db #0x81
   0BA1 7F                 3625 	.db #0x7F
   0BA2 80                 3626 	.db #0x80
   0BA3 7F                 3627 	.db #0x7F
   0BA4 80                 3628 	.db #0x80
   0BA5 7F                 3629 	.db #0x7F
   0BA6 80                 3630 	.db #0x80
   0BA7 7F                 3631 	.db #0x7F
   0BA8 80                 3632 	.db #0x80
   0BA9 7F                 3633 	.db #0x7F
   0BAA 80                 3634 	.db #0x80
   0BAB 7F                 3635 	.db #0x7F
   0BAC 80                 3636 	.db #0x80
   0BAD 7F                 3637 	.db #0x7F
   0BAE 80                 3638 	.db #0x80
   0BAF 7F                 3639 	.db #0x7F
   0BB0 80                 3640 	.db #0x80
   0BB1 7F                 3641 	.db #0x7F
   0BB2 01                 3642 	.db #0x01
   0BB3 FF                 3643 	.db #0xFF
   0BB4 01                 3644 	.db #0x01
   0BB5 FF                 3645 	.db #0xFF
   0BB6 03                 3646 	.db #0x03
   0BB7 FD                 3647 	.db #0xFD
   0BB8 07                 3648 	.db #0x07
   0BB9 F9                 3649 	.db #0xF9
   0BBA 0F                 3650 	.db #0x0F
   0BBB F1                 3651 	.db #0xF1
   0BBC 1F                 3652 	.db #0x1F
   0BBD E1                 3653 	.db #0xE1
   0BBE 3F                 3654 	.db #0x3F
   0BBF C1                 3655 	.db #0xC1
   0BC0 7F                 3656 	.db #0x7F
   0BC1 81                 3657 	.db #0x81
   0BC2 FF                 3658 	.db #0xFF
   0BC3 01                 3659 	.db #0x01
   0BC4 FF                 3660 	.db #0xFF
   0BC5 01                 3661 	.db #0x01
   0BC6 FF                 3662 	.db #0xFF
   0BC7 01                 3663 	.db #0x01
   0BC8 FF                 3664 	.db #0xFF
   0BC9 01                 3665 	.db #0x01
   0BCA FF                 3666 	.db #0xFF
   0BCB 01                 3667 	.db #0x01
   0BCC FF                 3668 	.db #0xFF
   0BCD 01                 3669 	.db #0x01
   0BCE FF                 3670 	.db #0xFF
   0BCF 01                 3671 	.db #0x01
   0BD0 FF                 3672 	.db #0xFF
   0BD1 01                 3673 	.db #0x01
   0BD2 01                 3674 	.db #0x01
   0BD3 FF                 3675 	.db #0xFF
   0BD4 01                 3676 	.db #0x01
   0BD5 FE                 3677 	.db #0xFE
   0BD6 03                 3678 	.db #0x03
   0BD7 FC                 3679 	.db #0xFC
   0BD8 77                 3680 	.db #0x77
   0BD9 F8                 3681 	.db #0xF8
   0BDA FF                 3682 	.db #0xFF
   0BDB 98                 3683 	.db #0x98
   0BDC EF                 3684 	.db #0xEF
   0BDD B8                 3685 	.db #0xB8
   0BDE CF                 3686 	.db #0xCF
   0BDF F8                 3687 	.db #0xF8
   0BE0 7F                 3688 	.db #0x7F
   0BE1 F0                 3689 	.db #0xF0
   0BE2 FF                 3690 	.db #0xFF
   0BE3 00                 3691 	.db #0x00
   0BE4 FF                 3692 	.db #0xFF
   0BE5 00                 3693 	.db #0x00
   0BE6 FF                 3694 	.db #0xFF
   0BE7 00                 3695 	.db #0x00
   0BE8 FF                 3696 	.db #0xFF
   0BE9 0E                 3697 	.db #0x0E
   0BEA FF                 3698 	.db #0xFF
   0BEB 13                 3699 	.db #0x13
   0BEC FD                 3700 	.db #0xFD
   0BED 17                 3701 	.db #0x17
   0BEE F9                 3702 	.db #0xF9
   0BEF 1F                 3703 	.db #0x1F
   0BF0 FF                 3704 	.db #0xFF
   0BF1 0E                 3705 	.db #0x0E
   0BF2 80                 3706 	.db #0x80
   0BF3 7F                 3707 	.db #0x7F
   0BF4 81                 3708 	.db #0x81
   0BF5 7E                 3709 	.db #0x7E
   0BF6 83                 3710 	.db #0x83
   0BF7 7C                 3711 	.db #0x7C
   0BF8 87                 3712 	.db #0x87
   0BF9 78                 3713 	.db #0x78
   0BFA 8F                 3714 	.db #0x8F
   0BFB 70                 3715 	.db #0x70
   0BFC 9F                 3716 	.db #0x9F
   0BFD 60                 3717 	.db #0x60
   0BFE BF                 3718 	.db #0xBF
   0BFF 40                 3719 	.db #0x40
   0C00 FF                 3720 	.db #0xFF
   0C01 7F                 3721 	.db #0x7F
   0C02 01                 3722 	.db #0x01
   0C03 FF                 3723 	.db #0xFF
   0C04 01                 3724 	.db #0x01
   0C05 FF                 3725 	.db #0xFF
   0C06 01                 3726 	.db #0x01
   0C07 FF                 3727 	.db #0xFF
   0C08 01                 3728 	.db #0x01
   0C09 FF                 3729 	.db #0xFF
   0C0A 01                 3730 	.db #0x01
   0C0B FF                 3731 	.db #0xFF
   0C0C 01                 3732 	.db #0x01
   0C0D FF                 3733 	.db #0xFF
   0C0E 01                 3734 	.db #0x01
   0C0F FF                 3735 	.db #0xFF
   0C10 FF                 3736 	.db #0xFF
   0C11 FF                 3737 	.db #0xFF
   0C12 FF                 3738 	.db #0xFF
   0C13 00                 3739 	.db #0x00
   0C14 00                 3740 	.db #0x00
   0C15 FF                 3741 	.db #0xFF
   0C16 00                 3742 	.db #0x00
   0C17 FF                 3743 	.db #0xFF
   0C18 00                 3744 	.db #0x00
   0C19 FF                 3745 	.db #0xFF
   0C1A 00                 3746 	.db #0x00
   0C1B FF                 3747 	.db #0xFF
   0C1C FF                 3748 	.db #0xFF
   0C1D FF                 3749 	.db #0xFF
   0C1E FF                 3750 	.db #0xFF
   0C1F 00                 3751 	.db #0x00
   0C20 00                 3752 	.db #0x00
   0C21 FF                 3753 	.db #0xFF
   0C22 00                 3754 	.db #0x00
   0C23 FF                 3755 	.db #0xFF
   0C24 00                 3756 	.db #0x00
   0C25 FF                 3757 	.db #0xFF
   0C26 00                 3758 	.db #0x00
   0C27 FF                 3759 	.db #0xFF
   0C28 FF                 3760 	.db #0xFF
   0C29 FF                 3761 	.db #0xFF
   0C2A FF                 3762 	.db #0xFF
   0C2B 00                 3763 	.db #0x00
   0C2C 00                 3764 	.db #0x00
   0C2D FF                 3765 	.db #0xFF
   0C2E 00                 3766 	.db #0x00
   0C2F FF                 3767 	.db #0xFF
   0C30 00                 3768 	.db #0x00
   0C31 FF                 3769 	.db #0xFF
   0C32 00                 3770 	.db #0x00
   0C33 FF                 3771 	.db #0xFF
   0C34 FF                 3772 	.db #0xFF
   0C35 FF                 3773 	.db #0xFF
   0C36 FF                 3774 	.db #0xFF
   0C37 00                 3775 	.db #0x00
   0C38 00                 3776 	.db #0x00
   0C39 FF                 3777 	.db #0xFF
   0C3A 00                 3778 	.db #0x00
   0C3B FF                 3779 	.db #0xFF
   0C3C 00                 3780 	.db #0x00
   0C3D FF                 3781 	.db #0xFF
   0C3E 00                 3782 	.db #0x00
   0C3F FF                 3783 	.db #0xFF
   0C40 FF                 3784 	.db #0xFF
   0C41 FF                 3785 	.db #0xFF
   0C42 00                 3786 	.db #0x00
   0C43 FF                 3787 	.db #0xFF
   0C44 00                 3788 	.db #0x00
   0C45 FF                 3789 	.db #0xFF
   0C46 00                 3790 	.db #0x00
   0C47 FF                 3791 	.db #0xFF
   0C48 FF                 3792 	.db #0xFF
   0C49 FF                 3793 	.db #0xFF
   0C4A FF                 3794 	.db #0xFF
   0C4B 00                 3795 	.db #0x00
   0C4C 00                 3796 	.db #0x00
   0C4D FF                 3797 	.db #0xFF
   0C4E 00                 3798 	.db #0x00
   0C4F FF                 3799 	.db #0xFF
   0C50 00                 3800 	.db #0x00
   0C51 FF                 3801 	.db #0xFF
   0C52 00                 3802 	.db #0x00
   0C53 FF                 3803 	.db #0xFF
   0C54 FF                 3804 	.db #0xFF
   0C55 FF                 3805 	.db #0xFF
   0C56 FF                 3806 	.db #0xFF
   0C57 00                 3807 	.db #0x00
   0C58 00                 3808 	.db #0x00
   0C59 FF                 3809 	.db #0xFF
   0C5A 00                 3810 	.db #0x00
   0C5B FF                 3811 	.db #0xFF
   0C5C 00                 3812 	.db #0x00
   0C5D FF                 3813 	.db #0xFF
   0C5E 00                 3814 	.db #0x00
   0C5F FF                 3815 	.db #0xFF
   0C60 FF                 3816 	.db #0xFF
   0C61 FF                 3817 	.db #0xFF
   0C62 FF                 3818 	.db #0xFF
   0C63 00                 3819 	.db #0x00
   0C64 00                 3820 	.db #0x00
   0C65 FF                 3821 	.db #0xFF
   0C66 00                 3822 	.db #0x00
   0C67 FF                 3823 	.db #0xFF
   0C68 00                 3824 	.db #0x00
   0C69 FF                 3825 	.db #0xFF
   0C6A 00                 3826 	.db #0x00
   0C6B FF                 3827 	.db #0xFF
   0C6C FF                 3828 	.db #0xFF
   0C6D FF                 3829 	.db #0xFF
   0C6E FF                 3830 	.db #0xFF
   0C6F 00                 3831 	.db #0x00
   0C70 00                 3832 	.db #0x00
   0C71 FF                 3833 	.db #0xFF
   0C72 FF                 3834 	.db #0xFF
   0C73 00                 3835 	.db #0x00
   0C74 00                 3836 	.db #0x00
   0C75 FF                 3837 	.db #0xFF
   0C76 00                 3838 	.db #0x00
   0C77 FF                 3839 	.db #0xFF
   0C78 00                 3840 	.db #0x00
   0C79 FF                 3841 	.db #0xFF
   0C7A 00                 3842 	.db #0x00
   0C7B FF                 3843 	.db #0xFF
   0C7C FF                 3844 	.db #0xFF
   0C7D FF                 3845 	.db #0xFF
   0C7E FF                 3846 	.db #0xFF
   0C7F FF                 3847 	.db #0xFF
   0C80 FF                 3848 	.db #0xFF
   0C81 FF                 3849 	.db #0xFF
   0C82 00                 3850 	.db #0x00
   0C83 FF                 3851 	.db #0xFF
   0C84 FF                 3852 	.db #0xFF
   0C85 FF                 3853 	.db #0xFF
   0C86 FF                 3854 	.db #0xFF
   0C87 00                 3855 	.db #0x00
   0C88 00                 3856 	.db #0x00
   0C89 FF                 3857 	.db #0xFF
   0C8A 00                 3858 	.db #0x00
   0C8B FF                 3859 	.db #0xFF
   0C8C 00                 3860 	.db #0x00
   0C8D FF                 3861 	.db #0xFF
   0C8E 00                 3862 	.db #0x00
   0C8F FF                 3863 	.db #0xFF
   0C90 FF                 3864 	.db #0xFF
   0C91 FF                 3865 	.db #0xFF
   0C92 FF                 3866 	.db #0xFF
   0C93 00                 3867 	.db #0x00
   0C94 00                 3868 	.db #0x00
   0C95 FF                 3869 	.db #0xFF
   0C96 00                 3870 	.db #0x00
   0C97 FF                 3871 	.db #0xFF
   0C98 00                 3872 	.db #0x00
   0C99 FF                 3873 	.db #0xFF
   0C9A 00                 3874 	.db #0x00
   0C9B FF                 3875 	.db #0xFF
   0C9C FF                 3876 	.db #0xFF
   0C9D FF                 3877 	.db #0xFF
   0C9E FF                 3878 	.db #0xFF
   0C9F 00                 3879 	.db #0x00
   0CA0 00                 3880 	.db #0x00
   0CA1 FF                 3881 	.db #0xFF
   0CA2 00                 3882 	.db #0x00
   0CA3 FF                 3883 	.db #0xFF
   0CA4 00                 3884 	.db #0x00
   0CA5 FF                 3885 	.db #0xFF
   0CA6 00                 3886 	.db #0x00
   0CA7 FF                 3887 	.db #0xFF
   0CA8 FF                 3888 	.db #0xFF
   0CA9 FF                 3889 	.db #0xFF
   0CAA FF                 3890 	.db #0xFF
   0CAB 00                 3891 	.db #0x00
   0CAC 00                 3892 	.db #0x00
   0CAD FF                 3893 	.db #0xFF
   0CAE 00                 3894 	.db #0x00
   0CAF FF                 3895 	.db #0xFF
   0CB0 00                 3896 	.db #0x00
   0CB1 FF                 3897 	.db #0xFF
   0CB2 00                 3898 	.db #0x00
   0CB3 FF                 3899 	.db #0xFF
   0CB4 00                 3900 	.db #0x00
   0CB5 FF                 3901 	.db #0xFF
   0CB6 00                 3902 	.db #0x00
   0CB7 FF                 3903 	.db #0xFF
   0CB8 FF                 3904 	.db #0xFF
   0CB9 FF                 3905 	.db #0xFF
   0CBA FF                 3906 	.db #0xFF
   0CBB FF                 3907 	.db #0xFF
   0CBC FF                 3908 	.db #0xFF
   0CBD FF                 3909 	.db #0xFF
   0CBE FF                 3910 	.db #0xFF
   0CBF FF                 3911 	.db #0xFF
   0CC0 FF                 3912 	.db #0xFF
   0CC1 FF                 3913 	.db #0xFF
   0CC2 00                 3914 	.db #0x00
   0CC3 FF                 3915 	.db #0xFF
   0CC4 FF                 3916 	.db #0xFF
   0CC5 FF                 3917 	.db #0xFF
   0CC6 FF                 3918 	.db #0xFF
   0CC7 FF                 3919 	.db #0xFF
   0CC8 FF                 3920 	.db #0xFF
   0CC9 FF                 3921 	.db #0xFF
   0CCA FF                 3922 	.db #0xFF
   0CCB FF                 3923 	.db #0xFF
   0CCC FF                 3924 	.db #0xFF
   0CCD FF                 3925 	.db #0xFF
   0CCE FF                 3926 	.db #0xFF
   0CCF FF                 3927 	.db #0xFF
   0CD0 FF                 3928 	.db #0xFF
   0CD1 FF                 3929 	.db #0xFF
   0CD2                    3930 _bkg_data:
   0CD2 FF                 3931 	.db #0xFF
   0CD3 FF                 3932 	.db #0xFF
   0CD4 FF                 3933 	.db #0xFF
   0CD5 FF                 3934 	.db #0xFF
   0CD6 FF                 3935 	.db #0xFF
   0CD7 FF                 3936 	.db #0xFF
   0CD8 FF                 3937 	.db #0xFF
   0CD9 FF                 3938 	.db #0xFF
   0CDA FF                 3939 	.db #0xFF
   0CDB FF                 3940 	.db #0xFF
   0CDC FF                 3941 	.db #0xFF
   0CDD EF                 3942 	.db #0xEF
   0CDE FF                 3943 	.db #0xFF
   0CDF FF                 3944 	.db #0xFF
   0CE0 FF                 3945 	.db #0xFF
   0CE1 FF                 3946 	.db #0xFF
   0CE2 FF                 3947 	.db #0xFF
   0CE3 FF                 3948 	.db #0xFF
   0CE4 FF                 3949 	.db #0xFF
   0CE5 FF                 3950 	.db #0xFF
   0CE6 FF                 3951 	.db #0xFF
   0CE7 FF                 3952 	.db #0xFF
   0CE8 FF                 3953 	.db #0xFF
   0CE9 FF                 3954 	.db #0xFF
   0CEA FF                 3955 	.db #0xFF
   0CEB FF                 3956 	.db #0xFF
   0CEC FF                 3957 	.db #0xFF
   0CED DF                 3958 	.db #0xDF
   0CEE FF                 3959 	.db #0xFF
   0CEF FF                 3960 	.db #0xFF
   0CF0 FF                 3961 	.db #0xFF
   0CF1 FF                 3962 	.db #0xFF
   0CF2 FF                 3963 	.db #0xFF
   0CF3 FF                 3964 	.db #0xFF
   0CF4 FF                 3965 	.db #0xFF
   0CF5 FB                 3966 	.db #0xFB
   0CF6 FF                 3967 	.db #0xFF
   0CF7 FF                 3968 	.db #0xFF
   0CF8 FF                 3969 	.db #0xFF
   0CF9 FF                 3970 	.db #0xFF
   0CFA FF                 3971 	.db #0xFF
   0CFB FF                 3972 	.db #0xFF
   0CFC FF                 3973 	.db #0xFF
   0CFD FF                 3974 	.db #0xFF
   0CFE FF                 3975 	.db #0xFF
   0CFF FF                 3976 	.db #0xFF
   0D00 FF                 3977 	.db #0xFF
   0D01 FF                 3978 	.db #0xFF
   0D02 FF                 3979 	.db #0xFF
   0D03 FF                 3980 	.db #0xFF
   0D04 FF                 3981 	.db #0xFF
   0D05 FF                 3982 	.db #0xFF
   0D06 FF                 3983 	.db #0xFF
   0D07 FF                 3984 	.db #0xFF
   0D08 FF                 3985 	.db #0xFF
   0D09 FF                 3986 	.db #0xFF
   0D0A FF                 3987 	.db #0xFF
   0D0B FF                 3988 	.db #0xFF
   0D0C FF                 3989 	.db #0xFF
   0D0D FF                 3990 	.db #0xFF
   0D0E F7                 3991 	.db #0xF7
   0D0F F7                 3992 	.db #0xF7
   0D10 FF                 3993 	.db #0xFF
   0D11 FF                 3994 	.db #0xFF
   0D12 FF                 3995 	.db #0xFF
   0D13 FF                 3996 	.db #0xFF
   0D14 FF                 3997 	.db #0xFF
   0D15 FF                 3998 	.db #0xFF
   0D16 FF                 3999 	.db #0xFF
   0D17 FF                 4000 	.db #0xFF
   0D18 FF                 4001 	.db #0xFF
   0D19 FF                 4002 	.db #0xFF
   0D1A FF                 4003 	.db #0xFF
   0D1B DF                 4004 	.db #0xDF
   0D1C FF                 4005 	.db #0xFF
   0D1D FF                 4006 	.db #0xFF
   0D1E FF                 4007 	.db #0xFF
   0D1F FF                 4008 	.db #0xFF
   0D20 FF                 4009 	.db #0xFF
   0D21 FF                 4010 	.db #0xFF
   0D22 FF                 4011 	.db #0xFF
   0D23 FF                 4012 	.db #0xFF
   0D24 FF                 4013 	.db #0xFF
   0D25 FF                 4014 	.db #0xFF
   0D26 FF                 4015 	.db #0xFF
   0D27 FF                 4016 	.db #0xFF
   0D28 FF                 4017 	.db #0xFF
   0D29 FF                 4018 	.db #0xFF
   0D2A FF                 4019 	.db #0xFF
   0D2B FF                 4020 	.db #0xFF
   0D2C FF                 4021 	.db #0xFF
   0D2D FF                 4022 	.db #0xFF
   0D2E FF                 4023 	.db #0xFF
   0D2F FF                 4024 	.db #0xFF
   0D30 FF                 4025 	.db #0xFF
   0D31 7F                 4026 	.db #0x7F
   0D32 FF                 4027 	.db #0xFF
   0D33 FF                 4028 	.db #0xFF
   0D34 FF                 4029 	.db #0xFF
   0D35 FF                 4030 	.db #0xFF
   0D36 FF                 4031 	.db #0xFF
   0D37 FF                 4032 	.db #0xFF
   0D38 FF                 4033 	.db #0xFF
   0D39 FF                 4034 	.db #0xFF
   0D3A FF                 4035 	.db #0xFF
   0D3B F7                 4036 	.db #0xF7
   0D3C FF                 4037 	.db #0xFF
   0D3D FF                 4038 	.db #0xFF
   0D3E FF                 4039 	.db #0xFF
   0D3F FF                 4040 	.db #0xFF
   0D40 FF                 4041 	.db #0xFF
   0D41 FF                 4042 	.db #0xFF
   0D42 FF                 4043 	.db #0xFF
   0D43 FF                 4044 	.db #0xFF
   0D44 DF                 4045 	.db #0xDF
   0D45 FF                 4046 	.db #0xFF
   0D46 EF                 4047 	.db #0xEF
   0D47 FF                 4048 	.db #0xFF
   0D48 FF                 4049 	.db #0xFF
   0D49 F7                 4050 	.db #0xF7
   0D4A FF                 4051 	.db #0xFF
   0D4B FB                 4052 	.db #0xFB
   0D4C FF                 4053 	.db #0xFF
   0D4D FD                 4054 	.db #0xFD
   0D4E FF                 4055 	.db #0xFF
   0D4F FE                 4056 	.db #0xFE
   0D50 FE                 4057 	.db #0xFE
   0D51 FF                 4058 	.db #0xFF
   0D52 FF                 4059 	.db #0xFF
   0D53 FF                 4060 	.db #0xFF
   0D54 FF                 4061 	.db #0xFF
   0D55 FF                 4062 	.db #0xFF
   0D56 F7                 4063 	.db #0xF7
   0D57 FF                 4064 	.db #0xFF
   0D58 FF                 4065 	.db #0xFF
   0D59 FF                 4066 	.db #0xFF
   0D5A FF                 4067 	.db #0xFF
   0D5B FF                 4068 	.db #0xFF
   0D5C FF                 4069 	.db #0xFF
   0D5D FF                 4070 	.db #0xFF
   0D5E 7D                 4071 	.db #0x7D
   0D5F FE                 4072 	.db #0xFE
   0D60 7C                 4073 	.db #0x7C
   0D61 39                 4074 	.db #0x39
   0D62 FF                 4075 	.db #0xFF
   0D63 FF                 4076 	.db #0xFF
   0D64 F7                 4077 	.db #0xF7
   0D65 FF                 4078 	.db #0xFF
   0D66 EF                 4079 	.db #0xEF
   0D67 FF                 4080 	.db #0xFF
   0D68 FF                 4081 	.db #0xFF
   0D69 DF                 4082 	.db #0xDF
   0D6A FF                 4083 	.db #0xFF
   0D6B BF                 4084 	.db #0xBF
   0D6C FF                 4085 	.db #0xFF
   0D6D 7F                 4086 	.db #0x7F
   0D6E FF                 4087 	.db #0xFF
   0D6F FF                 4088 	.db #0xFF
   0D70 FF                 4089 	.db #0xFF
   0D71 FF                 4090 	.db #0xFF
   0D72 FF                 4091 	.db #0xFF
   0D73 FF                 4092 	.db #0xFF
   0D74 FF                 4093 	.db #0xFF
   0D75 FF                 4094 	.db #0xFF
   0D76 FF                 4095 	.db #0xFF
   0D77 FF                 4096 	.db #0xFF
   0D78 FF                 4097 	.db #0xFF
   0D79 FF                 4098 	.db #0xFF
   0D7A FF                 4099 	.db #0xFF
   0D7B FF                 4100 	.db #0xFF
   0D7C DF                 4101 	.db #0xDF
   0D7D FF                 4102 	.db #0xFF
   0D7E FF                 4103 	.db #0xFF
   0D7F FF                 4104 	.db #0xFF
   0D80 FF                 4105 	.db #0xFF
   0D81 FF                 4106 	.db #0xFF
   0D82 FF                 4107 	.db #0xFF
   0D83 FF                 4108 	.db #0xFF
   0D84 FF                 4109 	.db #0xFF
   0D85 FF                 4110 	.db #0xFF
   0D86 FF                 4111 	.db #0xFF
   0D87 FF                 4112 	.db #0xFF
   0D88 FF                 4113 	.db #0xFF
   0D89 FF                 4114 	.db #0xFF
   0D8A FF                 4115 	.db #0xFF
   0D8B FF                 4116 	.db #0xFF
   0D8C FE                 4117 	.db #0xFE
   0D8D FF                 4118 	.db #0xFF
   0D8E FF                 4119 	.db #0xFF
   0D8F FE                 4120 	.db #0xFE
   0D90 FF                 4121 	.db #0xFF
   0D91 FD                 4122 	.db #0xFD
   0D92 BB                 4123 	.db #0xBB
   0D93 01                 4124 	.db #0x01
   0D94 C7                 4125 	.db #0xC7
   0D95 83                 4126 	.db #0x83
   0D96 C7                 4127 	.db #0xC7
   0D97 83                 4128 	.db #0x83
   0D98 C7                 4129 	.db #0xC7
   0D99 83                 4130 	.db #0x83
   0D9A BB                 4131 	.db #0xBB
   0D9B 01                 4132 	.db #0x01
   0D9C 7C                 4133 	.db #0x7C
   0D9D 39                 4134 	.db #0x39
   0D9E 7D                 4135 	.db #0x7D
   0D9F FE                 4136 	.db #0xFE
   0DA0 FF                 4137 	.db #0xFF
   0DA1 FF                 4138 	.db #0xFF
   0DA2 FF                 4139 	.db #0xFF
   0DA3 FF                 4140 	.db #0xFF
   0DA4 FF                 4141 	.db #0xFF
   0DA5 FF                 4142 	.db #0xFF
   0DA6 FF                 4143 	.db #0xFF
   0DA7 FF                 4144 	.db #0xFF
   0DA8 FF                 4145 	.db #0xFF
   0DA9 FF                 4146 	.db #0xFF
   0DAA FF                 4147 	.db #0xFF
   0DAB FD                 4148 	.db #0xFD
   0DAC FF                 4149 	.db #0xFF
   0DAD FF                 4150 	.db #0xFF
   0DAE FF                 4151 	.db #0xFF
   0DAF FF                 4152 	.db #0xFF
   0DB0 FF                 4153 	.db #0xFF
   0DB1 7F                 4154 	.db #0x7F
   0DB2 FF                 4155 	.db #0xFF
   0DB3 FF                 4156 	.db #0xFF
   0DB4 FF                 4157 	.db #0xFF
   0DB5 FF                 4158 	.db #0xFF
   0DB6 FD                 4159 	.db #0xFD
   0DB7 FF                 4160 	.db #0xFF
   0DB8 FF                 4161 	.db #0xFF
   0DB9 FE                 4162 	.db #0xFE
   0DBA FF                 4163 	.db #0xFF
   0DBB FF                 4164 	.db #0xFF
   0DBC FF                 4165 	.db #0xFF
   0DBD 7F                 4166 	.db #0x7F
   0DBE FF                 4167 	.db #0xFF
   0DBF FF                 4168 	.db #0xFF
   0DC0 FF                 4169 	.db #0xFF
   0DC1 FF                 4170 	.db #0xFF
   0DC2 FF                 4171 	.db #0xFF
   0DC3 FF                 4172 	.db #0xFF
   0DC4 FF                 4173 	.db #0xFF
   0DC5 FF                 4174 	.db #0xFF
   0DC6 FD                 4175 	.db #0xFD
   0DC7 FF                 4176 	.db #0xFF
   0DC8 FF                 4177 	.db #0xFF
   0DC9 FB                 4178 	.db #0xFB
   0DCA AF                 4179 	.db #0xAF
   0DCB 77                 4180 	.db #0x77
   0DCC 27                 4181 	.db #0x27
   0DCD 8F                 4182 	.db #0x8F
   0DCE DF                 4183 	.db #0xDF
   0DCF 8F                 4184 	.db #0x8F
   0DD0 27                 4185 	.db #0x27
   0DD1 8F                 4186 	.db #0x8F
   0DD2 FF                 4187 	.db #0xFF
   0DD3 FF                 4188 	.db #0xFF
   0DD4 FF                 4189 	.db #0xFF
   0DD5 FE                 4190 	.db #0xFE
   0DD6 FF                 4191 	.db #0xFF
   0DD7 FF                 4192 	.db #0xFF
   0DD8 FF                 4193 	.db #0xFF
   0DD9 FF                 4194 	.db #0xFF
   0DDA FF                 4195 	.db #0xFF
   0DDB FF                 4196 	.db #0xFF
   0DDC FF                 4197 	.db #0xFF
   0DDD FF                 4198 	.db #0xFF
   0DDE FF                 4199 	.db #0xFF
   0DDF FF                 4200 	.db #0xFF
   0DE0 FF                 4201 	.db #0xFF
   0DE1 FF                 4202 	.db #0xFF
   0DE2 FF                 4203 	.db #0xFF
   0DE3 FB                 4204 	.db #0xFB
   0DE4 FF                 4205 	.db #0xFF
   0DE5 F7                 4206 	.db #0xF7
   0DE6 EF                 4207 	.db #0xEF
   0DE7 FF                 4208 	.db #0xFF
   0DE8 DF                 4209 	.db #0xDF
   0DE9 FF                 4210 	.db #0xFF
   0DEA FF                 4211 	.db #0xFF
   0DEB FF                 4212 	.db #0xFF
   0DEC FF                 4213 	.db #0xFF
   0DED FF                 4214 	.db #0xFF
   0DEE FF                 4215 	.db #0xFF
   0DEF FF                 4216 	.db #0xFF
   0DF0 FF                 4217 	.db #0xFF
   0DF1 FF                 4218 	.db #0xFF
   0DF2 FF                 4219 	.db #0xFF
   0DF3 FF                 4220 	.db #0xFF
   0DF4 FF                 4221 	.db #0xFF
   0DF5 FF                 4222 	.db #0xFF
   0DF6 FF                 4223 	.db #0xFF
   0DF7 FF                 4224 	.db #0xFF
   0DF8 7F                 4225 	.db #0x7F
   0DF9 FF                 4226 	.db #0xFF
   0DFA FF                 4227 	.db #0xFF
   0DFB FB                 4228 	.db #0xFB
   0DFC FF                 4229 	.db #0xFF
   0DFD FF                 4230 	.db #0xFF
   0DFE FF                 4231 	.db #0xFF
   0DFF FF                 4232 	.db #0xFF
   0E00 FF                 4233 	.db #0xFF
   0E01 FF                 4234 	.db #0xFF
   0E02 FF                 4235 	.db #0xFF
   0E03 BF                 4236 	.db #0xBF
   0E04 FF                 4237 	.db #0xFF
   0E05 DF                 4238 	.db #0xDF
   0E06 EF                 4239 	.db #0xEF
   0E07 FF                 4240 	.db #0xFF
   0E08 F7                 4241 	.db #0xF7
   0E09 FF                 4242 	.db #0xFF
   0E0A FF                 4243 	.db #0xFF
   0E0B FF                 4244 	.db #0xFF
   0E0C FF                 4245 	.db #0xFF
   0E0D FF                 4246 	.db #0xFF
   0E0E FF                 4247 	.db #0xFF
   0E0F FF                 4248 	.db #0xFF
   0E10 FF                 4249 	.db #0xFF
   0E11 FF                 4250 	.db #0xFF
   0E12 FF                 4251 	.db #0xFF
   0E13 FF                 4252 	.db #0xFF
   0E14 FF                 4253 	.db #0xFF
   0E15 FF                 4254 	.db #0xFF
   0E16 FF                 4255 	.db #0xFF
   0E17 FF                 4256 	.db #0xFF
   0E18 FF                 4257 	.db #0xFF
   0E19 FF                 4258 	.db #0xFF
   0E1A FF                 4259 	.db #0xFF
   0E1B FD                 4260 	.db #0xFD
   0E1C FF                 4261 	.db #0xFF
   0E1D FF                 4262 	.db #0xFF
   0E1E FF                 4263 	.db #0xFF
   0E1F FF                 4264 	.db #0xFF
   0E20 FF                 4265 	.db #0xFF
   0E21 FF                 4266 	.db #0xFF
   0E22 FF                 4267 	.db #0xFF
   0E23 FF                 4268 	.db #0xFF
   0E24 FF                 4269 	.db #0xFF
   0E25 FE                 4270 	.db #0xFE
   0E26 FD                 4271 	.db #0xFD
   0E27 FF                 4272 	.db #0xFF
   0E28 FF                 4273 	.db #0xFF
   0E29 FF                 4274 	.db #0xFF
   0E2A FF                 4275 	.db #0xFF
   0E2B FF                 4276 	.db #0xFF
   0E2C FF                 4277 	.db #0xFF
   0E2D FF                 4278 	.db #0xFF
   0E2E FF                 4279 	.db #0xFF
   0E2F FF                 4280 	.db #0xFF
   0E30 FF                 4281 	.db #0xFF
   0E31 FF                 4282 	.db #0xFF
   0E32 AF                 4283 	.db #0xAF
   0E33 77                 4284 	.db #0x77
   0E34 FF                 4285 	.db #0xFF
   0E35 FB                 4286 	.db #0xFB
   0E36 FD                 4287 	.db #0xFD
   0E37 FF                 4288 	.db #0xFF
   0E38 FF                 4289 	.db #0xFF
   0E39 FF                 4290 	.db #0xFF
   0E3A FF                 4291 	.db #0xFF
   0E3B FF                 4292 	.db #0xFF
   0E3C FF                 4293 	.db #0xFF
   0E3D FF                 4294 	.db #0xFF
   0E3E FF                 4295 	.db #0xFF
   0E3F FF                 4296 	.db #0xFF
   0E40 FF                 4297 	.db #0xFF
   0E41 FF                 4298 	.db #0xFF
   0E42 FF                 4299 	.db #0xFF
   0E43 FF                 4300 	.db #0xFF
   0E44 FF                 4301 	.db #0xFF
   0E45 FD                 4302 	.db #0xFD
   0E46 FF                 4303 	.db #0xFF
   0E47 FF                 4304 	.db #0xFF
   0E48 FF                 4305 	.db #0xFF
   0E49 FF                 4306 	.db #0xFF
   0E4A FF                 4307 	.db #0xFF
   0E4B FF                 4308 	.db #0xFF
   0E4C FF                 4309 	.db #0xFF
   0E4D FF                 4310 	.db #0xFF
   0E4E FF                 4311 	.db #0xFF
   0E4F FF                 4312 	.db #0xFF
   0E50 FB                 4313 	.db #0xFB
   0E51 FF                 4314 	.db #0xFF
   0E52 FF                 4315 	.db #0xFF
   0E53 FF                 4316 	.db #0xFF
   0E54 FF                 4317 	.db #0xFF
   0E55 FF                 4318 	.db #0xFF
   0E56 FE                 4319 	.db #0xFE
   0E57 FF                 4320 	.db #0xFF
   0E58 FF                 4321 	.db #0xFF
   0E59 FF                 4322 	.db #0xFF
   0E5A FF                 4323 	.db #0xFF
   0E5B FF                 4324 	.db #0xFF
   0E5C FF                 4325 	.db #0xFF
   0E5D FF                 4326 	.db #0xFF
   0E5E FF                 4327 	.db #0xFF
   0E5F 7F                 4328 	.db #0x7F
   0E60 FF                 4329 	.db #0xFF
   0E61 FF                 4330 	.db #0xFF
   0E62 FF                 4331 	.db #0xFF
   0E63 FF                 4332 	.db #0xFF
   0E64 FF                 4333 	.db #0xFF
   0E65 FF                 4334 	.db #0xFF
   0E66 FF                 4335 	.db #0xFF
   0E67 FF                 4336 	.db #0xFF
   0E68 FF                 4337 	.db #0xFF
   0E69 FF                 4338 	.db #0xFF
   0E6A FF                 4339 	.db #0xFF
   0E6B FF                 4340 	.db #0xFF
   0E6C F7                 4341 	.db #0xF7
   0E6D FF                 4342 	.db #0xFF
   0E6E FF                 4343 	.db #0xFF
   0E6F FF                 4344 	.db #0xFF
   0E70 FF                 4345 	.db #0xFF
   0E71 FF                 4346 	.db #0xFF
   0E72 FF                 4347 	.db #0xFF
   0E73 FF                 4348 	.db #0xFF
   0E74 FF                 4349 	.db #0xFF
   0E75 FF                 4350 	.db #0xFF
   0E76 FF                 4351 	.db #0xFF
   0E77 FB                 4352 	.db #0xFB
   0E78 FF                 4353 	.db #0xFF
   0E79 FF                 4354 	.db #0xFF
   0E7A FF                 4355 	.db #0xFF
   0E7B FF                 4356 	.db #0xFF
   0E7C FF                 4357 	.db #0xFF
   0E7D FF                 4358 	.db #0xFF
   0E7E FF                 4359 	.db #0xFF
   0E7F FF                 4360 	.db #0xFF
   0E80 FE                 4361 	.db #0xFE
   0E81 FF                 4362 	.db #0xFF
   0E82 FF                 4363 	.db #0xFF
   0E83 FF                 4364 	.db #0xFF
   0E84 FF                 4365 	.db #0xFF
   0E85 FF                 4366 	.db #0xFF
   0E86 FF                 4367 	.db #0xFF
   0E87 FF                 4368 	.db #0xFF
   0E88 FF                 4369 	.db #0xFF
   0E89 FF                 4370 	.db #0xFF
   0E8A FF                 4371 	.db #0xFF
   0E8B FF                 4372 	.db #0xFF
   0E8C FE                 4373 	.db #0xFE
   0E8D FF                 4374 	.db #0xFF
   0E8E 7D                 4375 	.db #0x7D
   0E8F FE                 4376 	.db #0xFE
   0E90 7C                 4377 	.db #0x7C
   0E91 39                 4378 	.db #0x39
   0E92 FF                 4379 	.db #0xFF
   0E93 FF                 4380 	.db #0xFF
   0E94 F7                 4381 	.db #0xF7
   0E95 FF                 4382 	.db #0xFF
   0E96 EF                 4383 	.db #0xEF
   0E97 FF                 4384 	.db #0xFF
   0E98 FF                 4385 	.db #0xFF
   0E99 DF                 4386 	.db #0xDF
   0E9A FF                 4387 	.db #0xFF
   0E9B BF                 4388 	.db #0xBF
   0E9C FF                 4389 	.db #0xFF
   0E9D 7F                 4390 	.db #0x7F
   0E9E 7F                 4391 	.db #0x7F
   0E9F FF                 4392 	.db #0xFF
   0EA0 FF                 4393 	.db #0xFF
   0EA1 FF                 4394 	.db #0xFF
   0EA2 FF                 4395 	.db #0xFF
   0EA3 FF                 4396 	.db #0xFF
   0EA4 FF                 4397 	.db #0xFF
   0EA5 FF                 4398 	.db #0xFF
   0EA6 FF                 4399 	.db #0xFF
   0EA7 FF                 4400 	.db #0xFF
   0EA8 BF                 4401 	.db #0xBF
   0EA9 FF                 4402 	.db #0xFF
   0EAA FF                 4403 	.db #0xFF
   0EAB FF                 4404 	.db #0xFF
   0EAC FF                 4405 	.db #0xFF
   0EAD FF                 4406 	.db #0xFF
   0EAE FD                 4407 	.db #0xFD
   0EAF FF                 4408 	.db #0xFF
   0EB0 FF                 4409 	.db #0xFF
   0EB1 FF                 4410 	.db #0xFF
   0EB2 FF                 4411 	.db #0xFF
   0EB3 FF                 4412 	.db #0xFF
   0EB4 FF                 4413 	.db #0xFF
   0EB5 FF                 4414 	.db #0xFF
   0EB6 FF                 4415 	.db #0xFF
   0EB7 EF                 4416 	.db #0xEF
   0EB8 FF                 4417 	.db #0xFF
   0EB9 FF                 4418 	.db #0xFF
   0EBA FF                 4419 	.db #0xFF
   0EBB FF                 4420 	.db #0xFF
   0EBC FF                 4421 	.db #0xFF
   0EBD FF                 4422 	.db #0xFF
   0EBE FF                 4423 	.db #0xFF
   0EBF FF                 4424 	.db #0xFF
   0EC0 FF                 4425 	.db #0xFF
   0EC1 FF                 4426 	.db #0xFF
   0EC2 FF                 4427 	.db #0xFF
   0EC3 FF                 4428 	.db #0xFF
   0EC4 FF                 4429 	.db #0xFF
   0EC5 FF                 4430 	.db #0xFF
   0EC6 FF                 4431 	.db #0xFF
   0EC7 FF                 4432 	.db #0xFF
   0EC8 FF                 4433 	.db #0xFF
   0EC9 FF                 4434 	.db #0xFF
   0ECA FF                 4435 	.db #0xFF
   0ECB FF                 4436 	.db #0xFF
   0ECC FF                 4437 	.db #0xFF
   0ECD FF                 4438 	.db #0xFF
   0ECE FF                 4439 	.db #0xFF
   0ECF FF                 4440 	.db #0xFF
   0ED0 7F                 4441 	.db #0x7F
   0ED1 FD                 4442 	.db #0xFD
   0ED2 FF                 4443 	.db #0xFF
   0ED3 FF                 4444 	.db #0xFF
   0ED4 DF                 4445 	.db #0xDF
   0ED5 FF                 4446 	.db #0xFF
   0ED6 EF                 4447 	.db #0xEF
   0ED7 FF                 4448 	.db #0xFF
   0ED8 FF                 4449 	.db #0xFF
   0ED9 F7                 4450 	.db #0xF7
   0EDA FF                 4451 	.db #0xFF
   0EDB FB                 4452 	.db #0xFB
   0EDC FE                 4453 	.db #0xFE
   0EDD FD                 4454 	.db #0xFD
   0EDE FD                 4455 	.db #0xFD
   0EDF FE                 4456 	.db #0xFE
   0EE0 FE                 4457 	.db #0xFE
   0EE1 FF                 4458 	.db #0xFF
   0EE2 AB                 4459 	.db #0xAB
   0EE3 11                 4460 	.db #0x11
   0EE4 C7                 4461 	.db #0xC7
   0EE5 83                 4462 	.db #0x83
   0EE6 83                 4463 	.db #0x83
   0EE7 C7                 4464 	.db #0xC7
   0EE8 C7                 4465 	.db #0xC7
   0EE9 83                 4466 	.db #0x83
   0EEA AB                 4467 	.db #0xAB
   0EEB 11                 4468 	.db #0x11
   0EEC 7C                 4469 	.db #0x7C
   0EED 39                 4470 	.db #0x39
   0EEE 7D                 4471 	.db #0x7D
   0EEF FE                 4472 	.db #0xFE
   0EF0 FE                 4473 	.db #0xFE
   0EF1 FF                 4474 	.db #0xFF
   0EF2 FF                 4475 	.db #0xFF
   0EF3 FF                 4476 	.db #0xFF
   0EF4 FF                 4477 	.db #0xFF
   0EF5 FF                 4478 	.db #0xFF
   0EF6 FB                 4479 	.db #0xFB
   0EF7 DF                 4480 	.db #0xDF
   0EF8 FF                 4481 	.db #0xFF
   0EF9 FF                 4482 	.db #0xFF
   0EFA FF                 4483 	.db #0xFF
   0EFB FF                 4484 	.db #0xFF
   0EFC FF                 4485 	.db #0xFF
   0EFD FF                 4486 	.db #0xFF
   0EFE 7F                 4487 	.db #0x7F
   0EFF FF                 4488 	.db #0xFF
   0F00 FF                 4489 	.db #0xFF
   0F01 7F                 4490 	.db #0x7F
   0F02 FB                 4491 	.db #0xFB
   0F03 FF                 4492 	.db #0xFF
   0F04 FF                 4493 	.db #0xFF
   0F05 FD                 4494 	.db #0xFD
   0F06 FE                 4495 	.db #0xFE
   0F07 FE                 4496 	.db #0xFE
   0F08 FE                 4497 	.db #0xFE
   0F09 FF                 4498 	.db #0xFF
   0F0A FE                 4499 	.db #0xFE
   0F0B FE                 4500 	.db #0xFE
   0F0C FF                 4501 	.db #0xFF
   0F0D FD                 4502 	.db #0xFD
   0F0E FB                 4503 	.db #0xFB
   0F0F FF                 4504 	.db #0xFF
   0F10 FF                 4505 	.db #0xFF
   0F11 FF                 4506 	.db #0xFF
   0F12 EF                 4507 	.db #0xEF
   0F13 FF                 4508 	.db #0xFF
   0F14 FF                 4509 	.db #0xFF
   0F15 DF                 4510 	.db #0xDF
   0F16 3F                 4511 	.db #0x3F
   0F17 BF                 4512 	.db #0xBF
   0F18 3F                 4513 	.db #0x3F
   0F19 7F                 4514 	.db #0x7F
   0F1A 3F                 4515 	.db #0x3F
   0F1B BF                 4516 	.db #0xBF
   0F1C FF                 4517 	.db #0xFF
   0F1D DF                 4518 	.db #0xDF
   0F1E EF                 4519 	.db #0xEF
   0F1F FF                 4520 	.db #0xFF
   0F20 FF                 4521 	.db #0xFF
   0F21 FF                 4522 	.db #0xFF
   0F22 FF                 4523 	.db #0xFF
   0F23 FF                 4524 	.db #0xFF
   0F24 FF                 4525 	.db #0xFF
   0F25 FF                 4526 	.db #0xFF
   0F26 FF                 4527 	.db #0xFF
   0F27 FF                 4528 	.db #0xFF
   0F28 FF                 4529 	.db #0xFF
   0F29 FF                 4530 	.db #0xFF
   0F2A FF                 4531 	.db #0xFF
   0F2B FF                 4532 	.db #0xFF
   0F2C EF                 4533 	.db #0xEF
   0F2D FB                 4534 	.db #0xFB
   0F2E FF                 4535 	.db #0xFF
   0F2F FF                 4536 	.db #0xFF
   0F30 FF                 4537 	.db #0xFF
   0F31 FF                 4538 	.db #0xFF
   0F32 FF                 4539 	.db #0xFF
   0F33 FF                 4540 	.db #0xFF
   0F34 FF                 4541 	.db #0xFF
   0F35 FF                 4542 	.db #0xFF
   0F36 FF                 4543 	.db #0xFF
   0F37 FF                 4544 	.db #0xFF
   0F38 FF                 4545 	.db #0xFF
   0F39 FF                 4546 	.db #0xFF
   0F3A FF                 4547 	.db #0xFF
   0F3B FF                 4548 	.db #0xFF
   0F3C FE                 4549 	.db #0xFE
   0F3D FF                 4550 	.db #0xFF
   0F3E FD                 4551 	.db #0xFD
   0F3F FE                 4552 	.db #0xFE
   0F40 FE                 4553 	.db #0xFE
   0F41 FD                 4554 	.db #0xFD
   0F42 FF                 4555 	.db #0xFF
   0F43 FF                 4556 	.db #0xFF
   0F44 FF                 4557 	.db #0xFF
   0F45 FF                 4558 	.db #0xFF
   0F46 FF                 4559 	.db #0xFF
   0F47 FF                 4560 	.db #0xFF
   0F48 FF                 4561 	.db #0xFF
   0F49 FF                 4562 	.db #0xFF
   0F4A FF                 4563 	.db #0xFF
   0F4B FF                 4564 	.db #0xFF
   0F4C FF                 4565 	.db #0xFF
   0F4D FF                 4566 	.db #0xFF
   0F4E FF                 4567 	.db #0xFF
   0F4F FB                 4568 	.db #0xFB
   0F50 FF                 4569 	.db #0xFF
   0F51 FF                 4570 	.db #0xFF
   0F52 F7                 4571 	.db #0xF7
   0F53 FF                 4572 	.db #0xFF
   0F54 FB                 4573 	.db #0xFB
   0F55 FF                 4574 	.db #0xFF
   0F56 FF                 4575 	.db #0xFF
   0F57 FF                 4576 	.db #0xFF
   0F58 FF                 4577 	.db #0xFF
   0F59 FF                 4578 	.db #0xFF
   0F5A FF                 4579 	.db #0xFF
   0F5B FF                 4580 	.db #0xFF
   0F5C FF                 4581 	.db #0xFF
   0F5D FF                 4582 	.db #0xFF
   0F5E FF                 4583 	.db #0xFF
   0F5F FF                 4584 	.db #0xFF
   0F60 FF                 4585 	.db #0xFF
   0F61 FF                 4586 	.db #0xFF
   0F62 FF                 4587 	.db #0xFF
   0F63 FF                 4588 	.db #0xFF
   0F64 FF                 4589 	.db #0xFF
   0F65 FF                 4590 	.db #0xFF
   0F66 FF                 4591 	.db #0xFF
   0F67 BF                 4592 	.db #0xBF
   0F68 FF                 4593 	.db #0xFF
   0F69 FF                 4594 	.db #0xFF
   0F6A FF                 4595 	.db #0xFF
   0F6B FF                 4596 	.db #0xFF
   0F6C FF                 4597 	.db #0xFF
   0F6D FF                 4598 	.db #0xFF
   0F6E FF                 4599 	.db #0xFF
   0F6F FF                 4600 	.db #0xFF
   0F70 FF                 4601 	.db #0xFF
   0F71 FF                 4602 	.db #0xFF
   0F72 FF                 4603 	.db #0xFF
   0F73 FF                 4604 	.db #0xFF
   0F74 FF                 4605 	.db #0xFF
   0F75 FF                 4606 	.db #0xFF
   0F76 FF                 4607 	.db #0xFF
   0F77 FF                 4608 	.db #0xFF
   0F78 FF                 4609 	.db #0xFF
   0F79 FF                 4610 	.db #0xFF
   0F7A FF                 4611 	.db #0xFF
   0F7B FE                 4612 	.db #0xFE
   0F7C FE                 4613 	.db #0xFE
   0F7D FF                 4614 	.db #0xFF
   0F7E FF                 4615 	.db #0xFF
   0F7F FF                 4616 	.db #0xFF
   0F80 FF                 4617 	.db #0xFF
   0F81 FF                 4618 	.db #0xFF
   0F82 FF                 4619 	.db #0xFF
   0F83 FF                 4620 	.db #0xFF
   0F84 FF                 4621 	.db #0xFF
   0F85 FF                 4622 	.db #0xFF
   0F86 FF                 4623 	.db #0xFF
   0F87 FF                 4624 	.db #0xFF
   0F88 FF                 4625 	.db #0xFF
   0F89 FD                 4626 	.db #0xFD
   0F8A FF                 4627 	.db #0xFF
   0F8B FF                 4628 	.db #0xFF
   0F8C FF                 4629 	.db #0xFF
   0F8D FF                 4630 	.db #0xFF
   0F8E FF                 4631 	.db #0xFF
   0F8F FF                 4632 	.db #0xFF
   0F90 FF                 4633 	.db #0xFF
   0F91 FF                 4634 	.db #0xFF
   0F92 FF                 4635 	.db #0xFF
   0F93 FF                 4636 	.db #0xFF
   0F94 FF                 4637 	.db #0xFF
   0F95 FF                 4638 	.db #0xFF
   0F96 7F                 4639 	.db #0x7F
   0F97 FF                 4640 	.db #0xFF
   0F98 FF                 4641 	.db #0xFF
   0F99 FF                 4642 	.db #0xFF
   0F9A FF                 4643 	.db #0xFF
   0F9B FF                 4644 	.db #0xFF
   0F9C FF                 4645 	.db #0xFF
   0F9D FF                 4646 	.db #0xFF
   0F9E FF                 4647 	.db #0xFF
   0F9F FF                 4648 	.db #0xFF
   0FA0 FF                 4649 	.db #0xFF
   0FA1 FF                 4650 	.db #0xFF
   0FA2                    4651 _bkg_tiles:
   0FA2 00                 4652 	.db #0x00
   0FA3 01                 4653 	.db #0x01
   0FA4 02                 4654 	.db #0x02
   0FA5 03                 4655 	.db #0x03
   0FA6 FC                 4656 	.db #0xFC
   0FA7 FC                 4657 	.db #0xFC
   0FA8 04                 4658 	.db #0x04
   0FA9 FC                 4659 	.db #0xFC
   0FAA FC                 4660 	.db #0xFC
   0FAB 05                 4661 	.db #0x05
   0FAC 06                 4662 	.db #0x06
   0FAD FC                 4663 	.db #0xFC
   0FAE 07                 4664 	.db #0x07
   0FAF 08                 4665 	.db #0x08
   0FB0 09                 4666 	.db #0x09
   0FB1 0A                 4667 	.db #0x0A
   0FB2 FC                 4668 	.db #0xFC
   0FB3 FC                 4669 	.db #0xFC
   0FB4 FC                 4670 	.db #0xFC
   0FB5 02                 4671 	.db #0x02
   0FB6 0B                 4672 	.db #0x0B
   0FB7 0C                 4673 	.db #0x0C
   0FB8 0D                 4674 	.db #0x0D
   0FB9 FC                 4675 	.db #0xFC
   0FBA 0E                 4676 	.db #0x0E
   0FBB 0F                 4677 	.db #0x0F
   0FBC 10                 4678 	.db #0x10
   0FBD FC                 4679 	.db #0xFC
   0FBE 11                 4680 	.db #0x11
   0FBF 12                 4681 	.db #0x12
   0FC0 13                 4682 	.db #0x13
   0FC1 14                 4683 	.db #0x14
   0FC2 15                 4684 	.db #0x15
   0FC3 16                 4685 	.db #0x16
   0FC4 17                 4686 	.db #0x17
   0FC5 FC                 4687 	.db #0xFC
   0FC6 18                 4688 	.db #0x18
   0FC7 19                 4689 	.db #0x19
   0FC8 1A                 4690 	.db #0x1A
   0FC9 FC                 4691 	.db #0xFC
   0FCA 1B                 4692 	.db #0x1B
   0FCB 1C                 4693 	.db #0x1C
   0FCC 1D                 4694 	.db #0x1D
   0FCD FC                 4695 	.db #0xFC
   0FCE FC                 4696 	.db #0xFC
   0FCF 1E                 4697 	.db #0x1E
   0FD0 1F                 4698 	.db #0x1F
   0FD1 20                 4699 	.db #0x20
   0FD2 21                 4700 	.db #0x21
   0FD3 22                 4701 	.db #0x22
   0FD4 FC                 4702 	.db #0xFC
   0FD5 23                 4703 	.db #0x23
   0FD6 24                 4704 	.db #0x24
   0FD7 25                 4705 	.db #0x25
   0FD8 FC                 4706 	.db #0xFC
   0FD9 26                 4707 	.db #0x26
   0FDA 27                 4708 	.db #0x27
   0FDB 13                 4709 	.db #0x13
   0FDC 28                 4710 	.db #0x28
   0FDD 29                 4711 	.db #0x29
   0FDE 2A                 4712 	.db #0x2A
   0FDF 2B                 4713 	.db #0x2B
   0FE0 2C                 4714 	.db #0x2C
   0FE1 11                 4715 	.db #0x11
   0FE2                    4716 _earth_tiles:
   0FE2 00                 4717 	.db #0x00
   0FE3 02                 4718 	.db #0x02
   0FE4 04                 4719 	.db #0x04
   0FE5 06                 4720 	.db #0x06
   0FE6 08                 4721 	.db #0x08
   0FE7 0A                 4722 	.db #0x0A
   0FE8 0C                 4723 	.db #0x0C
   0FE9 0E                 4724 	.db #0x0E
   0FEA 10                 4725 	.db #0x10
   0FEB 12                 4726 	.db #0x12
   0FEC 14                 4727 	.db #0x14
   0FED 16                 4728 	.db #0x16
   0FEE 18                 4729 	.db #0x18
   0FEF 1A                 4730 	.db #0x1A
   0FF0                    4731 _frame_tiles:
   0FF0 80                 4732 	.db #0x80
   0FF1 81                 4733 	.db #0x81
   0FF2 FD                 4734 	.db #0xFD
   0FF3 82                 4735 	.db #0x82
   0FF4 83                 4736 	.db #0x83
   0FF5 81                 4737 	.db #0x81
   0FF6 FD                 4738 	.db #0xFD
   0FF7 82                 4739 	.db #0x82
   0FF8 83                 4740 	.db #0x83
   0FF9 81                 4741 	.db #0x81
   0FFA FD                 4742 	.db #0xFD
   0FFB 82                 4743 	.db #0x82
   0FFC 83                 4744 	.db #0x83
   0FFD 81                 4745 	.db #0x81
   0FFE FD                 4746 	.db #0xFD
   0FFF 84                 4747 	.db #0x84
   1000 85                 4748 	.db #0x85
   1001 86                 4749 	.db #0x86
   1002 87                 4750 	.db #0x87
   1003 88                 4751 	.db #0x88
   1004 89                 4752 	.db #0x89
   1005 8A                 4753 	.db #0x8A
   1006 87                 4754 	.db #0x87
   1007 88                 4755 	.db #0x88
   1008 89                 4756 	.db #0x89
   1009 8A                 4757 	.db #0x8A
   100A 87                 4758 	.db #0x87
   100B 88                 4759 	.db #0x88
   100C 89                 4760 	.db #0x89
   100D 8A                 4761 	.db #0x8A
   100E 8B                 4762 	.db #0x8B
   100F 8C                 4763 	.db #0x8C
   1010 FD                 4764 	.db #0xFD
   1011 8D                 4765 	.db #0x8D
   1012 FF                 4766 	.db #0xFF
   1013 FF                 4767 	.db #0xFF
   1014 FF                 4768 	.db #0xFF
   1015 FF                 4769 	.db #0xFF
   1016 FF                 4770 	.db #0xFF
   1017 FF                 4771 	.db #0xFF
   1018 FF                 4772 	.db #0xFF
   1019 FF                 4773 	.db #0xFF
   101A FF                 4774 	.db #0xFF
   101B FF                 4775 	.db #0xFF
   101C FF                 4776 	.db #0xFF
   101D FF                 4777 	.db #0xFF
   101E 8E                 4778 	.db #0x8E
   101F 8F                 4779 	.db #0x8F
   1020 82                 4780 	.db #0x82
   1021 8C                 4781 	.db #0x8C
   1022 FF                 4782 	.db #0xFF
   1023 FF                 4783 	.db #0xFF
   1024 FF                 4784 	.db #0xFF
   1025 FF                 4785 	.db #0xFF
   1026 FF                 4786 	.db #0xFF
   1027 FF                 4787 	.db #0xFF
   1028 FF                 4788 	.db #0xFF
   1029 FF                 4789 	.db #0xFF
   102A FF                 4790 	.db #0xFF
   102B FF                 4791 	.db #0xFF
   102C FF                 4792 	.db #0xFF
   102D FF                 4793 	.db #0xFF
   102E 85                 4794 	.db #0x85
   102F 90                 4795 	.db #0x90
   1030 8E                 4796 	.db #0x8E
   1031 8F                 4797 	.db #0x8F
   1032 FF                 4798 	.db #0xFF
   1033 FF                 4799 	.db #0xFF
   1034 FF                 4800 	.db #0xFF
   1035 FF                 4801 	.db #0xFF
   1036 FF                 4802 	.db #0xFF
   1037 FF                 4803 	.db #0xFF
   1038 FF                 4804 	.db #0xFF
   1039 FF                 4805 	.db #0xFF
   103A FF                 4806 	.db #0xFF
   103B FF                 4807 	.db #0xFF
   103C FF                 4808 	.db #0xFF
   103D FF                 4809 	.db #0xFF
   103E FD                 4810 	.db #0xFD
   103F 8D                 4811 	.db #0x8D
   1040 85                 4812 	.db #0x85
   1041 90                 4813 	.db #0x90
   1042 FF                 4814 	.db #0xFF
   1043 FF                 4815 	.db #0xFF
   1044 FF                 4816 	.db #0xFF
   1045 FF                 4817 	.db #0xFF
   1046 FF                 4818 	.db #0xFF
   1047 FF                 4819 	.db #0xFF
   1048 FF                 4820 	.db #0xFF
   1049 FF                 4821 	.db #0xFF
   104A FF                 4822 	.db #0xFF
   104B FF                 4823 	.db #0xFF
   104C FF                 4824 	.db #0xFF
   104D FF                 4825 	.db #0xFF
   104E 82                 4826 	.db #0x82
   104F 8C                 4827 	.db #0x8C
   1050 FD                 4828 	.db #0xFD
   1051 8D                 4829 	.db #0x8D
   1052 FF                 4830 	.db #0xFF
   1053 FF                 4831 	.db #0xFF
   1054 FF                 4832 	.db #0xFF
   1055 FF                 4833 	.db #0xFF
   1056 FF                 4834 	.db #0xFF
   1057 FF                 4835 	.db #0xFF
   1058 FF                 4836 	.db #0xFF
   1059 FF                 4837 	.db #0xFF
   105A FF                 4838 	.db #0xFF
   105B FF                 4839 	.db #0xFF
   105C FF                 4840 	.db #0xFF
   105D FF                 4841 	.db #0xFF
   105E 8E                 4842 	.db #0x8E
   105F 8F                 4843 	.db #0x8F
   1060 82                 4844 	.db #0x82
   1061 8C                 4845 	.db #0x8C
   1062 FF                 4846 	.db #0xFF
   1063 FF                 4847 	.db #0xFF
   1064 FF                 4848 	.db #0xFF
   1065 FF                 4849 	.db #0xFF
   1066 FF                 4850 	.db #0xFF
   1067 FF                 4851 	.db #0xFF
   1068 FF                 4852 	.db #0xFF
   1069 FF                 4853 	.db #0xFF
   106A FF                 4854 	.db #0xFF
   106B FF                 4855 	.db #0xFF
   106C FF                 4856 	.db #0xFF
   106D FF                 4857 	.db #0xFF
   106E 85                 4858 	.db #0x85
   106F 90                 4859 	.db #0x90
   1070 8E                 4860 	.db #0x8E
   1071 91                 4861 	.db #0x91
   1072 FD                 4862 	.db #0xFD
   1073 82                 4863 	.db #0x82
   1074 83                 4864 	.db #0x83
   1075 81                 4865 	.db #0x81
   1076 FD                 4866 	.db #0xFD
   1077 82                 4867 	.db #0x82
   1078 83                 4868 	.db #0x83
   1079 81                 4869 	.db #0x81
   107A FD                 4870 	.db #0xFD
   107B 82                 4871 	.db #0x82
   107C 83                 4872 	.db #0x83
   107D 81                 4873 	.db #0x81
   107E 92                 4874 	.db #0x92
   107F 8D                 4875 	.db #0x8D
   1080 93                 4876 	.db #0x93
   1081 8A                 4877 	.db #0x8A
   1082 87                 4878 	.db #0x87
   1083 88                 4879 	.db #0x88
   1084 89                 4880 	.db #0x89
   1085 8A                 4881 	.db #0x8A
   1086 87                 4882 	.db #0x87
   1087 88                 4883 	.db #0x88
   1088 89                 4884 	.db #0x89
   1089 8A                 4885 	.db #0x8A
   108A 87                 4886 	.db #0x87
   108B 88                 4887 	.db #0x88
   108C 89                 4888 	.db #0x89
   108D 8A                 4889 	.db #0x8A
   108E 87                 4890 	.db #0x87
   108F 94                 4891 	.db #0x94
   1090                    4892 _door1_tiles:
   1090 95                 4893 	.db #0x95
   1091 95                 4894 	.db #0x95
   1092 95                 4895 	.db #0x95
   1093 95                 4896 	.db #0x95
   1094 95                 4897 	.db #0x95
   1095 95                 4898 	.db #0x95
   1096 95                 4899 	.db #0x95
   1097 95                 4900 	.db #0x95
   1098 95                 4901 	.db #0x95
   1099 95                 4902 	.db #0x95
   109A 95                 4903 	.db #0x95
   109B 95                 4904 	.db #0x95
   109C 96                 4905 	.db #0x96
   109D 96                 4906 	.db #0x96
   109E 96                 4907 	.db #0x96
   109F 96                 4908 	.db #0x96
   10A0 96                 4909 	.db #0x96
   10A1 96                 4910 	.db #0x96
   10A2 96                 4911 	.db #0x96
   10A3 96                 4912 	.db #0x96
   10A4 96                 4913 	.db #0x96
   10A5 96                 4914 	.db #0x96
   10A6 96                 4915 	.db #0x96
   10A7 96                 4916 	.db #0x96
   10A8 97                 4917 	.db #0x97
   10A9 97                 4918 	.db #0x97
   10AA 97                 4919 	.db #0x97
   10AB 97                 4920 	.db #0x97
   10AC 97                 4921 	.db #0x97
   10AD 97                 4922 	.db #0x97
   10AE 97                 4923 	.db #0x97
   10AF 97                 4924 	.db #0x97
   10B0 97                 4925 	.db #0x97
   10B1 97                 4926 	.db #0x97
   10B2 97                 4927 	.db #0x97
   10B3 97                 4928 	.db #0x97
   10B4 95                 4929 	.db #0x95
   10B5 95                 4930 	.db #0x95
   10B6 95                 4931 	.db #0x95
   10B7 95                 4932 	.db #0x95
   10B8 95                 4933 	.db #0x95
   10B9 95                 4934 	.db #0x95
   10BA 95                 4935 	.db #0x95
   10BB 95                 4936 	.db #0x95
   10BC 95                 4937 	.db #0x95
   10BD 95                 4938 	.db #0x95
   10BE 95                 4939 	.db #0x95
   10BF 95                 4940 	.db #0x95
   10C0 96                 4941 	.db #0x96
   10C1 96                 4942 	.db #0x96
   10C2 96                 4943 	.db #0x96
   10C3 96                 4944 	.db #0x96
   10C4 96                 4945 	.db #0x96
   10C5 96                 4946 	.db #0x96
   10C6 96                 4947 	.db #0x96
   10C7 96                 4948 	.db #0x96
   10C8 96                 4949 	.db #0x96
   10C9 96                 4950 	.db #0x96
   10CA 96                 4951 	.db #0x96
   10CB 96                 4952 	.db #0x96
   10CC 97                 4953 	.db #0x97
   10CD 97                 4954 	.db #0x97
   10CE 97                 4955 	.db #0x97
   10CF 97                 4956 	.db #0x97
   10D0 97                 4957 	.db #0x97
   10D1 97                 4958 	.db #0x97
   10D2 97                 4959 	.db #0x97
   10D3 97                 4960 	.db #0x97
   10D4 97                 4961 	.db #0x97
   10D5 97                 4962 	.db #0x97
   10D6 97                 4963 	.db #0x97
   10D7 97                 4964 	.db #0x97
   10D8 FC                 4965 	.db #0xFC
   10D9 FC                 4966 	.db #0xFC
   10DA FC                 4967 	.db #0xFC
   10DB FC                 4968 	.db #0xFC
   10DC FC                 4969 	.db #0xFC
   10DD FC                 4970 	.db #0xFC
   10DE FC                 4971 	.db #0xFC
   10DF FC                 4972 	.db #0xFC
   10E0 FC                 4973 	.db #0xFC
   10E1 FC                 4974 	.db #0xFC
   10E2 FC                 4975 	.db #0xFC
   10E3 FC                 4976 	.db #0xFC
   10E4 FC                 4977 	.db #0xFC
   10E5 FC                 4978 	.db #0xFC
   10E6 FC                 4979 	.db #0xFC
   10E7 FC                 4980 	.db #0xFC
   10E8 FC                 4981 	.db #0xFC
   10E9 FC                 4982 	.db #0xFC
   10EA FC                 4983 	.db #0xFC
   10EB FC                 4984 	.db #0xFC
   10EC FC                 4985 	.db #0xFC
   10ED FC                 4986 	.db #0xFC
   10EE FC                 4987 	.db #0xFC
   10EF FC                 4988 	.db #0xFC
   10F0 FC                 4989 	.db #0xFC
   10F1 FC                 4990 	.db #0xFC
   10F2 FC                 4991 	.db #0xFC
   10F3 FC                 4992 	.db #0xFC
   10F4 FC                 4993 	.db #0xFC
   10F5 FC                 4994 	.db #0xFC
   10F6 FC                 4995 	.db #0xFC
   10F7 FC                 4996 	.db #0xFC
   10F8 FC                 4997 	.db #0xFC
   10F9 FC                 4998 	.db #0xFC
   10FA FC                 4999 	.db #0xFC
   10FB FC                 5000 	.db #0xFC
   10FC FC                 5001 	.db #0xFC
   10FD FC                 5002 	.db #0xFC
   10FE FC                 5003 	.db #0xFC
   10FF FC                 5004 	.db #0xFC
   1100 FC                 5005 	.db #0xFC
   1101 FC                 5006 	.db #0xFC
   1102 FC                 5007 	.db #0xFC
   1103 FC                 5008 	.db #0xFC
   1104 FC                 5009 	.db #0xFC
   1105 FC                 5010 	.db #0xFC
   1106 FC                 5011 	.db #0xFC
   1107 FC                 5012 	.db #0xFC
   1108 FC                 5013 	.db #0xFC
   1109 FC                 5014 	.db #0xFC
   110A FC                 5015 	.db #0xFC
   110B FC                 5016 	.db #0xFC
   110C FC                 5017 	.db #0xFC
   110D FC                 5018 	.db #0xFC
   110E FC                 5019 	.db #0xFC
   110F FC                 5020 	.db #0xFC
   1110 FC                 5021 	.db #0xFC
   1111 FC                 5022 	.db #0xFC
   1112 FC                 5023 	.db #0xFC
   1113 FC                 5024 	.db #0xFC
   1114 FC                 5025 	.db #0xFC
   1115 FC                 5026 	.db #0xFC
   1116 FC                 5027 	.db #0xFC
   1117 FC                 5028 	.db #0xFC
   1118 FC                 5029 	.db #0xFC
   1119 FC                 5030 	.db #0xFC
   111A FC                 5031 	.db #0xFC
   111B FC                 5032 	.db #0xFC
   111C FC                 5033 	.db #0xFC
   111D FC                 5034 	.db #0xFC
   111E FC                 5035 	.db #0xFC
   111F FC                 5036 	.db #0xFC
   1120                    5037 _door2_tiles:
   1120 98                 5038 	.db #0x98
   1121 98                 5039 	.db #0x98
   1122 98                 5040 	.db #0x98
   1123 98                 5041 	.db #0x98
   1124 98                 5042 	.db #0x98
   1125 98                 5043 	.db #0x98
   1126 98                 5044 	.db #0x98
   1127 98                 5045 	.db #0x98
   1128 98                 5046 	.db #0x98
   1129 98                 5047 	.db #0x98
   112A 98                 5048 	.db #0x98
   112B 98                 5049 	.db #0x98
   112C 99                 5050 	.db #0x99
   112D 99                 5051 	.db #0x99
   112E 99                 5052 	.db #0x99
   112F 99                 5053 	.db #0x99
   1130 99                 5054 	.db #0x99
   1131 99                 5055 	.db #0x99
   1132 99                 5056 	.db #0x99
   1133 99                 5057 	.db #0x99
   1134 99                 5058 	.db #0x99
   1135 99                 5059 	.db #0x99
   1136 99                 5060 	.db #0x99
   1137 99                 5061 	.db #0x99
   1138 9A                 5062 	.db #0x9A
   1139 9A                 5063 	.db #0x9A
   113A 9A                 5064 	.db #0x9A
   113B 9A                 5065 	.db #0x9A
   113C 9A                 5066 	.db #0x9A
   113D 9A                 5067 	.db #0x9A
   113E 9A                 5068 	.db #0x9A
   113F 9A                 5069 	.db #0x9A
   1140 9A                 5070 	.db #0x9A
   1141 9A                 5071 	.db #0x9A
   1142 9A                 5072 	.db #0x9A
   1143 9A                 5073 	.db #0x9A
   1144 98                 5074 	.db #0x98
   1145 98                 5075 	.db #0x98
   1146 98                 5076 	.db #0x98
   1147 98                 5077 	.db #0x98
   1148 98                 5078 	.db #0x98
   1149 98                 5079 	.db #0x98
   114A 98                 5080 	.db #0x98
   114B 98                 5081 	.db #0x98
   114C 98                 5082 	.db #0x98
   114D 98                 5083 	.db #0x98
   114E 98                 5084 	.db #0x98
   114F 98                 5085 	.db #0x98
   1150 99                 5086 	.db #0x99
   1151 99                 5087 	.db #0x99
   1152 99                 5088 	.db #0x99
   1153 99                 5089 	.db #0x99
   1154 99                 5090 	.db #0x99
   1155 99                 5091 	.db #0x99
   1156 99                 5092 	.db #0x99
   1157 99                 5093 	.db #0x99
   1158 99                 5094 	.db #0x99
   1159 99                 5095 	.db #0x99
   115A 99                 5096 	.db #0x99
   115B 99                 5097 	.db #0x99
   115C 9B                 5098 	.db #0x9B
   115D 9B                 5099 	.db #0x9B
   115E 9B                 5100 	.db #0x9B
   115F 9B                 5101 	.db #0x9B
   1160 9B                 5102 	.db #0x9B
   1161 9B                 5103 	.db #0x9B
   1162 9B                 5104 	.db #0x9B
   1163 9B                 5105 	.db #0x9B
   1164 9B                 5106 	.db #0x9B
   1165 9B                 5107 	.db #0x9B
   1166 9B                 5108 	.db #0x9B
   1167 9B                 5109 	.db #0x9B
   1168 FC                 5110 	.db #0xFC
   1169 FC                 5111 	.db #0xFC
   116A FC                 5112 	.db #0xFC
   116B FC                 5113 	.db #0xFC
   116C FC                 5114 	.db #0xFC
   116D FC                 5115 	.db #0xFC
   116E FC                 5116 	.db #0xFC
   116F FC                 5117 	.db #0xFC
   1170 FC                 5118 	.db #0xFC
   1171 FC                 5119 	.db #0xFC
   1172 FC                 5120 	.db #0xFC
   1173 FC                 5121 	.db #0xFC
   1174 FC                 5122 	.db #0xFC
   1175 FC                 5123 	.db #0xFC
   1176 FC                 5124 	.db #0xFC
   1177 FC                 5125 	.db #0xFC
   1178 FC                 5126 	.db #0xFC
   1179 FC                 5127 	.db #0xFC
   117A FC                 5128 	.db #0xFC
   117B FC                 5129 	.db #0xFC
   117C FC                 5130 	.db #0xFC
   117D FC                 5131 	.db #0xFC
   117E FC                 5132 	.db #0xFC
   117F FC                 5133 	.db #0xFC
   1180 FC                 5134 	.db #0xFC
   1181 FC                 5135 	.db #0xFC
   1182 FC                 5136 	.db #0xFC
   1183 FC                 5137 	.db #0xFC
   1184 FC                 5138 	.db #0xFC
   1185 FC                 5139 	.db #0xFC
   1186 FC                 5140 	.db #0xFC
   1187 FC                 5141 	.db #0xFC
   1188 FC                 5142 	.db #0xFC
   1189 FC                 5143 	.db #0xFC
   118A FC                 5144 	.db #0xFC
   118B FC                 5145 	.db #0xFC
   118C FC                 5146 	.db #0xFC
   118D FC                 5147 	.db #0xFC
   118E FC                 5148 	.db #0xFC
   118F FC                 5149 	.db #0xFC
   1190 FC                 5150 	.db #0xFC
   1191 FC                 5151 	.db #0xFC
   1192 FC                 5152 	.db #0xFC
   1193 FC                 5153 	.db #0xFC
   1194 FC                 5154 	.db #0xFC
   1195 FC                 5155 	.db #0xFC
   1196 FC                 5156 	.db #0xFC
   1197 FC                 5157 	.db #0xFC
   1198 FC                 5158 	.db #0xFC
   1199 FC                 5159 	.db #0xFC
   119A FC                 5160 	.db #0xFC
   119B FC                 5161 	.db #0xFC
   119C FC                 5162 	.db #0xFC
   119D FC                 5163 	.db #0xFC
   119E FC                 5164 	.db #0xFC
   119F FC                 5165 	.db #0xFC
   11A0 FC                 5166 	.db #0xFC
   11A1 FC                 5167 	.db #0xFC
   11A2 FC                 5168 	.db #0xFC
   11A3 FC                 5169 	.db #0xFC
   11A4                    5170 _door3_tiles:
   11A4 9C                 5171 	.db #0x9C
   11A5 9C                 5172 	.db #0x9C
   11A6 9C                 5173 	.db #0x9C
   11A7 9C                 5174 	.db #0x9C
   11A8 9C                 5175 	.db #0x9C
   11A9 9C                 5176 	.db #0x9C
   11AA 9C                 5177 	.db #0x9C
   11AB 9C                 5178 	.db #0x9C
   11AC 9C                 5179 	.db #0x9C
   11AD 9C                 5180 	.db #0x9C
   11AE 9C                 5181 	.db #0x9C
   11AF 9C                 5182 	.db #0x9C
   11B0 9D                 5183 	.db #0x9D
   11B1 9D                 5184 	.db #0x9D
   11B2 9D                 5185 	.db #0x9D
   11B3 9D                 5186 	.db #0x9D
   11B4 9D                 5187 	.db #0x9D
   11B5 9D                 5188 	.db #0x9D
   11B6 9D                 5189 	.db #0x9D
   11B7 9D                 5190 	.db #0x9D
   11B8 9D                 5191 	.db #0x9D
   11B9 9D                 5192 	.db #0x9D
   11BA 9D                 5193 	.db #0x9D
   11BB 9D                 5194 	.db #0x9D
   11BC 9E                 5195 	.db #0x9E
   11BD 9E                 5196 	.db #0x9E
   11BE 9E                 5197 	.db #0x9E
   11BF 9E                 5198 	.db #0x9E
   11C0 9E                 5199 	.db #0x9E
   11C1 9E                 5200 	.db #0x9E
   11C2 9E                 5201 	.db #0x9E
   11C3 9E                 5202 	.db #0x9E
   11C4 9E                 5203 	.db #0x9E
   11C5 9E                 5204 	.db #0x9E
   11C6 9E                 5205 	.db #0x9E
   11C7 9E                 5206 	.db #0x9E
   11C8 9C                 5207 	.db #0x9C
   11C9 9C                 5208 	.db #0x9C
   11CA 9C                 5209 	.db #0x9C
   11CB 9C                 5210 	.db #0x9C
   11CC 9C                 5211 	.db #0x9C
   11CD 9C                 5212 	.db #0x9C
   11CE 9C                 5213 	.db #0x9C
   11CF 9C                 5214 	.db #0x9C
   11D0 9C                 5215 	.db #0x9C
   11D1 9C                 5216 	.db #0x9C
   11D2 9C                 5217 	.db #0x9C
   11D3 9C                 5218 	.db #0x9C
   11D4 9D                 5219 	.db #0x9D
   11D5 9D                 5220 	.db #0x9D
   11D6 9D                 5221 	.db #0x9D
   11D7 9D                 5222 	.db #0x9D
   11D8 9D                 5223 	.db #0x9D
   11D9 9D                 5224 	.db #0x9D
   11DA 9D                 5225 	.db #0x9D
   11DB 9D                 5226 	.db #0x9D
   11DC 9D                 5227 	.db #0x9D
   11DD 9D                 5228 	.db #0x9D
   11DE 9D                 5229 	.db #0x9D
   11DF 9D                 5230 	.db #0x9D
   11E0 9F                 5231 	.db #0x9F
   11E1 9F                 5232 	.db #0x9F
   11E2 9F                 5233 	.db #0x9F
   11E3 9F                 5234 	.db #0x9F
   11E4 9F                 5235 	.db #0x9F
   11E5 9F                 5236 	.db #0x9F
   11E6 9F                 5237 	.db #0x9F
   11E7 9F                 5238 	.db #0x9F
   11E8 9F                 5239 	.db #0x9F
   11E9 9F                 5240 	.db #0x9F
   11EA 9F                 5241 	.db #0x9F
   11EB 9F                 5242 	.db #0x9F
   11EC FC                 5243 	.db #0xFC
   11ED FC                 5244 	.db #0xFC
   11EE FC                 5245 	.db #0xFC
   11EF FC                 5246 	.db #0xFC
   11F0 FC                 5247 	.db #0xFC
   11F1 FC                 5248 	.db #0xFC
   11F2 FC                 5249 	.db #0xFC
   11F3 FC                 5250 	.db #0xFC
   11F4 FC                 5251 	.db #0xFC
   11F5 FC                 5252 	.db #0xFC
   11F6 FC                 5253 	.db #0xFC
   11F7 FC                 5254 	.db #0xFC
   11F8 FC                 5255 	.db #0xFC
   11F9 FC                 5256 	.db #0xFC
   11FA FC                 5257 	.db #0xFC
   11FB FC                 5258 	.db #0xFC
   11FC FC                 5259 	.db #0xFC
   11FD FC                 5260 	.db #0xFC
   11FE FC                 5261 	.db #0xFC
   11FF FC                 5262 	.db #0xFC
   1200 FC                 5263 	.db #0xFC
   1201 FC                 5264 	.db #0xFC
   1202 FC                 5265 	.db #0xFC
   1203 FC                 5266 	.db #0xFC
   1204 FC                 5267 	.db #0xFC
   1205 FC                 5268 	.db #0xFC
   1206 FC                 5269 	.db #0xFC
   1207 FC                 5270 	.db #0xFC
   1208 FC                 5271 	.db #0xFC
   1209 FC                 5272 	.db #0xFC
   120A FC                 5273 	.db #0xFC
   120B FC                 5274 	.db #0xFC
   120C FC                 5275 	.db #0xFC
   120D FC                 5276 	.db #0xFC
   120E FC                 5277 	.db #0xFC
   120F FC                 5278 	.db #0xFC
   1210 FC                 5279 	.db #0xFC
   1211 FC                 5280 	.db #0xFC
   1212 FC                 5281 	.db #0xFC
   1213 FC                 5282 	.db #0xFC
   1214 FC                 5283 	.db #0xFC
   1215 FC                 5284 	.db #0xFC
   1216 FC                 5285 	.db #0xFC
   1217 FC                 5286 	.db #0xFC
   1218 FC                 5287 	.db #0xFC
   1219 FC                 5288 	.db #0xFC
   121A FC                 5289 	.db #0xFC
   121B FC                 5290 	.db #0xFC
   121C FC                 5291 	.db #0xFC
   121D FC                 5292 	.db #0xFC
   121E FC                 5293 	.db #0xFC
   121F FC                 5294 	.db #0xFC
   1220 FC                 5295 	.db #0xFC
   1221 FC                 5296 	.db #0xFC
   1222 FC                 5297 	.db #0xFC
   1223 FC                 5298 	.db #0xFC
   1224 FC                 5299 	.db #0xFC
   1225 FC                 5300 	.db #0xFC
   1226 FC                 5301 	.db #0xFC
   1227 FC                 5302 	.db #0xFC
   1228                    5303 _door4_tiles:
   1228 95                 5304 	.db #0x95
   1229 95                 5305 	.db #0x95
   122A 95                 5306 	.db #0x95
   122B 95                 5307 	.db #0x95
   122C 95                 5308 	.db #0x95
   122D 95                 5309 	.db #0x95
   122E 95                 5310 	.db #0x95
   122F 95                 5311 	.db #0x95
   1230 95                 5312 	.db #0x95
   1231 95                 5313 	.db #0x95
   1232 95                 5314 	.db #0x95
   1233 95                 5315 	.db #0x95
   1234 96                 5316 	.db #0x96
   1235 96                 5317 	.db #0x96
   1236 96                 5318 	.db #0x96
   1237 96                 5319 	.db #0x96
   1238 96                 5320 	.db #0x96
   1239 96                 5321 	.db #0x96
   123A 96                 5322 	.db #0x96
   123B 96                 5323 	.db #0x96
   123C 96                 5324 	.db #0x96
   123D 96                 5325 	.db #0x96
   123E 96                 5326 	.db #0x96
   123F 96                 5327 	.db #0x96
   1240 97                 5328 	.db #0x97
   1241 97                 5329 	.db #0x97
   1242 97                 5330 	.db #0x97
   1243 97                 5331 	.db #0x97
   1244 97                 5332 	.db #0x97
   1245 97                 5333 	.db #0x97
   1246 97                 5334 	.db #0x97
   1247 97                 5335 	.db #0x97
   1248 97                 5336 	.db #0x97
   1249 97                 5337 	.db #0x97
   124A 97                 5338 	.db #0x97
   124B 97                 5339 	.db #0x97
   124C 95                 5340 	.db #0x95
   124D 95                 5341 	.db #0x95
   124E 95                 5342 	.db #0x95
   124F 95                 5343 	.db #0x95
   1250 95                 5344 	.db #0x95
   1251 95                 5345 	.db #0x95
   1252 95                 5346 	.db #0x95
   1253 95                 5347 	.db #0x95
   1254 95                 5348 	.db #0x95
   1255 95                 5349 	.db #0x95
   1256 95                 5350 	.db #0x95
   1257 95                 5351 	.db #0x95
   1258 96                 5352 	.db #0x96
   1259 96                 5353 	.db #0x96
   125A 96                 5354 	.db #0x96
   125B 96                 5355 	.db #0x96
   125C 96                 5356 	.db #0x96
   125D 96                 5357 	.db #0x96
   125E 96                 5358 	.db #0x96
   125F 96                 5359 	.db #0x96
   1260 96                 5360 	.db #0x96
   1261 96                 5361 	.db #0x96
   1262 96                 5362 	.db #0x96
   1263 96                 5363 	.db #0x96
   1264 A0                 5364 	.db #0xA0
   1265 A0                 5365 	.db #0xA0
   1266 A0                 5366 	.db #0xA0
   1267 A0                 5367 	.db #0xA0
   1268 A0                 5368 	.db #0xA0
   1269 A0                 5369 	.db #0xA0
   126A A0                 5370 	.db #0xA0
   126B A0                 5371 	.db #0xA0
   126C A0                 5372 	.db #0xA0
   126D A0                 5373 	.db #0xA0
   126E A0                 5374 	.db #0xA0
   126F A0                 5375 	.db #0xA0
   1270 FC                 5376 	.db #0xFC
   1271 FC                 5377 	.db #0xFC
   1272 FC                 5378 	.db #0xFC
   1273 FC                 5379 	.db #0xFC
   1274 FC                 5380 	.db #0xFC
   1275 FC                 5381 	.db #0xFC
   1276 FC                 5382 	.db #0xFC
   1277 FC                 5383 	.db #0xFC
   1278 FC                 5384 	.db #0xFC
   1279 FC                 5385 	.db #0xFC
   127A FC                 5386 	.db #0xFC
   127B FC                 5387 	.db #0xFC
   127C FC                 5388 	.db #0xFC
   127D FC                 5389 	.db #0xFC
   127E FC                 5390 	.db #0xFC
   127F FC                 5391 	.db #0xFC
   1280 FC                 5392 	.db #0xFC
   1281 FC                 5393 	.db #0xFC
   1282 FC                 5394 	.db #0xFC
   1283 FC                 5395 	.db #0xFC
   1284 FC                 5396 	.db #0xFC
   1285 FC                 5397 	.db #0xFC
   1286 FC                 5398 	.db #0xFC
   1287 FC                 5399 	.db #0xFC
   1288 FC                 5400 	.db #0xFC
   1289 FC                 5401 	.db #0xFC
   128A FC                 5402 	.db #0xFC
   128B FC                 5403 	.db #0xFC
   128C FC                 5404 	.db #0xFC
   128D FC                 5405 	.db #0xFC
   128E FC                 5406 	.db #0xFC
   128F FC                 5407 	.db #0xFC
   1290 FC                 5408 	.db #0xFC
   1291 FC                 5409 	.db #0xFC
   1292 FC                 5410 	.db #0xFC
   1293 FC                 5411 	.db #0xFC
   1294 FC                 5412 	.db #0xFC
   1295 FC                 5413 	.db #0xFC
   1296 FC                 5414 	.db #0xFC
   1297 FC                 5415 	.db #0xFC
   1298 FC                 5416 	.db #0xFC
   1299 FC                 5417 	.db #0xFC
   129A FC                 5418 	.db #0xFC
   129B FC                 5419 	.db #0xFC
   129C FC                 5420 	.db #0xFC
   129D FC                 5421 	.db #0xFC
   129E FC                 5422 	.db #0xFC
   129F FC                 5423 	.db #0xFC
   12A0 FC                 5424 	.db #0xFC
   12A1 FC                 5425 	.db #0xFC
   12A2 FC                 5426 	.db #0xFC
   12A3 FC                 5427 	.db #0xFC
   12A4 FC                 5428 	.db #0xFC
   12A5 FC                 5429 	.db #0xFC
   12A6 FC                 5430 	.db #0xFC
   12A7 FC                 5431 	.db #0xFC
   12A8 FC                 5432 	.db #0xFC
   12A9 FC                 5433 	.db #0xFC
   12AA FC                 5434 	.db #0xFC
   12AB FC                 5435 	.db #0xFC
ASxxxx Assembler V01.75  (GameBoy Z80-like CPU), page 1.

Symbol Table

    _BCPD_REG                          **** GX
    _BCPS_REG                          **** GX
    _BGP_REG                           **** GX
    _DIV_REG                           **** GX
    _DMA_REG                           **** GX
    _HDMA1_REG                         **** GX
    _HDMA2_REG                         **** GX
    _HDMA3_REG                         **** GX
    _HDMA4_REG                         **** GX
    _HDMA5_REG                         **** GX
    _IE_REG                            **** GX
    _IF_REG                            **** GX
    _KEY1_REG                          **** GX
    _LCDC_REG                          **** GX
    _LYC_REG                           **** GX
    _LY_REG                            **** GX
    _NR10_REG                          **** GX
    _NR11_REG                          **** GX
    _NR12_REG                          **** GX
    _NR13_REG                          **** GX
    _NR14_REG                          **** GX
    _NR21_REG                          **** GX
    _NR22_REG                          **** GX
    _NR23_REG                          **** GX
    _NR24_REG                          **** GX
    _NR30_REG                          **** GX
    _NR31_REG                          **** GX
    _NR32_REG                          **** GX
    _NR33_REG                          **** GX
    _NR34_REG                          **** GX
    _NR41_REG                          **** GX
    _NR42_REG                          **** GX
    _NR43_REG                          **** GX
    _NR44_REG                          **** GX
    _NR50_REG                          **** GX
    _NR51_REG                          **** GX
    _NR52_REG                          **** GX
    _OBP0_REG                          **** GX
    _OBP1_REG                          **** GX
    _OCPD_REG                          **** GX
    _OCPS_REG                          **** GX
    _P1_REG                            **** GX
    _RP_REG                            **** GX
    _SB_REG                            **** GX
    _SCX_REG                           **** GX
    _SCY_REG                           **** GX
    _SC_REG                            **** GX
    _STAT_REG                          **** GX
    _SVBK_REG                          **** GX
    _TAC_REG                           **** GX
    _TIMA_REG                          **** GX
    _TMA_REG                           **** GX
    _VBK_REG                           **** GX
    _WX_REG                            **** GX
    _WY_REG                            **** GX
  0 ___animate_sprite_end              0324 R
  0 ___animate_sprite_start            02F9 R
  0 ___door_end                        02F9 R
  0 ___door_start                      025C R
  0 ___fade_end                        007D R
  0 ___fade_start                      0000 R
  0 ___main_end                        08C2 R
  0 ___main_start                      03BF R
  0 ___place_sprite_end                03BF R
  0 ___place_sprite_start              035C R
  0 ___scroll_end                      025C R
  0 ___scroll_start                    007D R
  0 ___tile_sprite_end                 035C R
  0 ___tile_sprite_start               0324 R
    __cpu                              **** GX
    __io_in                            **** GX
    __io_out                           **** GX
    __io_status                        **** GX
    _add_LCD                           **** GX
    _add_TIM                           **** GX
    _add_VBL                           **** GX
  0 _animate_sprite                    02F9 GR
  0 _bkg_data                          0CD2 GR
  0 _bkg_tiles                         0FA2 GR
  1 _bposx                             0037 GR
  1 _bposy                             0039 GR
  1 _bspx                              003B GR
  1 _bspy                              003D GR
    _cgb_compatibility                 **** GX
  1 _color                             0035 GR
    _cpu_fast                          **** GX
    _cpu_slow                          **** GX
    _delay                             **** GX
    _disable_interrupts                **** GX
    _display_off                       **** GX
  0 _door                              025C GR
  0 _door1_tiles                       1090 GR
  0 _door2_tiles                       1120 GR
  0 _door3_tiles                       11A4 GR
  0 _door4_tiles                       1228 GR
  1 _doorpos                           0034 GR
  1 _doorstate                         0033 GR
  0 _earth_data                        0902 GR
  0 _earth_tiles                       0FE2 GR
    _enable_interrupts                 **** GX
  0 _fade                              0000 GR
  1 _film                              0000 GR
  0 _frame_data                        0AC2 GR
  0 _frame_tiles                       0FF0 GR
    _get_bkg_tiles                     **** GX
    _get_data                          **** GX
    _get_mode                          **** GX
    _get_sprite_data                   **** GX
    _get_sprite_prop                   **** GX
    _get_sprite_tile                   **** GX
    _get_tiles                         **** GX
    _get_win_tiles                     **** GX
    _hiramcpy                          **** GX
    _joypad                            **** GX
  0 _main                              03BF GR
    _mode                              **** GX
    _move_bkg                          **** GX
    _move_sprite                       **** GX
    _move_win                          **** GX
  0 _place_sprite                      035C GR
    _receive_byte                      **** GX
    _remove_JOY                        **** GX
    _remove_LCD                        **** GX
    _remove_SIO                        **** GX
    _remove_TIM                        **** GX
    _remove_VBL                        **** GX
    _reset                             **** GX
  0 _scroll                            007D GR
    _scroll_bkg                        **** GX
    _scroll_sprite                     **** GX
    _scroll_win                        **** GX
    _send_byte                         **** GX
    _set_bkg_data                      **** GX
    _set_bkg_palette                   **** GX
    _set_bkg_palette_entry             **** GX
    _set_bkg_tiles                     **** GX
    _set_data                          **** GX
    _set_interrupts                    **** GX
    _set_sprite_data                   **** GX
    _set_sprite_palette                **** GX
    _set_sprite_palette_entry          **** GX
    _set_sprite_prop                   **** GX
    _set_sprite_tile                   **** GX
    _set_tiles                         **** GX
    _set_win_data                      **** GX
    _set_win_tiles                     **** GX
  1 _sframe                            0036 GR
    _sgb_check                         **** GX
  1 _sposx                             0047 GR
  1 _sposy                             0049 GR
  1 _sspx                              004B GR
  1 _sspy                              004D GR
  0 _std_data                          08C2 GR
    _sys_time                          **** GX
  0 _tile_sprite                       0324 GR
  1 _time                              0032 GR
    _wait_vbl_done                     **** GX
    _waitpad                           **** GX
    _waitpadup                         **** GX
  1 _wposx                             003F GR
  1 _wposy                             0041 GR
  1 _wspx                              0043 GR
  1 _wspy                              0045 GR

ASxxxx Assembler V01.75  (GameBoy Z80-like CPU), page 2.

Area Table

   0 _CODE                              size 12AC   flags 0
   1 _DATA                              size   4F   flags 0
   2 _OVERLAY                           size    0   flags 0
   3 _ISEG                              size    0   flags 0
   4 _BSEG                              size    0   flags 0
   5 _XSEG                              size    0   flags 0
   6 _GSINIT                            size  10F   flags 0
   7 _GSFINAL                           size    0   flags 0
