                              1 ;--------------------------------------------------------
                              2 ; File Created by SDCC : FreeWare ANSI-C Compiler
                              3 ; Version 2.2.1 Sat Feb 09 09:57:24 2019
                              4 
                              5 ;--------------------------------------------------------
                              6 	.module lcc25080
                              7 	
                              8 ;--------------------------------------------------------
                              9 ; Public variables in this module
                             10 ;--------------------------------------------------------
                             11 	.globl _markerMapTiles
                             12 	.globl _susmap
                             13 	.globl _panmap
                             14 	.globl _octmap
                             15 	.globl _tableData
                             16 	.globl _tableCursorLookup
                             17 	.globl _synthAddress
                             18 	.globl _SCREEN_PSTARTY
                             19 	.globl _SCREEN_PSTARTX
                             20 	.globl _SCREEN_YSPACE
                             21 	.globl _SCREEN_XSPACE
                             22 	.globl _SCREEN_YO
                             23 	.globl _SCREEN_XO
                             24 	.globl _spritepalette
                             25 	.globl _bgpalette
                             26 	.globl _logo
                             27 	.globl _helpmap
                             28 	.globl _helpdata
                             29 	.globl _versionnumber
                             30 	.globl _data_font
                             31 	.globl _data_larrow
                             32 	.globl _data_barrow
                             33 	.globl _wavData
                             34 	.globl _main
                             35 	.globl _noOp
                             36 	.globl _setSoundDefaults
                             37 	.globl _getPad
                             38 	.globl _setDataValue
                             39 	.globl _clearParameterLocks
                             40 	.globl _checkMemory
                             41 	.globl _snapRecall
                             42 	.globl _loadDataSet
                             43 	.globl _saveDataSet
                             44 	.globl _displaySetup
                             45 	.globl _toggleScreen
                             46 	.globl _showSplashScreen
                             47 	.globl _showMainScreen
                             48 	.globl _showSampleScreen
                             49 	.globl _cls2
                             50 	.globl _setPlayMarker
                             51 	.globl _showCursor
                             52 	.globl _hideCursor
                             53 	.globl _setCursor
                             54 	.globl _updateDisplay
                             55 	.globl _updateDisplaySynth
                             56 	.globl _updateDisplayValue
                             57 	.globl _printhelp
                             58 	.globl _printversion
                             59 	.globl _updateSynths
                             60 	.globl _updateSynth
                             61 	.globl _updateValueSynth
                             62 	.globl _setOutputPan
                             63 	.globl _setOutputPanBySynth
                             64 	.globl _setOutputSwitch
                             65 	.globl _updateVibratoPosition
                             66 	.globl _addVibrato
                             67 	.globl _addPortamento
                             68 	.globl _setPitchBendFrequencyOffsetNoise
                             69 	.globl _setPitchBendFrequencyOffset
                             70 	.globl _printbyte
                             71 	.globl _testSynths
                             72 	.globl _glideTo
                             73 	.globl _asmPlayNotePu1
                             74 	.globl _asmUpdateNoi
                             75 	.globl _asmUpdateWav
                             76 	.globl _asmUpdatePu2
                             77 	.globl _asmUpdatePu1
                             78 	.globl _asmUpdateMidiBuffer
                             79 	.globl _asmLoadWav
                             80 	.globl _asmUpdateSerial
                             81 	.globl _asmMain
                             82 	.globl _get_tiles
                             83 	.globl _set_tiles
                             84 	.globl _get_data
                             85 	.globl _set_data
                             86 	.globl _scroll_sprite
                             87 	.globl _move_sprite
                             88 	.globl _get_sprite_prop
                             89 	.globl _set_sprite_prop
                             90 	.globl _get_sprite_tile
                             91 	.globl _set_sprite_tile
                             92 	.globl _get_sprite_data
                             93 	.globl _set_sprite_data
                             94 	.globl _scroll_win
                             95 	.globl _move_win
                             96 	.globl _get_win_tiles
                             97 	.globl _set_win_tiles
                             98 	.globl _set_win_data
                             99 	.globl _scroll_bkg
                            100 	.globl _move_bkg
                            101 	.globl _get_bkg_tiles
                            102 	.globl _set_bkg_tiles
                            103 	.globl _set_bkg_data
                            104 	.globl _hiramcpy
                            105 	.globl _display_off
                            106 	.globl _wait_vbl_done
                            107 	.globl _reset
                            108 	.globl _set_interrupts
                            109 	.globl _disable_interrupts
                            110 	.globl _enable_interrupts
                            111 	.globl _waitpadup
                            112 	.globl _waitpad
                            113 	.globl _joypad
                            114 	.globl _delay
                            115 	.globl _receive_byte
                            116 	.globl _send_byte
                            117 	.globl _get_mode
                            118 	.globl _mode
                            119 	.globl _add_TIM
                            120 	.globl _add_LCD
                            121 	.globl _add_VBL
                            122 	.globl _remove_JOY
                            123 	.globl _remove_SIO
                            124 	.globl _remove_TIM
                            125 	.globl _remove_LCD
                            126 	.globl _remove_VBL
                            127 	.globl _cgb_compatibility
                            128 	.globl _cpu_fast
                            129 	.globl _cpu_slow
                            130 	.globl _set_sprite_palette_entry
                            131 	.globl _set_bkg_palette_entry
                            132 	.globl _set_sprite_palette
                            133 	.globl _set_bkg_palette
                            134 	.globl _sgb_check
                            135 	.globl _wavStepCounter
                            136 	.globl _vibratoTimer
                            137 	.globl _parameterLock
                            138 	.globl _currentScreen
                            139 	.globl _dataSet
                            140 	.globl _dataSetSnap
                            141 	.globl _stepSize
                            142 	.globl _targetFreq
                            143 	.globl _portDelay
                            144 	.globl _portLength
                            145 	.globl _portStepSize
                            146 	.globl _vibratoSlope
                            147 	.globl _vibratoDepth
                            148 	.globl _vibratoSpeed
                            149 	.globl _vibratoPosition
                            150 	.globl _systemIdle
                            151 	.globl _shiftSelect
                            152 	.globl _cursorRowMain
                            153 	.globl _cursorColumnLast
                            154 	.globl _cursorStartY
                            155 	.globl _cursorStartX
                            156 	.globl _cursorBigStartY
                            157 	.globl _cursorBigStartX
                            158 	.globl _cursorRow
                            159 	.globl _cursorColumn
                            160 	.globl _cursorEnable
                            161 	.globl _recallMode
                            162 	.globl _bkg
                            163 	.globl _cueWavSweep
                            164 	.globl _counterWav
                            165 	.globl _noiOct
                            166 	.globl _wavOct
                            167 	.globl _pu2Oct
                            168 	.globl _pu1Oct
                            169 	.globl _currentPortFreqData
                            170 	.globl _currentFreqData
                            171 	.globl _wavCurrentFreq
                            172 	.globl _wavSweepSpeed
                            173 	.globl _joyState
                            174 	.globl _lastPadRead
                            175 	.globl _l
                            176 	.globl _j
                            177 	.globl _x
                            178 	.globl _i
                            179 	.globl _currentFreq
                            180 	.globl _pbNoteRange
                            181 	.globl _pbRange
                            182 	.globl _pbWheelActive
                            183 	.globl _pbWheelInLast
                            184 	.globl _pbWheelIn
                            185 	.globl _wavDataOffset
                            186 	.globl _wavShapeLast
                            187 	.globl _counterWavStart
                            188 	.globl _outputSwitchValue
                            189 	.globl _outputSwitchMute
                            190 	.globl _outputSwitch
                            191 	.globl _pu1Por
                            192 	.globl _wavSus
                            193 	.globl _noiSus
                            194 	.globl _pu2Sus
                            195 	.globl _pu1Sus
                            196 	.globl _polyNoteState
                            197 	.globl _polyVoiceSelect
                            198 	.globl _noiNoteOffTrigger
                            199 	.globl _wavNoteOffTrigger
                            200 	.globl _pu2NoteOffTrigger
                            201 	.globl _pu1NoteOffTrigger
                            202 	.globl _pu2Vel
                            203 	.globl _pu1Vel
                            204 	.globl _pu2Trig
                            205 	.globl _pu1Trig
                            206 	.globl _noiMode
                            207 	.globl _noiEnv
                            208 	.globl _pu2Env
                            209 	.globl _pu1Env
                            210 	.globl _noiFreq
                            211 	.globl _prevNoteTmp
                            212 	.globl _prevNote
                            213 	.globl _noteStatus
                            214 	.globl _freq
                            215 	.globl _newStepSize
                            216 	.globl _tmp2Freq
                            217 	.globl _tmp2
                            218 	.globl _tmp1Freq
                            219 	.globl _tmp1
                            220 	.globl _newNote
                            221 	.globl _updateDisplaySynthCounter
                            222 	.globl _capturedAddress
                            223 	.globl _captureDataType
                            224 	.globl _valueByte
                            225 	.globl _addressByte
                            226 	.globl _statusByte
                            227 ;--------------------------------------------------------
                            228 ; Externals used
                            229 ;--------------------------------------------------------
                            230 	.globl _IE_REG
                            231 	.globl _SVBK_REG
                            232 	.globl _OCPD_REG
                            233 	.globl _OCPS_REG
                            234 	.globl _BCPD_REG
                            235 	.globl _BCPS_REG
                            236 	.globl _RP_REG
                            237 	.globl _HDMA5_REG
                            238 	.globl _HDMA4_REG
                            239 	.globl _HDMA3_REG
                            240 	.globl _HDMA2_REG
                            241 	.globl _HDMA1_REG
                            242 	.globl _VBK_REG
                            243 	.globl _KEY1_REG
                            244 	.globl _WX_REG
                            245 	.globl _WY_REG
                            246 	.globl _OBP1_REG
                            247 	.globl _OBP0_REG
                            248 	.globl _BGP_REG
                            249 	.globl _DMA_REG
                            250 	.globl _LYC_REG
                            251 	.globl _LY_REG
                            252 	.globl _SCX_REG
                            253 	.globl _SCY_REG
                            254 	.globl _STAT_REG
                            255 	.globl _LCDC_REG
                            256 	.globl _NR52_REG
                            257 	.globl _NR51_REG
                            258 	.globl _NR50_REG
                            259 	.globl _NR44_REG
                            260 	.globl _NR43_REG
                            261 	.globl _NR42_REG
                            262 	.globl _NR41_REG
                            263 	.globl _NR34_REG
                            264 	.globl _NR33_REG
                            265 	.globl _NR32_REG
                            266 	.globl _NR31_REG
                            267 	.globl _NR30_REG
                            268 	.globl _NR24_REG
                            269 	.globl _NR23_REG
                            270 	.globl _NR22_REG
                            271 	.globl _NR21_REG
                            272 	.globl _NR14_REG
                            273 	.globl _NR13_REG
                            274 	.globl _NR12_REG
                            275 	.globl _NR11_REG
                            276 	.globl _NR10_REG
                            277 	.globl _IF_REG
                            278 	.globl _TAC_REG
                            279 	.globl _TMA_REG
                            280 	.globl _TIMA_REG
                            281 	.globl _DIV_REG
                            282 	.globl _SC_REG
                            283 	.globl _SB_REG
                            284 	.globl _P1_REG
                            285 	.globl _serialBufferReadPosition
                            286 	.globl _serialBufferPosition
                            287 	.globl _serialBuffer
                            288 	.globl _saveData
                            289 	.globl __io_out
                            290 	.globl __io_in
                            291 	.globl __io_status
                            292 	.globl _sys_time
                            293 	.globl __cpu
                            294 ;--------------------------------------------------------
                            295 ; special function registers
                            296 ;--------------------------------------------------------
                            297 ;--------------------------------------------------------
                            298 ; special function bits 
                            299 ;--------------------------------------------------------
                            300 ;--------------------------------------------------------
                            301 ; internal ram data
                            302 ;--------------------------------------------------------
                            303 	.area _DATA
   0000                     304 _statusByte::
   0000                     305 	.ds 1
   0001                     306 _addressByte::
   0001                     307 	.ds 1
   0002                     308 _valueByte::
   0002                     309 	.ds 1
   0003                     310 _captureDataType::
   0003                     311 	.ds 1
   0004                     312 _capturedAddress::
   0004                     313 	.ds 1
   0005                     314 _updateDisplaySynthCounter::
   0005                     315 	.ds 1
   0006                     316 _newNote::
   0006                     317 	.ds 1
   0007                     318 _tmp1::
   0007                     319 	.ds 1
   0008                     320 _tmp1Freq::
   0008                     321 	.ds 2
   000A                     322 _tmp2::
   000A                     323 	.ds 1
   000B                     324 _tmp2Freq::
   000B                     325 	.ds 2
   000D                     326 _newStepSize::
   000D                     327 	.ds 2
   000F                     328 _freq::
   000F                     329 	.ds 144
   009F                     330 _noteStatus::
   009F                     331 	.ds 8
   00A7                     332 _prevNote::
   00A7                     333 	.ds 4
   00AB                     334 _prevNoteTmp::
   00AB                     335 	.ds 1
   00AC                     336 _noiFreq::
   00AC                     337 	.ds 72
   00F4                     338 _pu1Env::
   00F4                     339 	.ds 1
   00F5                     340 _pu2Env::
   00F5                     341 	.ds 1
   00F6                     342 _noiEnv::
   00F6                     343 	.ds 1
   00F7                     344 _noiMode::
   00F7                     345 	.ds 1
   00F8                     346 _pu1Trig::
   00F8                     347 	.ds 1
   00F9                     348 _pu2Trig::
   00F9                     349 	.ds 1
   00FA                     350 _pu1Vel::
   00FA                     351 	.ds 1
   00FB                     352 _pu2Vel::
   00FB                     353 	.ds 1
   00FC                     354 _pu1NoteOffTrigger::
   00FC                     355 	.ds 1
   00FD                     356 _pu2NoteOffTrigger::
   00FD                     357 	.ds 1
   00FE                     358 _wavNoteOffTrigger::
   00FE                     359 	.ds 1
   00FF                     360 _noiNoteOffTrigger::
   00FF                     361 	.ds 1
   0100                     362 _polyVoiceSelect::
   0100                     363 	.ds 1
   0101                     364 _polyNoteState::
   0101                     365 	.ds 3
   0104                     366 _pu1Sus::
   0104                     367 	.ds 1
   0105                     368 _pu2Sus::
   0105                     369 	.ds 1
   0106                     370 _noiSus::
   0106                     371 	.ds 1
   0107                     372 _wavSus::
   0107                     373 	.ds 1
   0108                     374 _pu1Por::
   0108                     375 	.ds 1
   0109                     376 _outputSwitch::
   0109                     377 	.ds 4
   010D                     378 _outputSwitchMute::
   010D                     379 	.ds 4
   0111                     380 _outputSwitchValue::
   0111                     381 	.ds 4
   0115                     382 _counterWavStart::
   0115                     383 	.ds 1
   0116                     384 _wavShapeLast::
   0116                     385 	.ds 1
   0117                     386 _wavDataOffset::
   0117                     387 	.ds 1
   0118                     388 _pbWheelIn::
   0118                     389 	.ds 4
   011C                     390 _pbWheelInLast::
   011C                     391 	.ds 4
   0120                     392 _pbWheelActive::
   0120                     393 	.ds 4
   0124                     394 _pbRange::
   0124                     395 	.ds 4
   0128                     396 _pbNoteRange::
   0128                     397 	.ds 8
   0130                     398 _currentFreq::
   0130                     399 	.ds 2
   0132                     400 _i::
   0132                     401 	.ds 1
   0133                     402 _x::
   0133                     403 	.ds 1
   0134                     404 _j::
   0134                     405 	.ds 1
   0135                     406 _l::
   0135                     407 	.ds 1
   0136                     408 _lastPadRead::
   0136                     409 	.ds 1
   0137                     410 _joyState::
   0137                     411 	.ds 8
   013F                     412 _wavSweepSpeed::
   013F                     413 	.ds 1
   0140                     414 _wavCurrentFreq::
   0140                     415 	.ds 2
   0142                     416 _currentFreqData::
   0142                     417 	.ds 8
   014A                     418 _currentPortFreqData::
   014A                     419 	.ds 8
   0152                     420 _pu1Oct::
   0152                     421 	.ds 1
   0153                     422 _pu2Oct::
   0153                     423 	.ds 1
   0154                     424 _wavOct::
   0154                     425 	.ds 1
   0155                     426 _noiOct::
   0155                     427 	.ds 1
   0156                     428 _counterWav::
   0156                     429 	.ds 2
   0158                     430 _cueWavSweep::
   0158                     431 	.ds 1
   0159                     432 _bkg::
   0159                     433 	.ds 20
   016D                     434 _recallMode::
   016D                     435 	.ds 1
   016E                     436 _cursorEnable::
   016E                     437 	.ds 4
   0172                     438 _cursorColumn::
   0172                     439 	.ds 1
   0173                     440 _cursorRow::
   0173                     441 	.ds 4
   0177                     442 _cursorBigStartX::
   0177                     443 	.ds 4
   017B                     444 _cursorBigStartY::
   017B                     445 	.ds 4
   017F                     446 _cursorStartX::
   017F                     447 	.ds 4
   0183                     448 _cursorStartY::
   0183                     449 	.ds 4
   0187                     450 _cursorColumnLast::
   0187                     451 	.ds 1
   0188                     452 _cursorRowMain::
   0188                     453 	.ds 1
   0189                     454 _shiftSelect::
   0189                     455 	.ds 1
   018A                     456 _systemIdle::
   018A                     457 	.ds 1
   018B                     458 _vibratoPosition::
   018B                     459 	.ds 4
   018F                     460 _vibratoSpeed::
   018F                     461 	.ds 4
   0193                     462 _vibratoDepth::
   0193                     463 	.ds 4
   0197                     464 _vibratoSlope::
   0197                     465 	.ds 4
   019B                     466 _portStepSize::
   019B                     467 	.ds 8
   01A3                     468 _portLength::
   01A3                     469 	.ds 8
   01AB                     470 _portDelay::
   01AB                     471 	.ds 4
   01AF                     472 _targetFreq::
   01AF                     473 	.ds 2
   01B1                     474 _stepSize::
   01B1                     475 	.ds 2
   01B3                     476 _dataSetSnap::
   01B3                     477 	.ds 28
   01CF                     478 _dataSet::
   01CF                     479 	.ds 28
   01EB                     480 _currentScreen::
   01EB                     481 	.ds 1
   01EC                     482 _parameterLock::
   01EC                     483 	.ds 24
   0204                     484 _vibratoTimer::
   0204                     485 	.ds 4
   0208                     486 _wavStepCounter::
   0208                     487 	.ds 1
                            488 ;--------------------------------------------------------
                            489 ; overlayable items in internal ram 
                            490 ;--------------------------------------------------------
                            491 	.area _OVERLAY
                            492 ;--------------------------------------------------------
                            493 ; indirectly addressable internal ram data
                            494 ;--------------------------------------------------------
                            495 	.area _ISEG
                            496 ;--------------------------------------------------------
                            497 ; bit data
                            498 ;--------------------------------------------------------
                            499 	.area _BSEG
                            500 ;--------------------------------------------------------
                            501 ; external ram data
                            502 ;--------------------------------------------------------
                            503 	.area _XSEG
                            504 ;--------------------------------------------------------
                            505 ; global & static initialisations
                            506 ;--------------------------------------------------------
                            507 	.area _GSINIT
                            508 	.area _GSFINAL
                            509 	.area _GSINIT
                            510 ;	mGB.c 168
                            511 ; genAssign (pointer)
   0000 11 0F 00            512 	ld	de,#_freq + 0
   0003 3E 2C               513 	ld	a,#0x2C
   0005 12                  514 	ld	(de),a
   0006 13                  515 	inc	de
   0007 3E 00               516 	ld	a,#0x00
   0009 12                  517 	ld	(de),a
                            518 ; genPlus
                            519 ; genPlusIncr
   000A 11 11 00            520 	ld	de,#_freq + 2
                            521 ; genAssign (pointer)
   000D 3E 9C               522 	ld	a,#0x9C
   000F 12                  523 	ld	(de),a
   0010 13                  524 	inc	de
   0011 3E 00               525 	ld	a,#0x00
   0013 12                  526 	ld	(de),a
                            527 ; genPlus
                            528 ; genPlusIncr
   0014 11 13 00            529 	ld	de,#_freq + 4
                            530 ; genAssign (pointer)
   0017 3E 06               531 	ld	a,#0x06
   0019 12                  532 	ld	(de),a
   001A 13                  533 	inc	de
   001B 3E 01               534 	ld	a,#0x01
   001D 12                  535 	ld	(de),a
                            536 ; genPlus
                            537 ; genPlusIncr
   001E 11 15 00            538 	ld	de,#_freq + 6
                            539 ; genAssign (pointer)
   0021 3E 6B               540 	ld	a,#0x6B
   0023 12                  541 	ld	(de),a
   0024 13                  542 	inc	de
   0025 3E 01               543 	ld	a,#0x01
   0027 12                  544 	ld	(de),a
                            545 ; genPlus
                            546 ; genPlusIncr
   0028 11 17 00            547 	ld	de,#_freq + 8
                            548 ; genAssign (pointer)
   002B 3E C9               549 	ld	a,#0xC9
   002D 12                  550 	ld	(de),a
   002E 13                  551 	inc	de
   002F 3E 01               552 	ld	a,#0x01
   0031 12                  553 	ld	(de),a
                            554 ; genPlus
                            555 ; genPlusIncr
   0032 11 19 00            556 	ld	de,#_freq + 10
                            557 ; genAssign (pointer)
   0035 3E 23               558 	ld	a,#0x23
   0037 12                  559 	ld	(de),a
   0038 13                  560 	inc	de
   0039 3E 02               561 	ld	a,#0x02
   003B 12                  562 	ld	(de),a
                            563 ; genPlus
                            564 ; genPlusIncr
   003C 11 1B 00            565 	ld	de,#_freq + 12
                            566 ; genAssign (pointer)
   003F 3E 77               567 	ld	a,#0x77
   0041 12                  568 	ld	(de),a
   0042 13                  569 	inc	de
   0043 3E 02               570 	ld	a,#0x02
   0045 12                  571 	ld	(de),a
                            572 ; genPlus
                            573 ; genPlusIncr
   0046 11 1D 00            574 	ld	de,#_freq + 14
                            575 ; genAssign (pointer)
   0049 3E C6               576 	ld	a,#0xC6
   004B 12                  577 	ld	(de),a
   004C 13                  578 	inc	de
   004D 3E 02               579 	ld	a,#0x02
   004F 12                  580 	ld	(de),a
                            581 ; genPlus
                            582 ; genPlusIncr
   0050 11 1F 00            583 	ld	de,#_freq + 16
                            584 ; genAssign (pointer)
   0053 3E 12               585 	ld	a,#0x12
   0055 12                  586 	ld	(de),a
   0056 13                  587 	inc	de
   0057 3E 03               588 	ld	a,#0x03
   0059 12                  589 	ld	(de),a
                            590 ; genPlus
                            591 ; genPlusIncr
   005A 11 21 00            592 	ld	de,#_freq + 18
                            593 ; genAssign (pointer)
   005D 3E 56               594 	ld	a,#0x56
   005F 12                  595 	ld	(de),a
   0060 13                  596 	inc	de
   0061 3E 03               597 	ld	a,#0x03
   0063 12                  598 	ld	(de),a
                            599 ; genPlus
                            600 ; genPlusIncr
   0064 11 23 00            601 	ld	de,#_freq + 20
                            602 ; genAssign (pointer)
   0067 3E 9B               603 	ld	a,#0x9B
   0069 12                  604 	ld	(de),a
   006A 13                  605 	inc	de
   006B 3E 03               606 	ld	a,#0x03
   006D 12                  607 	ld	(de),a
                            608 ; genPlus
                            609 ; genPlusIncr
   006E 11 25 00            610 	ld	de,#_freq + 22
                            611 ; genAssign (pointer)
   0071 3E DA               612 	ld	a,#0xDA
   0073 12                  613 	ld	(de),a
   0074 13                  614 	inc	de
   0075 3E 03               615 	ld	a,#0x03
   0077 12                  616 	ld	(de),a
                            617 ; genPlus
                            618 ; genPlusIncr
   0078 11 27 00            619 	ld	de,#_freq + 24
                            620 ; genAssign (pointer)
   007B 3E 16               621 	ld	a,#0x16
   007D 12                  622 	ld	(de),a
   007E 13                  623 	inc	de
   007F 3E 04               624 	ld	a,#0x04
   0081 12                  625 	ld	(de),a
                            626 ; genPlus
                            627 ; genPlusIncr
   0082 11 29 00            628 	ld	de,#_freq + 26
                            629 ; genAssign (pointer)
   0085 3E 4E               630 	ld	a,#0x4E
   0087 12                  631 	ld	(de),a
   0088 13                  632 	inc	de
   0089 3E 04               633 	ld	a,#0x04
   008B 12                  634 	ld	(de),a
                            635 ; genPlus
                            636 ; genPlusIncr
   008C 11 2B 00            637 	ld	de,#_freq + 28
                            638 ; genAssign (pointer)
   008F 3E 83               639 	ld	a,#0x83
   0091 12                  640 	ld	(de),a
   0092 13                  641 	inc	de
   0093 3E 04               642 	ld	a,#0x04
   0095 12                  643 	ld	(de),a
                            644 ; genPlus
                            645 ; genPlusIncr
   0096 11 2D 00            646 	ld	de,#_freq + 30
                            647 ; genAssign (pointer)
   0099 3E B5               648 	ld	a,#0xB5
   009B 12                  649 	ld	(de),a
   009C 13                  650 	inc	de
   009D 3E 04               651 	ld	a,#0x04
   009F 12                  652 	ld	(de),a
                            653 ; genPlus
                            654 ; genPlusIncr
   00A0 11 2F 00            655 	ld	de,#_freq + 32
                            656 ; genAssign (pointer)
   00A3 3E E5               657 	ld	a,#0xE5
   00A5 12                  658 	ld	(de),a
   00A6 13                  659 	inc	de
   00A7 3E 04               660 	ld	a,#0x04
   00A9 12                  661 	ld	(de),a
                            662 ; genPlus
                            663 ; genPlusIncr
   00AA 11 31 00            664 	ld	de,#_freq + 34
                            665 ; genAssign (pointer)
   00AD 3E 11               666 	ld	a,#0x11
   00AF 12                  667 	ld	(de),a
   00B0 13                  668 	inc	de
   00B1 3E 05               669 	ld	a,#0x05
   00B3 12                  670 	ld	(de),a
                            671 ; genPlus
                            672 ; genPlusIncr
   00B4 11 33 00            673 	ld	de,#_freq + 36
                            674 ; genAssign (pointer)
   00B7 3E 3B               675 	ld	a,#0x3B
   00B9 12                  676 	ld	(de),a
   00BA 13                  677 	inc	de
   00BB 3E 05               678 	ld	a,#0x05
   00BD 12                  679 	ld	(de),a
                            680 ; genPlus
                            681 ; genPlusIncr
   00BE 11 35 00            682 	ld	de,#_freq + 38
                            683 ; genAssign (pointer)
   00C1 3E 63               684 	ld	a,#0x63
   00C3 12                  685 	ld	(de),a
   00C4 13                  686 	inc	de
   00C5 3E 05               687 	ld	a,#0x05
   00C7 12                  688 	ld	(de),a
                            689 ; genPlus
                            690 ; genPlusIncr
   00C8 11 37 00            691 	ld	de,#_freq + 40
                            692 ; genAssign (pointer)
   00CB 3E 89               693 	ld	a,#0x89
   00CD 12                  694 	ld	(de),a
   00CE 13                  695 	inc	de
   00CF 3E 05               696 	ld	a,#0x05
   00D1 12                  697 	ld	(de),a
                            698 ; genPlus
                            699 ; genPlusIncr
   00D2 11 39 00            700 	ld	de,#_freq + 42
                            701 ; genAssign (pointer)
   00D5 3E AC               702 	ld	a,#0xAC
   00D7 12                  703 	ld	(de),a
   00D8 13                  704 	inc	de
   00D9 3E 05               705 	ld	a,#0x05
   00DB 12                  706 	ld	(de),a
                            707 ; genPlus
                            708 ; genPlusIncr
   00DC 11 3B 00            709 	ld	de,#_freq + 44
                            710 ; genAssign (pointer)
   00DF 3E CE               711 	ld	a,#0xCE
   00E1 12                  712 	ld	(de),a
   00E2 13                  713 	inc	de
   00E3 3E 05               714 	ld	a,#0x05
   00E5 12                  715 	ld	(de),a
                            716 ; genPlus
                            717 ; genPlusIncr
   00E6 11 3D 00            718 	ld	de,#_freq + 46
                            719 ; genAssign (pointer)
   00E9 3E ED               720 	ld	a,#0xED
   00EB 12                  721 	ld	(de),a
   00EC 13                  722 	inc	de
   00ED 3E 05               723 	ld	a,#0x05
   00EF 12                  724 	ld	(de),a
                            725 ; genPlus
                            726 ; genPlusIncr
   00F0 11 3F 00            727 	ld	de,#_freq + 48
                            728 ; genAssign (pointer)
   00F3 3E 0A               729 	ld	a,#0x0A
   00F5 12                  730 	ld	(de),a
   00F6 13                  731 	inc	de
   00F7 3E 06               732 	ld	a,#0x06
   00F9 12                  733 	ld	(de),a
                            734 ; genPlus
                            735 ; genPlusIncr
   00FA 11 41 00            736 	ld	de,#_freq + 50
                            737 ; genAssign (pointer)
   00FD 3E 27               738 	ld	a,#0x27
   00FF 12                  739 	ld	(de),a
   0100 13                  740 	inc	de
   0101 3E 06               741 	ld	a,#0x06
   0103 12                  742 	ld	(de),a
                            743 ; genPlus
                            744 ; genPlusIncr
   0104 11 43 00            745 	ld	de,#_freq + 52
                            746 ; genAssign (pointer)
   0107 3E 42               747 	ld	a,#0x42
   0109 12                  748 	ld	(de),a
   010A 13                  749 	inc	de
   010B 3E 06               750 	ld	a,#0x06
   010D 12                  751 	ld	(de),a
                            752 ; genPlus
                            753 ; genPlusIncr
   010E 11 45 00            754 	ld	de,#_freq + 54
                            755 ; genAssign (pointer)
   0111 3E 5B               756 	ld	a,#0x5B
   0113 12                  757 	ld	(de),a
   0114 13                  758 	inc	de
   0115 3E 06               759 	ld	a,#0x06
   0117 12                  760 	ld	(de),a
                            761 ; genPlus
                            762 ; genPlusIncr
   0118 11 47 00            763 	ld	de,#_freq + 56
                            764 ; genAssign (pointer)
   011B 3E 72               765 	ld	a,#0x72
   011D 12                  766 	ld	(de),a
   011E 13                  767 	inc	de
   011F 3E 06               768 	ld	a,#0x06
   0121 12                  769 	ld	(de),a
                            770 ; genPlus
                            771 ; genPlusIncr
   0122 11 49 00            772 	ld	de,#_freq + 58
                            773 ; genAssign (pointer)
   0125 3E 89               774 	ld	a,#0x89
   0127 12                  775 	ld	(de),a
   0128 13                  776 	inc	de
   0129 3E 06               777 	ld	a,#0x06
   012B 12                  778 	ld	(de),a
                            779 ; genPlus
                            780 ; genPlusIncr
   012C 11 4B 00            781 	ld	de,#_freq + 60
                            782 ; genAssign (pointer)
   012F 3E 9E               783 	ld	a,#0x9E
   0131 12                  784 	ld	(de),a
   0132 13                  785 	inc	de
   0133 3E 06               786 	ld	a,#0x06
   0135 12                  787 	ld	(de),a
                            788 ; genPlus
                            789 ; genPlusIncr
   0136 11 4D 00            790 	ld	de,#_freq + 62
                            791 ; genAssign (pointer)
   0139 3E B2               792 	ld	a,#0xB2
   013B 12                  793 	ld	(de),a
   013C 13                  794 	inc	de
   013D 3E 06               795 	ld	a,#0x06
   013F 12                  796 	ld	(de),a
                            797 ; genPlus
                            798 ; genPlusIncr
   0140 11 4F 00            799 	ld	de,#_freq + 64
                            800 ; genAssign (pointer)
   0143 3E C4               801 	ld	a,#0xC4
   0145 12                  802 	ld	(de),a
   0146 13                  803 	inc	de
   0147 3E 06               804 	ld	a,#0x06
   0149 12                  805 	ld	(de),a
                            806 ; genPlus
                            807 ; genPlusIncr
   014A 11 51 00            808 	ld	de,#_freq + 66
                            809 ; genAssign (pointer)
   014D 3E D6               810 	ld	a,#0xD6
   014F 12                  811 	ld	(de),a
   0150 13                  812 	inc	de
   0151 3E 06               813 	ld	a,#0x06
   0153 12                  814 	ld	(de),a
                            815 ; genPlus
                            816 ; genPlusIncr
   0154 11 53 00            817 	ld	de,#_freq + 68
                            818 ; genAssign (pointer)
   0157 3E E7               819 	ld	a,#0xE7
   0159 12                  820 	ld	(de),a
   015A 13                  821 	inc	de
   015B 3E 06               822 	ld	a,#0x06
   015D 12                  823 	ld	(de),a
                            824 ; genPlus
                            825 ; genPlusIncr
   015E 11 55 00            826 	ld	de,#_freq + 70
                            827 ; genAssign (pointer)
   0161 3E F7               828 	ld	a,#0xF7
   0163 12                  829 	ld	(de),a
   0164 13                  830 	inc	de
   0165 3E 06               831 	ld	a,#0x06
   0167 12                  832 	ld	(de),a
                            833 ; genPlus
                            834 ; genPlusIncr
   0168 11 57 00            835 	ld	de,#_freq + 72
                            836 ; genAssign (pointer)
   016B 3E 06               837 	ld	a,#0x06
   016D 12                  838 	ld	(de),a
   016E 13                  839 	inc	de
   016F 3E 07               840 	ld	a,#0x07
   0171 12                  841 	ld	(de),a
                            842 ; genPlus
                            843 ; genPlusIncr
   0172 11 59 00            844 	ld	de,#_freq + 74
                            845 ; genAssign (pointer)
   0175 3E 14               846 	ld	a,#0x14
   0177 12                  847 	ld	(de),a
   0178 13                  848 	inc	de
   0179 3E 07               849 	ld	a,#0x07
   017B 12                  850 	ld	(de),a
                            851 ; genPlus
                            852 ; genPlusIncr
   017C 11 5B 00            853 	ld	de,#_freq + 76
                            854 ; genAssign (pointer)
   017F 3E 21               855 	ld	a,#0x21
   0181 12                  856 	ld	(de),a
   0182 13                  857 	inc	de
   0183 3E 07               858 	ld	a,#0x07
   0185 12                  859 	ld	(de),a
                            860 ; genPlus
                            861 ; genPlusIncr
   0186 11 5D 00            862 	ld	de,#_freq + 78
                            863 ; genAssign (pointer)
   0189 3E 2D               864 	ld	a,#0x2D
   018B 12                  865 	ld	(de),a
   018C 13                  866 	inc	de
   018D 3E 07               867 	ld	a,#0x07
   018F 12                  868 	ld	(de),a
                            869 ; genPlus
                            870 ; genPlusIncr
   0190 11 5F 00            871 	ld	de,#_freq + 80
                            872 ; genAssign (pointer)
   0193 3E 39               873 	ld	a,#0x39
   0195 12                  874 	ld	(de),a
   0196 13                  875 	inc	de
   0197 3E 07               876 	ld	a,#0x07
   0199 12                  877 	ld	(de),a
                            878 ; genPlus
                            879 ; genPlusIncr
   019A 11 61 00            880 	ld	de,#_freq + 82
                            881 ; genAssign (pointer)
   019D 3E 44               882 	ld	a,#0x44
   019F 12                  883 	ld	(de),a
   01A0 13                  884 	inc	de
   01A1 3E 07               885 	ld	a,#0x07
   01A3 12                  886 	ld	(de),a
                            887 ; genPlus
                            888 ; genPlusIncr
   01A4 11 63 00            889 	ld	de,#_freq + 84
                            890 ; genAssign (pointer)
   01A7 3E 4F               891 	ld	a,#0x4F
   01A9 12                  892 	ld	(de),a
   01AA 13                  893 	inc	de
   01AB 3E 07               894 	ld	a,#0x07
   01AD 12                  895 	ld	(de),a
                            896 ; genPlus
                            897 ; genPlusIncr
   01AE 11 65 00            898 	ld	de,#_freq + 86
                            899 ; genAssign (pointer)
   01B1 3E 59               900 	ld	a,#0x59
   01B3 12                  901 	ld	(de),a
   01B4 13                  902 	inc	de
   01B5 3E 07               903 	ld	a,#0x07
   01B7 12                  904 	ld	(de),a
                            905 ; genPlus
                            906 ; genPlusIncr
   01B8 11 67 00            907 	ld	de,#_freq + 88
                            908 ; genAssign (pointer)
   01BB 3E 62               909 	ld	a,#0x62
   01BD 12                  910 	ld	(de),a
   01BE 13                  911 	inc	de
   01BF 3E 07               912 	ld	a,#0x07
   01C1 12                  913 	ld	(de),a
                            914 ; genPlus
                            915 ; genPlusIncr
   01C2 11 69 00            916 	ld	de,#_freq + 90
                            917 ; genAssign (pointer)
   01C5 3E 6B               918 	ld	a,#0x6B
   01C7 12                  919 	ld	(de),a
   01C8 13                  920 	inc	de
   01C9 3E 07               921 	ld	a,#0x07
   01CB 12                  922 	ld	(de),a
                            923 ; genPlus
                            924 ; genPlusIncr
   01CC 11 6B 00            925 	ld	de,#_freq + 92
                            926 ; genAssign (pointer)
   01CF 3E 73               927 	ld	a,#0x73
   01D1 12                  928 	ld	(de),a
   01D2 13                  929 	inc	de
   01D3 3E 07               930 	ld	a,#0x07
   01D5 12                  931 	ld	(de),a
                            932 ; genPlus
                            933 ; genPlusIncr
   01D6 11 6D 00            934 	ld	de,#_freq + 94
                            935 ; genAssign (pointer)
   01D9 3E 7B               936 	ld	a,#0x7B
   01DB 12                  937 	ld	(de),a
   01DC 13                  938 	inc	de
   01DD 3E 07               939 	ld	a,#0x07
   01DF 12                  940 	ld	(de),a
                            941 ; genPlus
                            942 ; genPlusIncr
   01E0 11 6F 00            943 	ld	de,#_freq + 96
                            944 ; genAssign (pointer)
   01E3 3E 83               945 	ld	a,#0x83
   01E5 12                  946 	ld	(de),a
   01E6 13                  947 	inc	de
   01E7 3E 07               948 	ld	a,#0x07
   01E9 12                  949 	ld	(de),a
                            950 ; genPlus
                            951 ; genPlusIncr
   01EA 11 71 00            952 	ld	de,#_freq + 98
                            953 ; genAssign (pointer)
   01ED 3E 8A               954 	ld	a,#0x8A
   01EF 12                  955 	ld	(de),a
   01F0 13                  956 	inc	de
   01F1 3E 07               957 	ld	a,#0x07
   01F3 12                  958 	ld	(de),a
                            959 ; genPlus
                            960 ; genPlusIncr
   01F4 11 73 00            961 	ld	de,#_freq + 100
                            962 ; genAssign (pointer)
   01F7 3E 90               963 	ld	a,#0x90
   01F9 12                  964 	ld	(de),a
   01FA 13                  965 	inc	de
   01FB 3E 07               966 	ld	a,#0x07
   01FD 12                  967 	ld	(de),a
                            968 ; genPlus
                            969 ; genPlusIncr
   01FE 11 75 00            970 	ld	de,#_freq + 102
                            971 ; genAssign (pointer)
   0201 3E 97               972 	ld	a,#0x97
   0203 12                  973 	ld	(de),a
   0204 13                  974 	inc	de
   0205 3E 07               975 	ld	a,#0x07
   0207 12                  976 	ld	(de),a
                            977 ; genPlus
                            978 ; genPlusIncr
   0208 11 77 00            979 	ld	de,#_freq + 104
                            980 ; genAssign (pointer)
   020B 3E 9D               981 	ld	a,#0x9D
   020D 12                  982 	ld	(de),a
   020E 13                  983 	inc	de
   020F 3E 07               984 	ld	a,#0x07
   0211 12                  985 	ld	(de),a
                            986 ; genPlus
                            987 ; genPlusIncr
   0212 11 79 00            988 	ld	de,#_freq + 106
                            989 ; genAssign (pointer)
   0215 3E A2               990 	ld	a,#0xA2
   0217 12                  991 	ld	(de),a
   0218 13                  992 	inc	de
   0219 3E 07               993 	ld	a,#0x07
   021B 12                  994 	ld	(de),a
                            995 ; genPlus
                            996 ; genPlusIncr
   021C 11 7B 00            997 	ld	de,#_freq + 108
                            998 ; genAssign (pointer)
   021F 3E A7               999 	ld	a,#0xA7
   0221 12                 1000 	ld	(de),a
   0222 13                 1001 	inc	de
   0223 3E 07              1002 	ld	a,#0x07
   0225 12                 1003 	ld	(de),a
                           1004 ; genPlus
                           1005 ; genPlusIncr
   0226 11 7D 00           1006 	ld	de,#_freq + 110
                           1007 ; genAssign (pointer)
   0229 3E AC              1008 	ld	a,#0xAC
   022B 12                 1009 	ld	(de),a
   022C 13                 1010 	inc	de
   022D 3E 07              1011 	ld	a,#0x07
   022F 12                 1012 	ld	(de),a
                           1013 ; genPlus
                           1014 ; genPlusIncr
   0230 11 7F 00           1015 	ld	de,#_freq + 112
                           1016 ; genAssign (pointer)
   0233 3E B1              1017 	ld	a,#0xB1
   0235 12                 1018 	ld	(de),a
   0236 13                 1019 	inc	de
   0237 3E 07              1020 	ld	a,#0x07
   0239 12                 1021 	ld	(de),a
                           1022 ; genPlus
                           1023 ; genPlusIncr
   023A 11 81 00           1024 	ld	de,#_freq + 114
                           1025 ; genAssign (pointer)
   023D 3E B6              1026 	ld	a,#0xB6
   023F 12                 1027 	ld	(de),a
   0240 13                 1028 	inc	de
   0241 3E 07              1029 	ld	a,#0x07
   0243 12                 1030 	ld	(de),a
                           1031 ; genPlus
                           1032 ; genPlusIncr
   0244 11 83 00           1033 	ld	de,#_freq + 116
                           1034 ; genAssign (pointer)
   0247 3E BA              1035 	ld	a,#0xBA
   0249 12                 1036 	ld	(de),a
   024A 13                 1037 	inc	de
   024B 3E 07              1038 	ld	a,#0x07
   024D 12                 1039 	ld	(de),a
                           1040 ; genPlus
                           1041 ; genPlusIncr
   024E 11 85 00           1042 	ld	de,#_freq + 118
                           1043 ; genAssign (pointer)
   0251 3E BE              1044 	ld	a,#0xBE
   0253 12                 1045 	ld	(de),a
   0254 13                 1046 	inc	de
   0255 3E 07              1047 	ld	a,#0x07
   0257 12                 1048 	ld	(de),a
                           1049 ; genPlus
                           1050 ; genPlusIncr
   0258 11 87 00           1051 	ld	de,#_freq + 120
                           1052 ; genAssign (pointer)
   025B 3E C1              1053 	ld	a,#0xC1
   025D 12                 1054 	ld	(de),a
   025E 13                 1055 	inc	de
   025F 3E 07              1056 	ld	a,#0x07
   0261 12                 1057 	ld	(de),a
                           1058 ; genPlus
                           1059 ; genPlusIncr
   0262 11 89 00           1060 	ld	de,#_freq + 122
                           1061 ; genAssign (pointer)
   0265 3E C4              1062 	ld	a,#0xC4
   0267 12                 1063 	ld	(de),a
   0268 13                 1064 	inc	de
   0269 3E 07              1065 	ld	a,#0x07
   026B 12                 1066 	ld	(de),a
                           1067 ; genPlus
                           1068 ; genPlusIncr
   026C 11 8B 00           1069 	ld	de,#_freq + 124
                           1070 ; genAssign (pointer)
   026F 3E C8              1071 	ld	a,#0xC8
   0271 12                 1072 	ld	(de),a
   0272 13                 1073 	inc	de
   0273 3E 07              1074 	ld	a,#0x07
   0275 12                 1075 	ld	(de),a
                           1076 ; genPlus
                           1077 ; genPlusIncr
   0276 11 8D 00           1078 	ld	de,#_freq + 126
                           1079 ; genAssign (pointer)
   0279 3E CB              1080 	ld	a,#0xCB
   027B 12                 1081 	ld	(de),a
   027C 13                 1082 	inc	de
   027D 3E 07              1083 	ld	a,#0x07
   027F 12                 1084 	ld	(de),a
                           1085 ; genPlus
                           1086 ; genPlusIncr
   0280 11 8F 00           1087 	ld	de,#_freq + 128
                           1088 ; genAssign (pointer)
   0283 3E CE              1089 	ld	a,#0xCE
   0285 12                 1090 	ld	(de),a
   0286 13                 1091 	inc	de
   0287 3E 07              1092 	ld	a,#0x07
   0289 12                 1093 	ld	(de),a
                           1094 ; genPlus
                           1095 ; genPlusIncr
   028A 11 91 00           1096 	ld	de,#_freq + 130
                           1097 ; genAssign (pointer)
   028D 3E D1              1098 	ld	a,#0xD1
   028F 12                 1099 	ld	(de),a
   0290 13                 1100 	inc	de
   0291 3E 07              1101 	ld	a,#0x07
   0293 12                 1102 	ld	(de),a
                           1103 ; genPlus
                           1104 ; genPlusIncr
   0294 11 93 00           1105 	ld	de,#_freq + 132
                           1106 ; genAssign (pointer)
   0297 3E D4              1107 	ld	a,#0xD4
   0299 12                 1108 	ld	(de),a
   029A 13                 1109 	inc	de
   029B 3E 07              1110 	ld	a,#0x07
   029D 12                 1111 	ld	(de),a
                           1112 ; genPlus
                           1113 ; genPlusIncr
   029E 11 95 00           1114 	ld	de,#_freq + 134
                           1115 ; genAssign (pointer)
   02A1 3E D6              1116 	ld	a,#0xD6
   02A3 12                 1117 	ld	(de),a
   02A4 13                 1118 	inc	de
   02A5 3E 07              1119 	ld	a,#0x07
   02A7 12                 1120 	ld	(de),a
                           1121 ; genPlus
                           1122 ; genPlusIncr
   02A8 11 97 00           1123 	ld	de,#_freq + 136
                           1124 ; genAssign (pointer)
   02AB 3E D9              1125 	ld	a,#0xD9
   02AD 12                 1126 	ld	(de),a
   02AE 13                 1127 	inc	de
   02AF 3E 07              1128 	ld	a,#0x07
   02B1 12                 1129 	ld	(de),a
                           1130 ; genPlus
                           1131 ; genPlusIncr
   02B2 11 99 00           1132 	ld	de,#_freq + 138
                           1133 ; genAssign (pointer)
   02B5 3E DB              1134 	ld	a,#0xDB
   02B7 12                 1135 	ld	(de),a
   02B8 13                 1136 	inc	de
   02B9 3E 07              1137 	ld	a,#0x07
   02BB 12                 1138 	ld	(de),a
                           1139 ; genPlus
                           1140 ; genPlusIncr
   02BC 11 9B 00           1141 	ld	de,#_freq + 140
                           1142 ; genAssign (pointer)
   02BF 3E DD              1143 	ld	a,#0xDD
   02C1 12                 1144 	ld	(de),a
   02C2 13                 1145 	inc	de
   02C3 3E 07              1146 	ld	a,#0x07
   02C5 12                 1147 	ld	(de),a
                           1148 ; genPlus
                           1149 ; genPlusIncr
   02C6 11 9D 00           1150 	ld	de,#_freq + 142
                           1151 ; genAssign (pointer)
   02C9 3E DF              1152 	ld	a,#0xDF
   02CB 12                 1153 	ld	(de),a
   02CC 13                 1154 	inc	de
   02CD 3E 07              1155 	ld	a,#0x07
   02CF 12                 1156 	ld	(de),a
                           1157 ;	mGB.c 168
                           1158 ; genAssign (pointer)
   02D0 11 9F 00           1159 	ld	de,#_noteStatus + 0
   02D3 3E 00              1160 	ld	a,#0x00
   02D5 12                 1161 	ld	(de),a
                           1162 ; genPlus
                           1163 ; genPlusIncr
   02D6 11 A0 00           1164 	ld	de,#_noteStatus + 1
                           1165 ; genAssign (pointer)
   02D9 3E 00              1166 	ld	a,#0x00
   02DB 12                 1167 	ld	(de),a
                           1168 ; genPlus
                           1169 ; genPlusIncr
   02DC 11 A1 00           1170 	ld	de,#_noteStatus + 2
                           1171 ; genAssign (pointer)
   02DF 3E 00              1172 	ld	a,#0x00
   02E1 12                 1173 	ld	(de),a
                           1174 ; genPlus
                           1175 ; genPlusIncr
   02E2 11 A2 00           1176 	ld	de,#_noteStatus + 3
                           1177 ; genAssign (pointer)
   02E5 3E 00              1178 	ld	a,#0x00
   02E7 12                 1179 	ld	(de),a
                           1180 ; genPlus
                           1181 ; genPlusIncr
   02E8 11 A3 00           1182 	ld	de,#_noteStatus + 4
                           1183 ; genAssign (pointer)
   02EB 3E 00              1184 	ld	a,#0x00
   02ED 12                 1185 	ld	(de),a
                           1186 ; genPlus
                           1187 ; genPlusIncr
   02EE 11 A4 00           1188 	ld	de,#_noteStatus + 5
                           1189 ; genAssign (pointer)
   02F1 3E 00              1190 	ld	a,#0x00
   02F3 12                 1191 	ld	(de),a
                           1192 ; genPlus
                           1193 ; genPlusIncr
   02F4 11 A5 00           1194 	ld	de,#_noteStatus + 6
                           1195 ; genAssign (pointer)
   02F7 3E 00              1196 	ld	a,#0x00
   02F9 12                 1197 	ld	(de),a
                           1198 ; genPlus
                           1199 ; genPlusIncr
   02FA 11 A6 00           1200 	ld	de,#_noteStatus + 7
                           1201 ; genAssign (pointer)
   02FD 3E 00              1202 	ld	a,#0x00
   02FF 12                 1203 	ld	(de),a
                           1204 ;	mGB.c 168
                           1205 ; genAssign (pointer)
   0300 11 A7 00           1206 	ld	de,#_prevNote + 0
   0303 3E 00              1207 	ld	a,#0x00
   0305 12                 1208 	ld	(de),a
                           1209 ; genPlus
                           1210 ; genPlusIncr
   0306 11 A8 00           1211 	ld	de,#_prevNote + 1
                           1212 ; genAssign (pointer)
   0309 3E 00              1213 	ld	a,#0x00
   030B 12                 1214 	ld	(de),a
                           1215 ; genPlus
                           1216 ; genPlusIncr
   030C 11 A9 00           1217 	ld	de,#_prevNote + 2
                           1218 ; genAssign (pointer)
   030F 3E 00              1219 	ld	a,#0x00
   0311 12                 1220 	ld	(de),a
                           1221 ; genPlus
                           1222 ; genPlusIncr
   0312 11 AA 00           1223 	ld	de,#_prevNote + 3
                           1224 ; genAssign (pointer)
   0315 3E 00              1225 	ld	a,#0x00
   0317 12                 1226 	ld	(de),a
                           1227 ;	mGB.c 168
                           1228 ; genAssign
                           1229 ; AOP_HL for _prevNoteTmp
   0318 21 AB 00           1230 	ld	hl,#_prevNoteTmp + 0
   031B 36 00              1231 	ld	(hl),#0x00
                           1232 ;	mGB.c 168
                           1233 ; genAssign (pointer)
   031D 11 AC 00           1234 	ld	de,#_noiFreq + 0
   0320 3E 94              1235 	ld	a,#0x94
   0322 12                 1236 	ld	(de),a
                           1237 ; genPlus
                           1238 ; genPlusIncr
   0323 11 AD 00           1239 	ld	de,#_noiFreq + 1
                           1240 ; genAssign (pointer)
   0326 3E 87              1241 	ld	a,#0x87
   0328 12                 1242 	ld	(de),a
                           1243 ; genPlus
                           1244 ; genPlusIncr
   0329 11 AE 00           1245 	ld	de,#_noiFreq + 2
                           1246 ; genAssign (pointer)
   032C 3E 86              1247 	ld	a,#0x86
   032E 12                 1248 	ld	(de),a
                           1249 ; genPlus
                           1250 ; genPlusIncr
   032F 11 AF 00           1251 	ld	de,#_noiFreq + 3
                           1252 ; genAssign (pointer)
   0332 3E 85              1253 	ld	a,#0x85
   0334 12                 1254 	ld	(de),a
                           1255 ; genPlus
                           1256 ; genPlusIncr
   0335 11 B0 00           1257 	ld	de,#_noiFreq + 4
                           1258 ; genAssign (pointer)
   0338 3E 84              1259 	ld	a,#0x84
   033A 12                 1260 	ld	(de),a
                           1261 ; genPlus
                           1262 ; genPlusIncr
   033B 11 B1 00           1263 	ld	de,#_noiFreq + 5
                           1264 ; genAssign (pointer)
   033E 3E 77              1265 	ld	a,#0x77
   0340 12                 1266 	ld	(de),a
                           1267 ; genPlus
                           1268 ; genPlusIncr
   0341 11 B2 00           1269 	ld	de,#_noiFreq + 6
                           1270 ; genAssign (pointer)
   0344 3E 76              1271 	ld	a,#0x76
   0346 12                 1272 	ld	(de),a
                           1273 ; genPlus
                           1274 ; genPlusIncr
   0347 11 B3 00           1275 	ld	de,#_noiFreq + 7
                           1276 ; genAssign (pointer)
   034A 3E 75              1277 	ld	a,#0x75
   034C 12                 1278 	ld	(de),a
                           1279 ; genPlus
                           1280 ; genPlusIncr
   034D 11 B4 00           1281 	ld	de,#_noiFreq + 8
                           1282 ; genAssign (pointer)
   0350 3E 74              1283 	ld	a,#0x74
   0352 12                 1284 	ld	(de),a
                           1285 ; genPlus
                           1286 ; genPlusIncr
   0353 11 B5 00           1287 	ld	de,#_noiFreq + 9
                           1288 ; genAssign (pointer)
   0356 3E 67              1289 	ld	a,#0x67
   0358 12                 1290 	ld	(de),a
                           1291 ; genPlus
                           1292 ; genPlusIncr
   0359 11 B6 00           1293 	ld	de,#_noiFreq + 10
                           1294 ; genAssign (pointer)
   035C 3E 66              1295 	ld	a,#0x66
   035E 12                 1296 	ld	(de),a
                           1297 ; genPlus
                           1298 ; genPlusIncr
   035F 11 B7 00           1299 	ld	de,#_noiFreq + 11
                           1300 ; genAssign (pointer)
   0362 3E 65              1301 	ld	a,#0x65
   0364 12                 1302 	ld	(de),a
                           1303 ; genPlus
                           1304 ; genPlusIncr
   0365 11 B8 00           1305 	ld	de,#_noiFreq + 12
                           1306 ; genAssign (pointer)
   0368 3E 64              1307 	ld	a,#0x64
   036A 12                 1308 	ld	(de),a
                           1309 ; genPlus
                           1310 ; genPlusIncr
   036B 11 B9 00           1311 	ld	de,#_noiFreq + 13
                           1312 ; genAssign (pointer)
   036E 3E 57              1313 	ld	a,#0x57
   0370 12                 1314 	ld	(de),a
                           1315 ; genPlus
                           1316 ; genPlusIncr
   0371 11 BA 00           1317 	ld	de,#_noiFreq + 14
                           1318 ; genAssign (pointer)
   0374 3E 56              1319 	ld	a,#0x56
   0376 12                 1320 	ld	(de),a
                           1321 ; genPlus
                           1322 ; genPlusIncr
   0377 11 BB 00           1323 	ld	de,#_noiFreq + 15
                           1324 ; genAssign (pointer)
   037A 3E 55              1325 	ld	a,#0x55
   037C 12                 1326 	ld	(de),a
                           1327 ; genPlus
                           1328 ; genPlusIncr
   037D 11 BC 00           1329 	ld	de,#_noiFreq + 16
                           1330 ; genAssign (pointer)
   0380 3E 54              1331 	ld	a,#0x54
   0382 12                 1332 	ld	(de),a
                           1333 ; genPlus
                           1334 ; genPlusIncr
   0383 11 BD 00           1335 	ld	de,#_noiFreq + 17
                           1336 ; genAssign (pointer)
   0386 3E 47              1337 	ld	a,#0x47
   0388 12                 1338 	ld	(de),a
                           1339 ; genPlus
                           1340 ; genPlusIncr
   0389 11 BE 00           1341 	ld	de,#_noiFreq + 18
                           1342 ; genAssign (pointer)
   038C 3E 46              1343 	ld	a,#0x46
   038E 12                 1344 	ld	(de),a
                           1345 ; genPlus
                           1346 ; genPlusIncr
   038F 11 BF 00           1347 	ld	de,#_noiFreq + 19
                           1348 ; genAssign (pointer)
   0392 3E 45              1349 	ld	a,#0x45
   0394 12                 1350 	ld	(de),a
                           1351 ; genPlus
                           1352 ; genPlusIncr
   0395 11 C0 00           1353 	ld	de,#_noiFreq + 20
                           1354 ; genAssign (pointer)
   0398 3E 44              1355 	ld	a,#0x44
   039A 12                 1356 	ld	(de),a
                           1357 ; genPlus
                           1358 ; genPlusIncr
   039B 11 C1 00           1359 	ld	de,#_noiFreq + 21
                           1360 ; genAssign (pointer)
   039E 3E 37              1361 	ld	a,#0x37
   03A0 12                 1362 	ld	(de),a
                           1363 ; genPlus
                           1364 ; genPlusIncr
   03A1 11 C2 00           1365 	ld	de,#_noiFreq + 22
                           1366 ; genAssign (pointer)
   03A4 3E 36              1367 	ld	a,#0x36
   03A6 12                 1368 	ld	(de),a
                           1369 ; genPlus
                           1370 ; genPlusIncr
   03A7 11 C3 00           1371 	ld	de,#_noiFreq + 23
                           1372 ; genAssign (pointer)
   03AA 3E 35              1373 	ld	a,#0x35
   03AC 12                 1374 	ld	(de),a
                           1375 ; genPlus
                           1376 ; genPlusIncr
   03AD 11 C4 00           1377 	ld	de,#_noiFreq + 24
                           1378 ; genAssign (pointer)
   03B0 3E 34              1379 	ld	a,#0x34
   03B2 12                 1380 	ld	(de),a
                           1381 ; genPlus
                           1382 ; genPlusIncr
   03B3 11 C5 00           1383 	ld	de,#_noiFreq + 25
                           1384 ; genAssign (pointer)
   03B6 3E 27              1385 	ld	a,#0x27
   03B8 12                 1386 	ld	(de),a
                           1387 ; genPlus
                           1388 ; genPlusIncr
   03B9 11 C6 00           1389 	ld	de,#_noiFreq + 26
                           1390 ; genAssign (pointer)
   03BC 3E 26              1391 	ld	a,#0x26
   03BE 12                 1392 	ld	(de),a
                           1393 ; genPlus
                           1394 ; genPlusIncr
   03BF 11 C7 00           1395 	ld	de,#_noiFreq + 27
                           1396 ; genAssign (pointer)
   03C2 3E 25              1397 	ld	a,#0x25
   03C4 12                 1398 	ld	(de),a
                           1399 ; genPlus
                           1400 ; genPlusIncr
   03C5 11 C8 00           1401 	ld	de,#_noiFreq + 28
                           1402 ; genAssign (pointer)
   03C8 3E 24              1403 	ld	a,#0x24
   03CA 12                 1404 	ld	(de),a
                           1405 ; genPlus
                           1406 ; genPlusIncr
   03CB 11 C9 00           1407 	ld	de,#_noiFreq + 29
                           1408 ; genAssign (pointer)
   03CE 3E 17              1409 	ld	a,#0x17
   03D0 12                 1410 	ld	(de),a
                           1411 ; genPlus
                           1412 ; genPlusIncr
   03D1 11 CA 00           1413 	ld	de,#_noiFreq + 30
                           1414 ; genAssign (pointer)
   03D4 3E 16              1415 	ld	a,#0x16
   03D6 12                 1416 	ld	(de),a
                           1417 ; genPlus
                           1418 ; genPlusIncr
   03D7 11 CB 00           1419 	ld	de,#_noiFreq + 31
                           1420 ; genAssign (pointer)
   03DA 3E 15              1421 	ld	a,#0x15
   03DC 12                 1422 	ld	(de),a
                           1423 ; genPlus
                           1424 ; genPlusIncr
   03DD 11 CC 00           1425 	ld	de,#_noiFreq + 32
                           1426 ; genAssign (pointer)
   03E0 3E 14              1427 	ld	a,#0x14
   03E2 12                 1428 	ld	(de),a
                           1429 ; genPlus
                           1430 ; genPlusIncr
   03E3 11 CD 00           1431 	ld	de,#_noiFreq + 33
                           1432 ; genAssign (pointer)
   03E6 3E 07              1433 	ld	a,#0x07
   03E8 12                 1434 	ld	(de),a
                           1435 ; genPlus
                           1436 ; genPlusIncr
   03E9 11 CE 00           1437 	ld	de,#_noiFreq + 34
                           1438 ; genAssign (pointer)
   03EC 3E 06              1439 	ld	a,#0x06
   03EE 12                 1440 	ld	(de),a
                           1441 ; genPlus
                           1442 ; genPlusIncr
   03EF 11 CF 00           1443 	ld	de,#_noiFreq + 35
                           1444 ; genAssign (pointer)
   03F2 3E 00              1445 	ld	a,#0x00
   03F4 12                 1446 	ld	(de),a
                           1447 ; genPlus
                           1448 ; genPlusIncr
   03F5 11 D0 00           1449 	ld	de,#_noiFreq + 36
                           1450 ; genAssign (pointer)
   03F8 3E 9C              1451 	ld	a,#0x9C
   03FA 12                 1452 	ld	(de),a
                           1453 ; genPlus
                           1454 ; genPlusIncr
   03FB 11 D1 00           1455 	ld	de,#_noiFreq + 37
                           1456 ; genAssign (pointer)
   03FE 3E 8F              1457 	ld	a,#0x8F
   0400 12                 1458 	ld	(de),a
                           1459 ; genPlus
                           1460 ; genPlusIncr
   0401 11 D2 00           1461 	ld	de,#_noiFreq + 38
                           1462 ; genAssign (pointer)
   0404 3E 8E              1463 	ld	a,#0x8E
   0406 12                 1464 	ld	(de),a
                           1465 ; genPlus
                           1466 ; genPlusIncr
   0407 11 D3 00           1467 	ld	de,#_noiFreq + 39
                           1468 ; genAssign (pointer)
   040A 3E 8D              1469 	ld	a,#0x8D
   040C 12                 1470 	ld	(de),a
                           1471 ; genPlus
                           1472 ; genPlusIncr
   040D 11 D4 00           1473 	ld	de,#_noiFreq + 40
                           1474 ; genAssign (pointer)
   0410 3E 8C              1475 	ld	a,#0x8C
   0412 12                 1476 	ld	(de),a
                           1477 ; genPlus
                           1478 ; genPlusIncr
   0413 11 D5 00           1479 	ld	de,#_noiFreq + 41
                           1480 ; genAssign (pointer)
   0416 3E 7F              1481 	ld	a,#0x7F
   0418 12                 1482 	ld	(de),a
                           1483 ; genPlus
                           1484 ; genPlusIncr
   0419 11 D6 00           1485 	ld	de,#_noiFreq + 42
                           1486 ; genAssign (pointer)
   041C 3E 7E              1487 	ld	a,#0x7E
   041E 12                 1488 	ld	(de),a
                           1489 ; genPlus
                           1490 ; genPlusIncr
   041F 11 D7 00           1491 	ld	de,#_noiFreq + 43
                           1492 ; genAssign (pointer)
   0422 3E 7D              1493 	ld	a,#0x7D
   0424 12                 1494 	ld	(de),a
                           1495 ; genPlus
                           1496 ; genPlusIncr
   0425 11 D8 00           1497 	ld	de,#_noiFreq + 44
                           1498 ; genAssign (pointer)
   0428 3E 7C              1499 	ld	a,#0x7C
   042A 12                 1500 	ld	(de),a
                           1501 ; genPlus
                           1502 ; genPlusIncr
   042B 11 D9 00           1503 	ld	de,#_noiFreq + 45
                           1504 ; genAssign (pointer)
   042E 3E 6F              1505 	ld	a,#0x6F
   0430 12                 1506 	ld	(de),a
                           1507 ; genPlus
                           1508 ; genPlusIncr
   0431 11 DA 00           1509 	ld	de,#_noiFreq + 46
                           1510 ; genAssign (pointer)
   0434 3E 6E              1511 	ld	a,#0x6E
   0436 12                 1512 	ld	(de),a
                           1513 ; genPlus
                           1514 ; genPlusIncr
   0437 11 DB 00           1515 	ld	de,#_noiFreq + 47
                           1516 ; genAssign (pointer)
   043A 3E 6D              1517 	ld	a,#0x6D
   043C 12                 1518 	ld	(de),a
                           1519 ; genPlus
                           1520 ; genPlusIncr
   043D 11 DC 00           1521 	ld	de,#_noiFreq + 48
                           1522 ; genAssign (pointer)
   0440 3E 6C              1523 	ld	a,#0x6C
   0442 12                 1524 	ld	(de),a
                           1525 ; genPlus
                           1526 ; genPlusIncr
   0443 11 DD 00           1527 	ld	de,#_noiFreq + 49
                           1528 ; genAssign (pointer)
   0446 3E 5F              1529 	ld	a,#0x5F
   0448 12                 1530 	ld	(de),a
                           1531 ; genPlus
                           1532 ; genPlusIncr
   0449 11 DE 00           1533 	ld	de,#_noiFreq + 50
                           1534 ; genAssign (pointer)
   044C 3E 5E              1535 	ld	a,#0x5E
   044E 12                 1536 	ld	(de),a
                           1537 ; genPlus
                           1538 ; genPlusIncr
   044F 11 DF 00           1539 	ld	de,#_noiFreq + 51
                           1540 ; genAssign (pointer)
   0452 3E 5D              1541 	ld	a,#0x5D
   0454 12                 1542 	ld	(de),a
                           1543 ; genPlus
                           1544 ; genPlusIncr
   0455 11 E0 00           1545 	ld	de,#_noiFreq + 52
                           1546 ; genAssign (pointer)
   0458 3E 5C              1547 	ld	a,#0x5C
   045A 12                 1548 	ld	(de),a
                           1549 ; genPlus
                           1550 ; genPlusIncr
   045B 11 E1 00           1551 	ld	de,#_noiFreq + 53
                           1552 ; genAssign (pointer)
   045E 3E 4F              1553 	ld	a,#0x4F
   0460 12                 1554 	ld	(de),a
                           1555 ; genPlus
                           1556 ; genPlusIncr
   0461 11 E2 00           1557 	ld	de,#_noiFreq + 54
                           1558 ; genAssign (pointer)
   0464 3E 4E              1559 	ld	a,#0x4E
   0466 12                 1560 	ld	(de),a
                           1561 ; genPlus
                           1562 ; genPlusIncr
   0467 11 E3 00           1563 	ld	de,#_noiFreq + 55
                           1564 ; genAssign (pointer)
   046A 3E 4D              1565 	ld	a,#0x4D
   046C 12                 1566 	ld	(de),a
                           1567 ; genPlus
                           1568 ; genPlusIncr
   046D 11 E4 00           1569 	ld	de,#_noiFreq + 56
                           1570 ; genAssign (pointer)
   0470 3E 4C              1571 	ld	a,#0x4C
   0472 12                 1572 	ld	(de),a
                           1573 ; genPlus
                           1574 ; genPlusIncr
   0473 11 E5 00           1575 	ld	de,#_noiFreq + 57
                           1576 ; genAssign (pointer)
   0476 3E 3F              1577 	ld	a,#0x3F
   0478 12                 1578 	ld	(de),a
                           1579 ; genPlus
                           1580 ; genPlusIncr
   0479 11 E6 00           1581 	ld	de,#_noiFreq + 58
                           1582 ; genAssign (pointer)
   047C 3E 3E              1583 	ld	a,#0x3E
   047E 12                 1584 	ld	(de),a
                           1585 ; genPlus
                           1586 ; genPlusIncr
   047F 11 E7 00           1587 	ld	de,#_noiFreq + 59
                           1588 ; genAssign (pointer)
   0482 3E 3D              1589 	ld	a,#0x3D
   0484 12                 1590 	ld	(de),a
                           1591 ; genPlus
                           1592 ; genPlusIncr
   0485 11 E8 00           1593 	ld	de,#_noiFreq + 60
                           1594 ; genAssign (pointer)
   0488 3E 3C              1595 	ld	a,#0x3C
   048A 12                 1596 	ld	(de),a
                           1597 ; genPlus
                           1598 ; genPlusIncr
   048B 11 E9 00           1599 	ld	de,#_noiFreq + 61
                           1600 ; genAssign (pointer)
   048E 3E 2F              1601 	ld	a,#0x2F
   0490 12                 1602 	ld	(de),a
                           1603 ; genPlus
                           1604 ; genPlusIncr
   0491 11 EA 00           1605 	ld	de,#_noiFreq + 62
                           1606 ; genAssign (pointer)
   0494 3E 2E              1607 	ld	a,#0x2E
   0496 12                 1608 	ld	(de),a
                           1609 ; genPlus
                           1610 ; genPlusIncr
   0497 11 EB 00           1611 	ld	de,#_noiFreq + 63
                           1612 ; genAssign (pointer)
   049A 3E 2D              1613 	ld	a,#0x2D
   049C 12                 1614 	ld	(de),a
                           1615 ; genPlus
                           1616 ; genPlusIncr
   049D 11 EC 00           1617 	ld	de,#_noiFreq + 64
                           1618 ; genAssign (pointer)
   04A0 3E 2C              1619 	ld	a,#0x2C
   04A2 12                 1620 	ld	(de),a
                           1621 ; genPlus
                           1622 ; genPlusIncr
   04A3 11 ED 00           1623 	ld	de,#_noiFreq + 65
                           1624 ; genAssign (pointer)
   04A6 3E 1F              1625 	ld	a,#0x1F
   04A8 12                 1626 	ld	(de),a
                           1627 ; genPlus
                           1628 ; genPlusIncr
   04A9 11 EE 00           1629 	ld	de,#_noiFreq + 66
                           1630 ; genAssign (pointer)
   04AC 3E 1E              1631 	ld	a,#0x1E
   04AE 12                 1632 	ld	(de),a
                           1633 ; genPlus
                           1634 ; genPlusIncr
   04AF 11 EF 00           1635 	ld	de,#_noiFreq + 67
                           1636 ; genAssign (pointer)
   04B2 3E 1D              1637 	ld	a,#0x1D
   04B4 12                 1638 	ld	(de),a
                           1639 ; genPlus
                           1640 ; genPlusIncr
   04B5 11 F0 00           1641 	ld	de,#_noiFreq + 68
                           1642 ; genAssign (pointer)
   04B8 3E 1C              1643 	ld	a,#0x1C
   04BA 12                 1644 	ld	(de),a
                           1645 ; genPlus
                           1646 ; genPlusIncr
   04BB 11 F1 00           1647 	ld	de,#_noiFreq + 69
                           1648 ; genAssign (pointer)
   04BE 3E 0F              1649 	ld	a,#0x0F
   04C0 12                 1650 	ld	(de),a
                           1651 ; genPlus
                           1652 ; genPlusIncr
   04C1 11 F2 00           1653 	ld	de,#_noiFreq + 70
                           1654 ; genAssign (pointer)
   04C4 3E 0E              1655 	ld	a,#0x0E
   04C6 12                 1656 	ld	(de),a
                           1657 ; genPlus
                           1658 ; genPlusIncr
   04C7 11 F3 00           1659 	ld	de,#_noiFreq + 71
                           1660 ; genAssign (pointer)
   04CA 3E 08              1661 	ld	a,#0x08
   04CC 12                 1662 	ld	(de),a
                           1663 ;	mGB.c 168
                           1664 ; genAssign
                           1665 ; AOP_HL for _pu1Trig
   04CD 21 F8 00           1666 	ld	hl,#_pu1Trig + 0
   04D0 36 80              1667 	ld	(hl),#0x80
                           1668 ;	mGB.c 168
                           1669 ; genAssign
                           1670 ; AOP_HL for _pu2Trig
   04D2 21 F9 00           1671 	ld	hl,#_pu2Trig + 0
   04D5 36 80              1672 	ld	(hl),#0x80
                           1673 ;	mGB.c 168
                           1674 ; genAssign
                           1675 ; AOP_HL for _pu1Por
   04D7 21 08 01           1676 	ld	hl,#_pu1Por + 0
   04DA 36 01              1677 	ld	(hl),#0x01
                           1678 ;	mGB.c 168
                           1679 ; genAssign (pointer)
   04DC 11 09 01           1680 	ld	de,#_outputSwitch + 0
   04DF 3E 01              1681 	ld	a,#0x01
   04E1 12                 1682 	ld	(de),a
                           1683 ; genPlus
                           1684 ; genPlusIncr
   04E2 11 0A 01           1685 	ld	de,#_outputSwitch + 1
                           1686 ; genAssign (pointer)
   04E5 3E 02              1687 	ld	a,#0x02
   04E7 12                 1688 	ld	(de),a
                           1689 ; genPlus
                           1690 ; genPlusIncr
   04E8 11 0B 01           1691 	ld	de,#_outputSwitch + 2
                           1692 ; genAssign (pointer)
   04EB 3E 40              1693 	ld	a,#0x40
   04ED 12                 1694 	ld	(de),a
                           1695 ; genPlus
                           1696 ; genPlusIncr
   04EE 11 0C 01           1697 	ld	de,#_outputSwitch + 3
                           1698 ; genAssign (pointer)
   04F1 3E 80              1699 	ld	a,#0x80
   04F3 12                 1700 	ld	(de),a
                           1701 ;	mGB.c 168
                           1702 ; genAssign (pointer)
   04F4 11 0D 01           1703 	ld	de,#_outputSwitchMute + 0
   04F7 3E 01              1704 	ld	a,#0x01
   04F9 12                 1705 	ld	(de),a
                           1706 ; genPlus
                           1707 ; genPlusIncr
   04FA 11 0E 01           1708 	ld	de,#_outputSwitchMute + 1
                           1709 ; genAssign (pointer)
   04FD 3E 02              1710 	ld	a,#0x02
   04FF 12                 1711 	ld	(de),a
                           1712 ; genPlus
                           1713 ; genPlusIncr
   0500 11 0F 01           1714 	ld	de,#_outputSwitchMute + 2
                           1715 ; genAssign (pointer)
   0503 3E 40              1716 	ld	a,#0x40
   0505 12                 1717 	ld	(de),a
                           1718 ; genPlus
                           1719 ; genPlusIncr
   0506 11 10 01           1720 	ld	de,#_outputSwitchMute + 3
                           1721 ; genAssign (pointer)
   0509 3E 80              1722 	ld	a,#0x80
   050B 12                 1723 	ld	(de),a
                           1724 ;	mGB.c 168
                           1725 ; genAssign (pointer)
   050C 11 11 01           1726 	ld	de,#_outputSwitchValue + 0
   050F 3E 03              1727 	ld	a,#0x03
   0511 12                 1728 	ld	(de),a
                           1729 ; genPlus
                           1730 ; genPlusIncr
   0512 11 12 01           1731 	ld	de,#_outputSwitchValue + 1
                           1732 ; genAssign (pointer)
   0515 3E 03              1733 	ld	a,#0x03
   0517 12                 1734 	ld	(de),a
                           1735 ; genPlus
                           1736 ; genPlusIncr
   0518 11 13 01           1737 	ld	de,#_outputSwitchValue + 2
                           1738 ; genAssign (pointer)
   051B 3E 03              1739 	ld	a,#0x03
   051D 12                 1740 	ld	(de),a
                           1741 ; genPlus
                           1742 ; genPlusIncr
   051E 11 14 01           1743 	ld	de,#_outputSwitchValue + 3
                           1744 ; genAssign (pointer)
   0521 3E 03              1745 	ld	a,#0x03
   0523 12                 1746 	ld	(de),a
                           1747 ;	mGB.c 168
                           1748 ; genAssign (pointer)
   0524 11 18 01           1749 	ld	de,#_pbWheelIn + 0
   0527 3E 80              1750 	ld	a,#0x80
   0529 12                 1751 	ld	(de),a
                           1752 ; genPlus
                           1753 ; genPlusIncr
   052A 11 19 01           1754 	ld	de,#_pbWheelIn + 1
                           1755 ; genAssign (pointer)
   052D 3E 80              1756 	ld	a,#0x80
   052F 12                 1757 	ld	(de),a
                           1758 ; genPlus
                           1759 ; genPlusIncr
   0530 11 1A 01           1760 	ld	de,#_pbWheelIn + 2
                           1761 ; genAssign (pointer)
   0533 3E 80              1762 	ld	a,#0x80
   0535 12                 1763 	ld	(de),a
                           1764 ; genPlus
                           1765 ; genPlusIncr
   0536 11 1B 01           1766 	ld	de,#_pbWheelIn + 3
                           1767 ; genAssign (pointer)
   0539 3E 80              1768 	ld	a,#0x80
   053B 12                 1769 	ld	(de),a
                           1770 ;	mGB.c 168
                           1771 ; genAssign (pointer)
   053C 11 1C 01           1772 	ld	de,#_pbWheelInLast + 0
   053F 3E 80              1773 	ld	a,#0x80
   0541 12                 1774 	ld	(de),a
                           1775 ; genPlus
                           1776 ; genPlusIncr
   0542 11 1D 01           1777 	ld	de,#_pbWheelInLast + 1
                           1778 ; genAssign (pointer)
   0545 3E 80              1779 	ld	a,#0x80
   0547 12                 1780 	ld	(de),a
                           1781 ; genPlus
                           1782 ; genPlusIncr
   0548 11 1E 01           1783 	ld	de,#_pbWheelInLast + 2
                           1784 ; genAssign (pointer)
   054B 3E 80              1785 	ld	a,#0x80
   054D 12                 1786 	ld	(de),a
                           1787 ; genPlus
                           1788 ; genPlusIncr
   054E 11 1F 01           1789 	ld	de,#_pbWheelInLast + 3
                           1790 ; genAssign (pointer)
   0551 3E 80              1791 	ld	a,#0x80
   0553 12                 1792 	ld	(de),a
                           1793 ;	mGB.c 168
                           1794 ; genAssign (pointer)
   0554 11 20 01           1795 	ld	de,#_pbWheelActive + 0
   0557 3E 00              1796 	ld	a,#0x00
   0559 12                 1797 	ld	(de),a
                           1798 ; genPlus
                           1799 ; genPlusIncr
   055A 11 21 01           1800 	ld	de,#_pbWheelActive + 1
                           1801 ; genAssign (pointer)
   055D 3E 00              1802 	ld	a,#0x00
   055F 12                 1803 	ld	(de),a
                           1804 ; genPlus
                           1805 ; genPlusIncr
   0560 11 22 01           1806 	ld	de,#_pbWheelActive + 2
                           1807 ; genAssign (pointer)
   0563 3E 00              1808 	ld	a,#0x00
   0565 12                 1809 	ld	(de),a
                           1810 ; genPlus
                           1811 ; genPlusIncr
   0566 11 23 01           1812 	ld	de,#_pbWheelActive + 3
                           1813 ; genAssign (pointer)
   0569 3E 00              1814 	ld	a,#0x00
   056B 12                 1815 	ld	(de),a
                           1816 ;	mGB.c 168
                           1817 ; genAssign (pointer)
   056C 11 24 01           1818 	ld	de,#_pbRange + 0
   056F 3E 02              1819 	ld	a,#0x02
   0571 12                 1820 	ld	(de),a
                           1821 ; genPlus
                           1822 ; genPlusIncr
   0572 11 25 01           1823 	ld	de,#_pbRange + 1
                           1824 ; genAssign (pointer)
   0575 3E 02              1825 	ld	a,#0x02
   0577 12                 1826 	ld	(de),a
                           1827 ; genPlus
                           1828 ; genPlusIncr
   0578 11 26 01           1829 	ld	de,#_pbRange + 2
                           1830 ; genAssign (pointer)
   057B 3E 02              1831 	ld	a,#0x02
   057D 12                 1832 	ld	(de),a
                           1833 ; genPlus
                           1834 ; genPlusIncr
   057E 11 27 01           1835 	ld	de,#_pbRange + 3
                           1836 ; genAssign (pointer)
   0581 3E 0C              1837 	ld	a,#0x0C
   0583 12                 1838 	ld	(de),a
                           1839 ;	mGB.c 168
                           1840 ; genAssign (pointer)
   0584 11 28 01           1841 	ld	de,#_pbNoteRange + 0
   0587 3E 00              1842 	ld	a,#0x00
   0589 12                 1843 	ld	(de),a
                           1844 ; genPlus
                           1845 ; genPlusIncr
   058A 11 29 01           1846 	ld	de,#_pbNoteRange + 1
                           1847 ; genAssign (pointer)
   058D 3E 00              1848 	ld	a,#0x00
   058F 12                 1849 	ld	(de),a
                           1850 ; genPlus
                           1851 ; genPlusIncr
   0590 11 2A 01           1852 	ld	de,#_pbNoteRange + 2
                           1853 ; genAssign (pointer)
   0593 3E 00              1854 	ld	a,#0x00
   0595 12                 1855 	ld	(de),a
                           1856 ; genPlus
                           1857 ; genPlusIncr
   0596 11 2B 01           1858 	ld	de,#_pbNoteRange + 3
                           1859 ; genAssign (pointer)
   0599 3E 00              1860 	ld	a,#0x00
   059B 12                 1861 	ld	(de),a
                           1862 ; genPlus
                           1863 ; genPlusIncr
   059C 11 2C 01           1864 	ld	de,#_pbNoteRange + 4
                           1865 ; genAssign (pointer)
   059F 3E 00              1866 	ld	a,#0x00
   05A1 12                 1867 	ld	(de),a
                           1868 ; genPlus
                           1869 ; genPlusIncr
   05A2 11 2D 01           1870 	ld	de,#_pbNoteRange + 5
                           1871 ; genAssign (pointer)
   05A5 3E 00              1872 	ld	a,#0x00
   05A7 12                 1873 	ld	(de),a
                           1874 ; genPlus
                           1875 ; genPlusIncr
   05A8 11 2E 01           1876 	ld	de,#_pbNoteRange + 6
                           1877 ; genAssign (pointer)
   05AB 3E 00              1878 	ld	a,#0x00
   05AD 12                 1879 	ld	(de),a
                           1880 ; genPlus
                           1881 ; genPlusIncr
   05AE 11 2F 01           1882 	ld	de,#_pbNoteRange + 7
                           1883 ; genAssign (pointer)
   05B1 3E 00              1884 	ld	a,#0x00
   05B3 12                 1885 	ld	(de),a
                           1886 ;	mGB.c 168
                           1887 ; genAssign (pointer)
   05B4 11 37 01           1888 	ld	de,#_joyState + 0
   05B7 3E 00              1889 	ld	a,#0x00
   05B9 12                 1890 	ld	(de),a
                           1891 ; genPlus
                           1892 ; genPlusIncr
   05BA 11 38 01           1893 	ld	de,#_joyState + 1
                           1894 ; genAssign (pointer)
   05BD 3E 00              1895 	ld	a,#0x00
   05BF 12                 1896 	ld	(de),a
                           1897 ; genPlus
                           1898 ; genPlusIncr
   05C0 11 39 01           1899 	ld	de,#_joyState + 2
                           1900 ; genAssign (pointer)
   05C3 3E 00              1901 	ld	a,#0x00
   05C5 12                 1902 	ld	(de),a
                           1903 ; genPlus
                           1904 ; genPlusIncr
   05C6 11 3A 01           1905 	ld	de,#_joyState + 3
                           1906 ; genAssign (pointer)
   05C9 3E 00              1907 	ld	a,#0x00
   05CB 12                 1908 	ld	(de),a
                           1909 ; genPlus
                           1910 ; genPlusIncr
   05CC 11 3B 01           1911 	ld	de,#_joyState + 4
                           1912 ; genAssign (pointer)
   05CF 3E 00              1913 	ld	a,#0x00
   05D1 12                 1914 	ld	(de),a
                           1915 ; genPlus
                           1916 ; genPlusIncr
   05D2 11 3C 01           1917 	ld	de,#_joyState + 5
                           1918 ; genAssign (pointer)
   05D5 3E 00              1919 	ld	a,#0x00
   05D7 12                 1920 	ld	(de),a
                           1921 ; genPlus
                           1922 ; genPlusIncr
   05D8 11 3D 01           1923 	ld	de,#_joyState + 6
                           1924 ; genAssign (pointer)
   05DB 3E 00              1925 	ld	a,#0x00
   05DD 12                 1926 	ld	(de),a
                           1927 ; genPlus
                           1928 ; genPlusIncr
   05DE 11 3E 01           1929 	ld	de,#_joyState + 7
                           1930 ; genAssign (pointer)
   05E1 3E 00              1931 	ld	a,#0x00
   05E3 12                 1932 	ld	(de),a
                           1933 ;	mGB.c 168
                           1934 ; genAssign (pointer)
   05E4 11 4A 01           1935 	ld	de,#_currentPortFreqData + 0
   05E7 3E 00              1936 	ld	a,#0x00
   05E9 12                 1937 	ld	(de),a
   05EA 13                 1938 	inc	de
   05EB 3E 00              1939 	ld	a,#0x00
   05ED 12                 1940 	ld	(de),a
                           1941 ; genPlus
                           1942 ; genPlusIncr
   05EE 11 4C 01           1943 	ld	de,#_currentPortFreqData + 2
                           1944 ; genAssign (pointer)
   05F1 3E 00              1945 	ld	a,#0x00
   05F3 12                 1946 	ld	(de),a
   05F4 13                 1947 	inc	de
   05F5 3E 00              1948 	ld	a,#0x00
   05F7 12                 1949 	ld	(de),a
                           1950 ; genPlus
                           1951 ; genPlusIncr
   05F8 11 4E 01           1952 	ld	de,#_currentPortFreqData + 4
                           1953 ; genAssign (pointer)
   05FB 3E 00              1954 	ld	a,#0x00
   05FD 12                 1955 	ld	(de),a
   05FE 13                 1956 	inc	de
   05FF 3E 00              1957 	ld	a,#0x00
   0601 12                 1958 	ld	(de),a
                           1959 ; genPlus
                           1960 ; genPlusIncr
   0602 11 50 01           1961 	ld	de,#_currentPortFreqData + 6
                           1962 ; genAssign (pointer)
   0605 3E 00              1963 	ld	a,#0x00
   0607 12                 1964 	ld	(de),a
   0608 13                 1965 	inc	de
   0609 3E 00              1966 	ld	a,#0x00
   060B 12                 1967 	ld	(de),a
                           1968 ;	mGB.c 168
                           1969 ; genAssign (pointer)
   060C 11 59 01           1970 	ld	de,#_bkg + 0
   060F 3E 00              1971 	ld	a,#0x00
   0611 12                 1972 	ld	(de),a
                           1973 ; genPlus
                           1974 ; genPlusIncr
   0612 11 5A 01           1975 	ld	de,#_bkg + 1
                           1976 ; genAssign (pointer)
   0615 3E 00              1977 	ld	a,#0x00
   0617 12                 1978 	ld	(de),a
                           1979 ; genPlus
                           1980 ; genPlusIncr
   0618 11 5B 01           1981 	ld	de,#_bkg + 2
                           1982 ; genAssign (pointer)
   061B 3E 00              1983 	ld	a,#0x00
   061D 12                 1984 	ld	(de),a
                           1985 ; genPlus
                           1986 ; genPlusIncr
   061E 11 5C 01           1987 	ld	de,#_bkg + 3
                           1988 ; genAssign (pointer)
   0621 3E 00              1989 	ld	a,#0x00
   0623 12                 1990 	ld	(de),a
                           1991 ; genPlus
                           1992 ; genPlusIncr
   0624 11 5D 01           1993 	ld	de,#_bkg + 4
                           1994 ; genAssign (pointer)
   0627 3E 00              1995 	ld	a,#0x00
   0629 12                 1996 	ld	(de),a
                           1997 ; genPlus
                           1998 ; genPlusIncr
   062A 11 5E 01           1999 	ld	de,#_bkg + 5
                           2000 ; genAssign (pointer)
   062D 3E 00              2001 	ld	a,#0x00
   062F 12                 2002 	ld	(de),a
                           2003 ; genPlus
                           2004 ; genPlusIncr
   0630 11 5F 01           2005 	ld	de,#_bkg + 6
                           2006 ; genAssign (pointer)
   0633 3E 00              2007 	ld	a,#0x00
   0635 12                 2008 	ld	(de),a
                           2009 ; genPlus
                           2010 ; genPlusIncr
   0636 11 60 01           2011 	ld	de,#_bkg + 7
                           2012 ; genAssign (pointer)
   0639 3E 00              2013 	ld	a,#0x00
   063B 12                 2014 	ld	(de),a
                           2015 ; genPlus
                           2016 ; genPlusIncr
   063C 11 61 01           2017 	ld	de,#_bkg + 8
                           2018 ; genAssign (pointer)
   063F 3E 00              2019 	ld	a,#0x00
   0641 12                 2020 	ld	(de),a
                           2021 ; genPlus
                           2022 ; genPlusIncr
   0642 11 62 01           2023 	ld	de,#_bkg + 9
                           2024 ; genAssign (pointer)
   0645 3E 00              2025 	ld	a,#0x00
   0647 12                 2026 	ld	(de),a
                           2027 ; genPlus
                           2028 ; genPlusIncr
   0648 11 63 01           2029 	ld	de,#_bkg + 10
                           2030 ; genAssign (pointer)
   064B 3E 00              2031 	ld	a,#0x00
   064D 12                 2032 	ld	(de),a
                           2033 ; genPlus
                           2034 ; genPlusIncr
   064E 11 64 01           2035 	ld	de,#_bkg + 11
                           2036 ; genAssign (pointer)
   0651 3E 00              2037 	ld	a,#0x00
   0653 12                 2038 	ld	(de),a
                           2039 ; genPlus
                           2040 ; genPlusIncr
   0654 11 65 01           2041 	ld	de,#_bkg + 12
                           2042 ; genAssign (pointer)
   0657 3E 00              2043 	ld	a,#0x00
   0659 12                 2044 	ld	(de),a
                           2045 ; genPlus
                           2046 ; genPlusIncr
   065A 11 66 01           2047 	ld	de,#_bkg + 13
                           2048 ; genAssign (pointer)
   065D 3E 00              2049 	ld	a,#0x00
   065F 12                 2050 	ld	(de),a
                           2051 ; genPlus
                           2052 ; genPlusIncr
   0660 11 67 01           2053 	ld	de,#_bkg + 14
                           2054 ; genAssign (pointer)
   0663 3E 00              2055 	ld	a,#0x00
   0665 12                 2056 	ld	(de),a
                           2057 ; genPlus
                           2058 ; genPlusIncr
   0666 11 68 01           2059 	ld	de,#_bkg + 15
                           2060 ; genAssign (pointer)
   0669 3E 00              2061 	ld	a,#0x00
   066B 12                 2062 	ld	(de),a
                           2063 ; genPlus
                           2064 ; genPlusIncr
   066C 11 69 01           2065 	ld	de,#_bkg + 16
                           2066 ; genAssign (pointer)
   066F 3E 00              2067 	ld	a,#0x00
   0671 12                 2068 	ld	(de),a
                           2069 ; genPlus
                           2070 ; genPlusIncr
   0672 11 6A 01           2071 	ld	de,#_bkg + 17
                           2072 ; genAssign (pointer)
   0675 3E 00              2073 	ld	a,#0x00
   0677 12                 2074 	ld	(de),a
                           2075 ; genPlus
                           2076 ; genPlusIncr
   0678 11 6B 01           2077 	ld	de,#_bkg + 18
                           2078 ; genAssign (pointer)
   067B 3E 00              2079 	ld	a,#0x00
   067D 12                 2080 	ld	(de),a
                           2081 ; genPlus
                           2082 ; genPlusIncr
   067E 11 6C 01           2083 	ld	de,#_bkg + 19
                           2084 ; genAssign (pointer)
   0681 3E 00              2085 	ld	a,#0x00
   0683 12                 2086 	ld	(de),a
                           2087 ;	mGB.c 168
                           2088 ; genAssign (pointer)
   0684 11 6E 01           2089 	ld	de,#_cursorEnable + 0
   0687 3E 01              2090 	ld	a,#0x01
   0689 12                 2091 	ld	(de),a
                           2092 ; genPlus
                           2093 ; genPlusIncr
   068A 11 6F 01           2094 	ld	de,#_cursorEnable + 1
                           2095 ; genAssign (pointer)
   068D 3E 00              2096 	ld	a,#0x00
   068F 12                 2097 	ld	(de),a
                           2098 ; genPlus
                           2099 ; genPlusIncr
   0690 11 70 01           2100 	ld	de,#_cursorEnable + 2
                           2101 ; genAssign (pointer)
   0693 3E 00              2102 	ld	a,#0x00
   0695 12                 2103 	ld	(de),a
                           2104 ; genPlus
                           2105 ; genPlusIncr
   0696 11 71 01           2106 	ld	de,#_cursorEnable + 3
                           2107 ; genAssign (pointer)
   0699 3E 00              2108 	ld	a,#0x00
   069B 12                 2109 	ld	(de),a
                           2110 ;	mGB.c 168
                           2111 ; genAssign
                           2112 ; AOP_HL for _systemIdle
   069C 21 8A 01           2113 	ld	hl,#_systemIdle + 0
   069F 36 01              2114 	ld	(hl),#0x01
                           2115 ;	mGB.c 168
                           2116 ; genAssign (pointer)
   06A1 11 8B 01           2117 	ld	de,#_vibratoPosition + 0
   06A4 3E 00              2118 	ld	a,#0x00
   06A6 12                 2119 	ld	(de),a
                           2120 ; genPlus
                           2121 ; genPlusIncr
   06A7 11 8C 01           2122 	ld	de,#_vibratoPosition + 1
                           2123 ; genAssign (pointer)
   06AA 3E 00              2124 	ld	a,#0x00
   06AC 12                 2125 	ld	(de),a
                           2126 ; genPlus
                           2127 ; genPlusIncr
   06AD 11 8D 01           2128 	ld	de,#_vibratoPosition + 2
                           2129 ; genAssign (pointer)
   06B0 3E 00              2130 	ld	a,#0x00
   06B2 12                 2131 	ld	(de),a
                           2132 ; genPlus
                           2133 ; genPlusIncr
   06B3 11 8E 01           2134 	ld	de,#_vibratoPosition + 3
                           2135 ; genAssign (pointer)
   06B6 3E 00              2136 	ld	a,#0x00
   06B8 12                 2137 	ld	(de),a
                           2138 ;	mGB.c 168
                           2139 ; genAssign (pointer)
   06B9 11 8F 01           2140 	ld	de,#_vibratoSpeed + 0
   06BC 3E 0F              2141 	ld	a,#0x0F
   06BE 12                 2142 	ld	(de),a
                           2143 ; genPlus
                           2144 ; genPlusIncr
   06BF 11 90 01           2145 	ld	de,#_vibratoSpeed + 1
                           2146 ; genAssign (pointer)
   06C2 3E 0F              2147 	ld	a,#0x0F
   06C4 12                 2148 	ld	(de),a
                           2149 ; genPlus
                           2150 ; genPlusIncr
   06C5 11 91 01           2151 	ld	de,#_vibratoSpeed + 2
                           2152 ; genAssign (pointer)
   06C8 3E 0F              2153 	ld	a,#0x0F
   06CA 12                 2154 	ld	(de),a
                           2155 ; genPlus
                           2156 ; genPlusIncr
   06CB 11 92 01           2157 	ld	de,#_vibratoSpeed + 3
                           2158 ; genAssign (pointer)
   06CE 3E 0F              2159 	ld	a,#0x0F
   06D0 12                 2160 	ld	(de),a
                           2161 ;	mGB.c 168
                           2162 ; genAssign (pointer)
   06D1 11 93 01           2163 	ld	de,#_vibratoDepth + 0
   06D4 3E 00              2164 	ld	a,#0x00
   06D6 12                 2165 	ld	(de),a
                           2166 ; genPlus
                           2167 ; genPlusIncr
   06D7 11 94 01           2168 	ld	de,#_vibratoDepth + 1
                           2169 ; genAssign (pointer)
   06DA 3E 00              2170 	ld	a,#0x00
   06DC 12                 2171 	ld	(de),a
                           2172 ; genPlus
                           2173 ; genPlusIncr
   06DD 11 95 01           2174 	ld	de,#_vibratoDepth + 2
                           2175 ; genAssign (pointer)
   06E0 3E 00              2176 	ld	a,#0x00
   06E2 12                 2177 	ld	(de),a
                           2178 ; genPlus
                           2179 ; genPlusIncr
   06E3 11 96 01           2180 	ld	de,#_vibratoDepth + 3
                           2181 ; genAssign (pointer)
   06E6 3E 00              2182 	ld	a,#0x00
   06E8 12                 2183 	ld	(de),a
                           2184 ;	mGB.c 168
                           2185 ; genAssign (pointer)
   06E9 11 97 01           2186 	ld	de,#_vibratoSlope + 0
   06EC 3E 00              2187 	ld	a,#0x00
   06EE 12                 2188 	ld	(de),a
                           2189 ; genPlus
                           2190 ; genPlusIncr
   06EF 11 98 01           2191 	ld	de,#_vibratoSlope + 1
                           2192 ; genAssign (pointer)
   06F2 3E 00              2193 	ld	a,#0x00
   06F4 12                 2194 	ld	(de),a
                           2195 ; genPlus
                           2196 ; genPlusIncr
   06F5 11 99 01           2197 	ld	de,#_vibratoSlope + 2
                           2198 ; genAssign (pointer)
   06F8 3E 00              2199 	ld	a,#0x00
   06FA 12                 2200 	ld	(de),a
                           2201 ; genPlus
                           2202 ; genPlusIncr
   06FB 11 9A 01           2203 	ld	de,#_vibratoSlope + 3
                           2204 ; genAssign (pointer)
   06FE 3E 00              2205 	ld	a,#0x00
   0700 12                 2206 	ld	(de),a
                           2207 ;	mGB.c 168
                           2208 ; genAssign (pointer)
   0701 11 9B 01           2209 	ld	de,#_portStepSize + 0
   0704 3E 01              2210 	ld	a,#0x01
   0706 12                 2211 	ld	(de),a
   0707 13                 2212 	inc	de
   0708 3E 00              2213 	ld	a,#0x00
   070A 12                 2214 	ld	(de),a
                           2215 ; genPlus
                           2216 ; genPlusIncr
   070B 11 9D 01           2217 	ld	de,#_portStepSize + 2
                           2218 ; genAssign (pointer)
   070E 3E 01              2219 	ld	a,#0x01
   0710 12                 2220 	ld	(de),a
   0711 13                 2221 	inc	de
   0712 3E 00              2222 	ld	a,#0x00
   0714 12                 2223 	ld	(de),a
                           2224 ; genPlus
                           2225 ; genPlusIncr
   0715 11 9F 01           2226 	ld	de,#_portStepSize + 4
                           2227 ; genAssign (pointer)
   0718 3E 01              2228 	ld	a,#0x01
   071A 12                 2229 	ld	(de),a
   071B 13                 2230 	inc	de
   071C 3E 00              2231 	ld	a,#0x00
   071E 12                 2232 	ld	(de),a
                           2233 ; genPlus
                           2234 ; genPlusIncr
   071F 11 A1 01           2235 	ld	de,#_portStepSize + 6
                           2236 ; genAssign (pointer)
   0722 3E 01              2237 	ld	a,#0x01
   0724 12                 2238 	ld	(de),a
   0725 13                 2239 	inc	de
   0726 3E 00              2240 	ld	a,#0x00
   0728 12                 2241 	ld	(de),a
                           2242 ;	mGB.c 168
                           2243 ; genAssign (pointer)
   0729 11 A3 01           2244 	ld	de,#_portLength + 0
   072C 3E 08              2245 	ld	a,#0x08
   072E 12                 2246 	ld	(de),a
   072F 13                 2247 	inc	de
   0730 3E 00              2248 	ld	a,#0x00
   0732 12                 2249 	ld	(de),a
                           2250 ; genPlus
                           2251 ; genPlusIncr
   0733 11 A5 01           2252 	ld	de,#_portLength + 2
                           2253 ; genAssign (pointer)
   0736 3E 08              2254 	ld	a,#0x08
   0738 12                 2255 	ld	(de),a
   0739 13                 2256 	inc	de
   073A 3E 00              2257 	ld	a,#0x00
   073C 12                 2258 	ld	(de),a
                           2259 ; genPlus
                           2260 ; genPlusIncr
   073D 11 A7 01           2261 	ld	de,#_portLength + 4
                           2262 ; genAssign (pointer)
   0740 3E 08              2263 	ld	a,#0x08
   0742 12                 2264 	ld	(de),a
   0743 13                 2265 	inc	de
   0744 3E 00              2266 	ld	a,#0x00
   0746 12                 2267 	ld	(de),a
                           2268 ; genPlus
                           2269 ; genPlusIncr
   0747 11 A9 01           2270 	ld	de,#_portLength + 6
                           2271 ; genAssign (pointer)
   074A 3E 08              2272 	ld	a,#0x08
   074C 12                 2273 	ld	(de),a
   074D 13                 2274 	inc	de
   074E 3E 00              2275 	ld	a,#0x00
   0750 12                 2276 	ld	(de),a
                           2277 ;	mGB.c 168
                           2278 ; genAssign (pointer)
   0751 11 AB 01           2279 	ld	de,#_portDelay + 0
   0754 3E 00              2280 	ld	a,#0x00
   0756 12                 2281 	ld	(de),a
                           2282 ; genPlus
                           2283 ; genPlusIncr
   0757 11 AC 01           2284 	ld	de,#_portDelay + 1
                           2285 ; genAssign (pointer)
   075A 3E 00              2286 	ld	a,#0x00
   075C 12                 2287 	ld	(de),a
                           2288 ; genPlus
                           2289 ; genPlusIncr
   075D 11 AD 01           2290 	ld	de,#_portDelay + 2
                           2291 ; genAssign (pointer)
   0760 3E 00              2292 	ld	a,#0x00
   0762 12                 2293 	ld	(de),a
                           2294 ; genPlus
                           2295 ; genPlusIncr
   0763 11 AE 01           2296 	ld	de,#_portDelay + 3
                           2297 ; genAssign (pointer)
   0766 3E 00              2298 	ld	a,#0x00
   0768 12                 2299 	ld	(de),a
                           2300 ;	mGB.c 168
                           2301 ; genAssign (pointer)
   0769 11 CF 01           2302 	ld	de,#_dataSet + 0
   076C 3E 02              2303 	ld	a,#0x02
   076E 12                 2304 	ld	(de),a
                           2305 ; genPlus
                           2306 ; genPlusIncr
   076F 11 D0 01           2307 	ld	de,#_dataSet + 1
                           2308 ; genAssign (pointer)
   0772 3E 00              2309 	ld	a,#0x00
   0774 12                 2310 	ld	(de),a
                           2311 ; genPlus
                           2312 ; genPlusIncr
   0775 11 D1 01           2313 	ld	de,#_dataSet + 2
                           2314 ; genAssign (pointer)
   0778 3E 06              2315 	ld	a,#0x06
   077A 12                 2316 	ld	(de),a
                           2317 ; genPlus
                           2318 ; genPlusIncr
   077B 11 D2 01           2319 	ld	de,#_dataSet + 3
                           2320 ; genAssign (pointer)
   077E 3E 00              2321 	ld	a,#0x00
   0780 12                 2322 	ld	(de),a
                           2323 ; genPlus
                           2324 ; genPlusIncr
   0781 11 D3 01           2325 	ld	de,#_dataSet + 4
                           2326 ; genAssign (pointer)
   0784 3E 02              2327 	ld	a,#0x02
   0786 12                 2328 	ld	(de),a
                           2329 ; genPlus
                           2330 ; genPlusIncr
   0787 11 D4 01           2331 	ld	de,#_dataSet + 5
                           2332 ; genAssign (pointer)
   078A 3E 00              2333 	ld	a,#0x00
   078C 12                 2334 	ld	(de),a
                           2335 ; genPlus
                           2336 ; genPlusIncr
   078D 11 D5 01           2337 	ld	de,#_dataSet + 6
                           2338 ; genAssign (pointer)
   0790 3E 03              2339 	ld	a,#0x03
   0792 12                 2340 	ld	(de),a
                           2341 ; genPlus
                           2342 ; genPlusIncr
   0793 11 D6 01           2343 	ld	de,#_dataSet + 7
                           2344 ; genAssign (pointer)
   0796 3E 02              2345 	ld	a,#0x02
   0798 12                 2346 	ld	(de),a
                           2347 ; genPlus
                           2348 ; genPlusIncr
   0799 11 D7 01           2349 	ld	de,#_dataSet + 8
                           2350 ; genAssign (pointer)
   079C 3E 00              2351 	ld	a,#0x00
   079E 12                 2352 	ld	(de),a
                           2353 ; genPlus
                           2354 ; genPlusIncr
   079F 11 D8 01           2355 	ld	de,#_dataSet + 9
                           2356 ; genAssign (pointer)
   07A2 3E 06              2357 	ld	a,#0x06
   07A4 12                 2358 	ld	(de),a
                           2359 ; genPlus
                           2360 ; genPlusIncr
   07A5 11 D9 01           2361 	ld	de,#_dataSet + 10
                           2362 ; genAssign (pointer)
   07A8 3E 02              2363 	ld	a,#0x02
   07AA 12                 2364 	ld	(de),a
                           2365 ; genPlus
                           2366 ; genPlusIncr
   07AB 11 DA 01           2367 	ld	de,#_dataSet + 11
                           2368 ; genAssign (pointer)
   07AE 3E 00              2369 	ld	a,#0x00
   07B0 12                 2370 	ld	(de),a
                           2371 ; genPlus
                           2372 ; genPlusIncr
   07B1 11 DB 01           2373 	ld	de,#_dataSet + 12
                           2374 ; genAssign (pointer)
   07B4 3E 03              2375 	ld	a,#0x03
   07B6 12                 2376 	ld	(de),a
                           2377 ; genPlus
                           2378 ; genPlusIncr
   07B7 11 DC 01           2379 	ld	de,#_dataSet + 13
                           2380 ; genAssign (pointer)
   07BA 3E 02              2381 	ld	a,#0x02
   07BC 12                 2382 	ld	(de),a
                           2383 ; genPlus
                           2384 ; genPlusIncr
   07BD 11 DD 01           2385 	ld	de,#_dataSet + 14
                           2386 ; genAssign (pointer)
   07C0 3E 00              2387 	ld	a,#0x00
   07C2 12                 2388 	ld	(de),a
                           2389 ; genPlus
                           2390 ; genPlusIncr
   07C3 11 DE 01           2391 	ld	de,#_dataSet + 15
                           2392 ; genAssign (pointer)
   07C6 3E 00              2393 	ld	a,#0x00
   07C8 12                 2394 	ld	(de),a
                           2395 ; genPlus
                           2396 ; genPlusIncr
   07C9 11 DF 01           2397 	ld	de,#_dataSet + 16
                           2398 ; genAssign (pointer)
   07CC 3E 00              2399 	ld	a,#0x00
   07CE 12                 2400 	ld	(de),a
                           2401 ; genPlus
                           2402 ; genPlusIncr
   07CF 11 E0 01           2403 	ld	de,#_dataSet + 17
                           2404 ; genAssign (pointer)
   07D2 3E 02              2405 	ld	a,#0x02
   07D4 12                 2406 	ld	(de),a
                           2407 ; genPlus
                           2408 ; genPlusIncr
   07D5 11 E1 01           2409 	ld	de,#_dataSet + 18
                           2410 ; genAssign (pointer)
   07D8 3E 00              2411 	ld	a,#0x00
   07DA 12                 2412 	ld	(de),a
                           2413 ; genPlus
                           2414 ; genPlusIncr
   07DB 11 E2 01           2415 	ld	de,#_dataSet + 19
                           2416 ; genAssign (pointer)
   07DE 3E 03              2417 	ld	a,#0x03
   07E0 12                 2418 	ld	(de),a
                           2419 ; genPlus
                           2420 ; genPlusIncr
   07E1 11 E3 01           2421 	ld	de,#_dataSet + 20
                           2422 ; genAssign (pointer)
   07E4 3E 02              2423 	ld	a,#0x02
   07E6 12                 2424 	ld	(de),a
                           2425 ; genPlus
                           2426 ; genPlusIncr
   07E7 11 E4 01           2427 	ld	de,#_dataSet + 21
                           2428 ; genAssign (pointer)
   07EA 3E 06              2429 	ld	a,#0x06
   07EC 12                 2430 	ld	(de),a
                           2431 ; genPlus
                           2432 ; genPlusIncr
   07ED 11 E5 01           2433 	ld	de,#_dataSet + 22
                           2434 ; genAssign (pointer)
   07F0 3E 00              2435 	ld	a,#0x00
   07F2 12                 2436 	ld	(de),a
                           2437 ; genPlus
                           2438 ; genPlusIncr
   07F3 11 E6 01           2439 	ld	de,#_dataSet + 23
                           2440 ; genAssign (pointer)
   07F6 3E 03              2441 	ld	a,#0x03
   07F8 12                 2442 	ld	(de),a
                           2443 ; genPlus
                           2444 ; genPlusIncr
   07F9 11 E7 01           2445 	ld	de,#_dataSet + 24
                           2446 ; genAssign (pointer)
   07FC 3E 00              2447 	ld	a,#0x00
   07FE 12                 2448 	ld	(de),a
                           2449 ; genPlus
                           2450 ; genPlusIncr
   07FF 11 E8 01           2451 	ld	de,#_dataSet + 25
                           2452 ; genAssign (pointer)
   0802 3E 00              2453 	ld	a,#0x00
   0804 12                 2454 	ld	(de),a
                           2455 ; genPlus
                           2456 ; genPlusIncr
   0805 11 E9 01           2457 	ld	de,#_dataSet + 26
                           2458 ; genAssign (pointer)
   0808 3E 00              2459 	ld	a,#0x00
   080A 12                 2460 	ld	(de),a
                           2461 ; genPlus
                           2462 ; genPlusIncr
   080B 11 EA 01           2463 	ld	de,#_dataSet + 27
                           2464 ; genAssign (pointer)
   080E 3E 00              2465 	ld	a,#0x00
   0810 12                 2466 	ld	(de),a
                           2467 ;--------------------------------------------------------
                           2468 ; code
                           2469 ;--------------------------------------------------------
                           2470 	.area _CODE
                           2471 ;	mGB.c 13
                           2472 ; genLabel
                           2473 ; genFunction
                           2474 ;	---------------------------------
                           2475 ; Function printbyte
                           2476 ; ---------------------------------
   0000                    2477 ___printbyte_start:
   0000                    2478 _printbyte:
   0000 C5                 2479 	push	bc
                           2480 ;	mGB.c 15
                           2481 ; genRightShift
                           2482 ; AOP_STK for 
                           2483 ; shift right 	result 1, left 1
   0001 F8 04              2484 	lda	hl,4(sp)
   0003 4E                 2485 	ld	c,(hl)
   0004 CB 39              2486 	srl	c
   0006 CB 39              2487 	srl	c
   0008 CB 39              2488 	srl	c
   000A CB 39              2489 	srl	c
                           2490 ; genPlus
                           2491 ; genPlusIncr
   000C 0C                 2492 	inc	c
                           2493 ; genAssign (pointer)
   000D 11 59 01           2494 	ld	de,#_bkg + 0
   0010 79                 2495 	ld	a,c
   0011 12                 2496 	ld	(de),a
                           2497 ;	mGB.c 16
                           2498 ; genPlus
                           2499 ; genPlusIncr
   0012 11 5A 01           2500 	ld	de,#_bkg + 1
                           2501 ; genAnd
                           2502 ; AOP_STK for 
   0015 7E                 2503 	ld	a,(hl)
   0016 E6 0F              2504 	and	a,#0x0F
   0018 4F                 2505 	ld	c,a
                           2506 ; genPlus
                           2507 ; genPlusIncr
   0019 0C                 2508 	inc	c
                           2509 ; genAssign (pointer)
   001A 79                 2510 	ld	a,c
   001B 12                 2511 	ld	(de),a
                           2512 ;	mGB.c 18
                           2513 ; genPlus
                           2514 ; genPlusIncr
   001C 11 5B 01           2515 	ld	de,#_bkg + 2
                           2516 ; genAssign (pointer)
   001F 3E 00              2517 	ld	a,#0x00
   0021 12                 2518 	ld	(de),a
                           2519 ;	mGB.c 20
                           2520 ; genPlus
                           2521 ; genPlusIncr
   0022 11 5C 01           2522 	ld	de,#_bkg + 3
                           2523 ; genRightShift
                           2524 ; AOP_STK for 
                           2525 ; shift right 	result 1, left 1
   0025 23                 2526 	inc	hl
   0026 4E                 2527 	ld	c,(hl)
   0027 CB 39              2528 	srl	c
   0029 CB 39              2529 	srl	c
   002B CB 39              2530 	srl	c
   002D CB 39              2531 	srl	c
                           2532 ; genPlus
                           2533 ; genPlusIncr
   002F 0C                 2534 	inc	c
                           2535 ; genAssign (pointer)
   0030 79                 2536 	ld	a,c
   0031 12                 2537 	ld	(de),a
                           2538 ;	mGB.c 21
                           2539 ; genPlus
                           2540 ; genPlusIncr
   0032 11 5D 01           2541 	ld	de,#_bkg + 4
                           2542 ; genAnd
                           2543 ; AOP_STK for 
   0035 7E                 2544 	ld	a,(hl)
   0036 E6 0F              2545 	and	a,#0x0F
   0038 4F                 2546 	ld	c,a
                           2547 ; genPlus
                           2548 ; genPlusIncr
   0039 0C                 2549 	inc	c
                           2550 ; genAssign (pointer)
   003A 79                 2551 	ld	a,c
   003B 12                 2552 	ld	(de),a
                           2553 ;	mGB.c 23
                           2554 ; genPlus
                           2555 ; genPlusIncr
   003C 11 5E 01           2556 	ld	de,#_bkg + 5
                           2557 ; genAssign (pointer)
   003F 3E 00              2558 	ld	a,#0x00
   0041 12                 2559 	ld	(de),a
                           2560 ;	mGB.c 25
                           2561 ; genPlus
                           2562 ; genPlusIncr
   0042 11 5F 01           2563 	ld	de,#_bkg + 6
                           2564 ; genRightShift
                           2565 ; AOP_STK for 
                           2566 ; shift right 	result 1, left 1
   0045 23                 2567 	inc	hl
   0046 4E                 2568 	ld	c,(hl)
   0047 CB 39              2569 	srl	c
   0049 CB 39              2570 	srl	c
   004B CB 39              2571 	srl	c
   004D CB 39              2572 	srl	c
                           2573 ; genPlus
                           2574 ; genPlusIncr
   004F 0C                 2575 	inc	c
                           2576 ; genAssign (pointer)
   0050 79                 2577 	ld	a,c
   0051 12                 2578 	ld	(de),a
                           2579 ;	mGB.c 26
                           2580 ; genPlus
                           2581 ; genPlusIncr
   0052 11 60 01           2582 	ld	de,#_bkg + 7
                           2583 ; genAnd
                           2584 ; AOP_STK for 
   0055 7E                 2585 	ld	a,(hl)
   0056 E6 0F              2586 	and	a,#0x0F
   0058 4F                 2587 	ld	c,a
                           2588 ; genPlus
                           2589 ; genPlusIncr
   0059 0C                 2590 	inc	c
                           2591 ; genAssign (pointer)
   005A 79                 2592 	ld	a,c
   005B 12                 2593 	ld	(de),a
                           2594 ;	mGB.c 28
                           2595 ; genPlus
                           2596 ; genPlusIncr
   005C 11 61 01           2597 	ld	de,#_bkg + 8
                           2598 ; genAssign (pointer)
   005F 3E 00              2599 	ld	a,#0x00
   0061 12                 2600 	ld	(de),a
                           2601 ;	mGB.c 29
                           2602 ; genIpush
   0062 21 59 01           2603 	ld	hl,#_bkg + 0
   0065 E5                 2604 	push	hl
                           2605 ; genIpush
   0066 3E 01              2606 	ld	a,#0x01
   0068 F5                 2607 	push	af
   0069 33                 2608 	inc	sp
                           2609 ; genIpush
   006A 3E 0A              2610 	ld	a,#0x0A
   006C F5                 2611 	push	af
   006D 33                 2612 	inc	sp
                           2613 ; genIpush
   006E 3E 10              2614 	ld	a,#0x10
   0070 F5                 2615 	push	af
   0071 33                 2616 	inc	sp
                           2617 ; genIpush
   0072 3E 01              2618 	ld	a,#0x01
   0074 F5                 2619 	push	af
   0075 33                 2620 	inc	sp
                           2621 ; genCall
   0076 CD 00 00           2622 	call	_set_bkg_tiles
   0079 E8 06              2623 	lda	sp,6(sp)
                           2624 ; genLabel
   007B                    2625 00101$:
                           2626 ; genEndFunction
   007B C1                 2627 	pop	bc
   007C C9                 2628 	ret
   007D                    2629 ___printbyte_end:
                           2630 ;	mGBSynthPitchFunctions.c 1
                           2631 ; genLabel
                           2632 ; genFunction
                           2633 ;	---------------------------------
                           2634 ; Function setPitchBendFrequencyOffset
                           2635 ; ---------------------------------
   007D                    2636 ___setPitchBendFrequencyOffset_start:
   007D                    2637 _setPitchBendFrequencyOffset:
   007D C5                 2638 	push	bc
   007E E8 FA              2639 	lda sp,-6(sp)
                           2640 ;	mGBSynthPitchFunctions.c 4
                           2641 ; genLeftShift
                           2642 ; AOP_STK for 
   0080 F8 0A              2643 	lda	hl,10(sp)
   0082 7E                 2644 	ld	a,(hl)
   0083 87                 2645 	add	a,a
   0084 4F                 2646 	ld	c,a
                           2647 ; genPlus
                           2648 ; genPlusIncr
   0085 0C                 2649 	inc	c
                           2650 ; genPlus
   0086 3E 9F              2651 	ld	a,#<_noteStatus
   0088 81                 2652 	add	a,c
   0089 5F                 2653 	ld	e,a
   008A 3E 00              2654 	ld	a,#>_noteStatus
   008C CE 00              2655 	adc	a,#0x00
   008E 57                 2656 	ld	d,a
                           2657 ; genPointerGet
   008F 1A                 2658 	ld	a,(de)
   0090 4F                 2659 	ld	c,a
                           2660 ; genLeftShift
   0091 79                 2661 	ld	a,c
   0092 87                 2662 	add	a,a
   0093 4F                 2663 	ld	c,a
                           2664 ; genPlus
   0094 3E 0F              2665 	ld	a,#<_freq
   0096 81                 2666 	add	a,c
   0097 5F                 2667 	ld	e,a
   0098 3E 00              2668 	ld	a,#>_freq
   009A CE 00              2669 	adc	a,#0x00
   009C 57                 2670 	ld	d,a
                           2671 ; genPointerGet
                           2672 ; AOP_STK for _setPitchBendFrequencyOffset_f_1_1
                           2673 ; Removed redundent load
                           2674 ; Removed redundent load
   009D 1A                 2675 	ld	a,(de)
   009E F8 02              2676 	lda	hl,2(sp)
   00A0 77                 2677 	ld	(hl),a ; 3
   00A1 13                 2678 	inc	de
   00A2 1A                 2679 	ld	a,(de)
   00A3 23                 2680 	inc	hl
   00A4 77                 2681 	ld	(hl),a ; 3
                           2682 ;	mGBSynthPitchFunctions.c 5
                           2683 ; genAssign
                           2684 ; AOP_HL for _systemIdle
   00A5 21 8A 01           2685 	ld	hl,#_systemIdle + 0
   00A8 36 00              2686 	ld	(hl),#0x00
                           2687 ;	mGBSynthPitchFunctions.c 6
                           2688 ; genAssign
                           2689 ; AOP_STK for 
                           2690 ; AOP_STK for _setPitchBendFrequencyOffset_sloc1_1_0
   00AA F8 0A              2691 	lda	hl,10(sp)
   00AC 7E                 2692 	ld	a,(hl)
   00AD F8 00              2693 	lda	hl,0(sp)
   00AF 77                 2694 	ld	(hl),a ; 3
                           2695 ; genPlus
                           2696 ; AOP_STK for _setPitchBendFrequencyOffset_sloc1_1_0
   00B0 3E 18              2697 	ld	a,#<_pbWheelIn
   00B2 86                 2698 	add	a,(hl)
   00B3 5F                 2699 	ld	e,a
   00B4 3E 01              2700 	ld	a,#>_pbWheelIn
   00B6 CE 00              2701 	adc	a,#0x00
   00B8 57                 2702 	ld	d,a
                           2703 ; genPointerGet
                           2704 ; AOP_STK for _setPitchBendFrequencyOffset_sloc0_1_0
   00B9 1A                 2705 	ld	a,(de)
   00BA 23                 2706 	inc	hl
   00BB 77                 2707 	ld	(hl),a ; 3
                           2708 ; genAnd
                           2709 ; AOP_STK for _setPitchBendFrequencyOffset_sloc0_1_0
   00BC 7E                 2710 	ld	a,(hl)
   00BD CB 7F              2711 	bit	7,a
   00BF CA 62 01           2712 	jp	z,00102$
                           2713 ;	mGBSynthPitchFunctions.c 7
                           2714 ; genLeftShift
                           2715 ; AOP_STK for _setPitchBendFrequencyOffset_sloc1_1_0
   00C2 2B                 2716 	dec	hl
   00C3 7E                 2717 	ld	a,(hl)
   00C4 87                 2718 	add	a,a
   00C5 47                 2719 	ld	b,a
                           2720 ; genPlus
                           2721 ; genPlusIncr
   00C6 04                 2722 	inc	b
                           2723 ; genPlus
   00C7 3E 28              2724 	ld	a,#<_pbNoteRange
   00C9 80                 2725 	add	a,b
   00CA 5F                 2726 	ld	e,a
   00CB 3E 01              2727 	ld	a,#>_pbNoteRange
   00CD CE 00              2728 	adc	a,#0x00
   00CF 57                 2729 	ld	d,a
                           2730 ; genPointerGet
   00D0 1A                 2731 	ld	a,(de)
   00D1 47                 2732 	ld	b,a
                           2733 ; genLeftShift
   00D2 78                 2734 	ld	a,b
   00D3 87                 2735 	add	a,a
   00D4 47                 2736 	ld	b,a
                           2737 ; genPlus
   00D5 3E 0F              2738 	ld	a,#<_freq
   00D7 80                 2739 	add	a,b
   00D8 5F                 2740 	ld	e,a
   00D9 3E 00              2741 	ld	a,#>_freq
   00DB CE 00              2742 	adc	a,#0x00
   00DD 57                 2743 	ld	d,a
                           2744 ; genPointerGet
                           2745 ; AOP_STK for _setPitchBendFrequencyOffset_freqRange_1_1
                           2746 ; Removed redundent load
                           2747 ; Removed redundent load
   00DE 1A                 2748 	ld	a,(de)
   00DF F8 04              2749 	lda	hl,4(sp)
   00E1 77                 2750 	ld	(hl),a ; 3
   00E2 13                 2751 	inc	de
   00E3 1A                 2752 	ld	a,(de)
   00E4 23                 2753 	inc	hl
   00E5 77                 2754 	ld	(hl),a ; 3
                           2755 ;	mGBSynthPitchFunctions.c 8
                           2756 ; genMinus
                           2757 ; AOP_STK for _setPitchBendFrequencyOffset_sloc0_1_0
   00E6 F8 01              2758 	lda	hl,1(sp)
   00E8 7E                 2759 	ld	a,(hl)
   00E9 C6 81              2760 	add	a,#0x81
   00EB 47                 2761 	ld	b,a
                           2762 ; genCast
                           2763 ; AOP_HL for _currentFreq
   00EC 21 30 01           2764 	ld	hl,#_currentFreq + 0
   00EF 70                 2765 	ld	(hl),b
   00F0 21 31 01           2766 	ld	hl,#_currentFreq + 1
   00F3 36 00              2767 	ld	(hl),#0x00
                           2768 ;	mGBSynthPitchFunctions.c 9
                           2769 ; genLeftShift
                           2770 ; AOP_HL for _currentFreq
   00F5 3E 07              2771 	ld	a,#0x06+1
   00F7 18 0B              2772 	jr	00114$
   00F9                    2773 00113$:
   00F9 B7                 2774 	or	a,a
   00FA 21 30 01           2775 	ld	hl,#_currentFreq + 0
   00FD CB 16              2776 	rl	(hl)
   00FF 21 31 01           2777 	ld	hl,#_currentFreq + 1
   0102 CB 16              2778 	rl	(hl)
   0104                    2779 00114$:
   0104 3D                 2780 	dec	a
   0105 20 F2              2781 	jr	nz,00113$
                           2782 ;	mGBSynthPitchFunctions.c 10
                           2783 ; genRightShift
                           2784 ; AOP_HL for _currentFreq
                           2785 ; shift right 	result 2, left 2
   0107 3E 08              2786 	ld	a,#0x07+1
   0109 18 0B              2787 	jr	00116$
   010B                    2788 00115$:
   010B B7                 2789 	or	a,a
   010C 21 31 01           2790 	ld	hl,#_currentFreq + 1
   010F CB 1E              2791 	rr	(hl)
   0111 21 30 01           2792 	ld	hl,#_currentFreq + 0
   0114 CB 1E              2793 	rr	(hl)
   0116                    2794 00116$:
   0116 3D                 2795 	dec	a
   0117 20 F2              2796 	jr	nz,00115$
                           2797 ;	mGBSynthPitchFunctions.c 11
                           2798 ; genMinus
                           2799 ; AOP_STK for _setPitchBendFrequencyOffset_freqRange_1_1
                           2800 ; AOP_STK for _setPitchBendFrequencyOffset_f_1_1
   0119 F8 04              2801 	lda	hl,4(sp)
   011B 7E                 2802 	ld	a,(hl)
   011C 2B                 2803 	dec	hl
   011D 2B                 2804 	dec	hl
   011E 96                 2805 	sub	a,(hl)
   011F 47                 2806 	ld	b,a
   0120 F8 05              2807 	lda	hl,5(sp)
   0122 7E                 2808 	ld	a,(hl)
   0123 2B                 2809 	dec	hl
   0124 2B                 2810 	dec	hl
   0125 9E                 2811 	sbc	a,(hl)
   0126 4F                 2812 	ld	c,a
                           2813 ; genIpush
   0127 68                 2814 	ld	l,b
   0128 61                 2815 	ld	h,c
   0129 E5                 2816 	push	hl
                           2817 ; genIpush
                           2818 ; AOP_HL for _currentFreq
   012A 21 30 01           2819 	ld	hl,#_currentFreq + 0
   012D 2A                 2820 	ld	a,(hl+)
   012E 66                 2821 	ld	h,(hl)
   012F 6F                 2822 	ld	l,a
   0130 E5                 2823 	push	hl
                           2824 ; genCall
   0131 CD 00 00           2825 	call	__muluint
                           2826 ; AOP_HL for _currentFreq
   0134 21 31 01           2827 	ld	hl,#_currentFreq + 1
   0137 72                 2828 	ld	(hl),d
   0138 21 30 01           2829 	ld	hl,#_currentFreq + 0
   013B 73                 2830 	ld	(hl),e
   013C E8 04              2831 	lda	sp,4(sp)
                           2832 ;	mGBSynthPitchFunctions.c 12
                           2833 ; genRightShift
                           2834 ; AOP_HL for _currentFreq
                           2835 ; shift right 	result 2, left 2
   013E 4E                 2836 	ld	c,(hl)
   013F 21 31 01           2837 	ld	hl,#_currentFreq + 1
   0142 46                 2838 	ld	b,(hl)
   0143 3E 07              2839 	ld	a,#0x06+1
   0145 18 05              2840 	jr	00118$
   0147                    2841 00117$:
   0147 B7                 2842 	or	a,a
   0148 CB 18              2843 	rr	b
   014A CB 19              2844 	rr	c
   014C                    2845 00118$:
   014C 3D                 2846 	dec	a
   014D 20 F8              2847 	jr	nz,00117$
                           2848 ; genPlus
                           2849 ; AOP_STK for _setPitchBendFrequencyOffset_f_1_1
                           2850 ; AOP_HL for _currentFreq
   014F F8 02              2851 	lda	hl,2(sp)
   0151 7E                 2852 	ld	a,(hl)
   0152 81                 2853 	add	a,c
   0153 21 30 01           2854 	ld	hl,#_currentFreq + 0
   0156 77                 2855 	ld	(hl),a
   0157 F8 03              2856 	lda	hl,3(sp)
   0159 7E                 2857 	ld	a,(hl)
   015A 88                 2858 	adc	a,b
   015B 21 31 01           2859 	ld	hl,#_currentFreq + 1
   015E 77                 2860 	ld	(hl),a
                           2861 ; genGoto
   015F C3 FA 01           2862 	jp	00103$
                           2863 ; genLabel
   0162                    2864 00102$:
                           2865 ;	mGBSynthPitchFunctions.c 14
                           2866 ; genLeftShift
                           2867 ; AOP_STK for _setPitchBendFrequencyOffset_sloc1_1_0
   0162 F8 00              2868 	lda	hl,0(sp)
   0164 7E                 2869 	ld	a,(hl)
   0165 87                 2870 	add	a,a
   0166 4F                 2871 	ld	c,a
                           2872 ; genPlus
   0167 3E 28              2873 	ld	a,#<_pbNoteRange
   0169 81                 2874 	add	a,c
   016A 5F                 2875 	ld	e,a
   016B 3E 01              2876 	ld	a,#>_pbNoteRange
   016D CE 00              2877 	adc	a,#0x00
   016F 57                 2878 	ld	d,a
                           2879 ; genPointerGet
   0170 1A                 2880 	ld	a,(de)
   0171 4F                 2881 	ld	c,a
                           2882 ; genLeftShift
   0172 79                 2883 	ld	a,c
   0173 87                 2884 	add	a,a
   0174 4F                 2885 	ld	c,a
                           2886 ; genPlus
   0175 3E 0F              2887 	ld	a,#<_freq
   0177 81                 2888 	add	a,c
   0178 5F                 2889 	ld	e,a
   0179 3E 00              2890 	ld	a,#>_freq
   017B CE 00              2891 	adc	a,#0x00
   017D 57                 2892 	ld	d,a
                           2893 ; genPointerGet
                           2894 ; AOP_STK for _setPitchBendFrequencyOffset_freqRange_1_1
                           2895 ; Removed redundent load
                           2896 ; Removed redundent load
   017E 1A                 2897 	ld	a,(de)
   017F F8 04              2898 	lda	hl,4(sp)
   0181 77                 2899 	ld	(hl),a ; 3
   0182 13                 2900 	inc	de
   0183 1A                 2901 	ld	a,(de)
   0184 23                 2902 	inc	hl
   0185 77                 2903 	ld	(hl),a ; 3
                           2904 ;	mGBSynthPitchFunctions.c 15
                           2905 ; genMinus
                           2906 ; AOP_STK for _setPitchBendFrequencyOffset_sloc0_1_0
   0186 3E 80              2907 	ld	a,#0x80
   0188 F8 01              2908 	lda	hl,1(sp)
   018A 96                 2909 	sub	a,(hl)
   018B 4F                 2910 	ld	c,a
                           2911 ; genCast
                           2912 ; AOP_HL for _currentFreq
   018C 21 30 01           2913 	ld	hl,#_currentFreq + 0
   018F 71                 2914 	ld	(hl),c
   0190 21 31 01           2915 	ld	hl,#_currentFreq + 1
   0193 36 00              2916 	ld	(hl),#0x00
                           2917 ;	mGBSynthPitchFunctions.c 16
                           2918 ; genLeftShift
                           2919 ; AOP_HL for _currentFreq
   0195 3E 07              2920 	ld	a,#0x06+1
   0197 18 0B              2921 	jr	00120$
   0199                    2922 00119$:
   0199 B7                 2923 	or	a,a
   019A 21 30 01           2924 	ld	hl,#_currentFreq + 0
   019D CB 16              2925 	rl	(hl)
   019F 21 31 01           2926 	ld	hl,#_currentFreq + 1
   01A2 CB 16              2927 	rl	(hl)
   01A4                    2928 00120$:
   01A4 3D                 2929 	dec	a
   01A5 20 F2              2930 	jr	nz,00119$
                           2931 ;	mGBSynthPitchFunctions.c 17
                           2932 ; genRightShift
                           2933 ; AOP_HL for _currentFreq
                           2934 ; shift right 	result 2, left 2
   01A7 3E 08              2935 	ld	a,#0x07+1
   01A9 18 0B              2936 	jr	00122$
   01AB                    2937 00121$:
   01AB B7                 2938 	or	a,a
   01AC 21 31 01           2939 	ld	hl,#_currentFreq + 1
   01AF CB 1E              2940 	rr	(hl)
   01B1 21 30 01           2941 	ld	hl,#_currentFreq + 0
   01B4 CB 1E              2942 	rr	(hl)
   01B6                    2943 00122$:
   01B6 3D                 2944 	dec	a
   01B7 20 F2              2945 	jr	nz,00121$
                           2946 ;	mGBSynthPitchFunctions.c 18
                           2947 ; genMinus
                           2948 ; AOP_STK for _setPitchBendFrequencyOffset_f_1_1
                           2949 ; AOP_STK for _setPitchBendFrequencyOffset_freqRange_1_1
   01B9 F8 02              2950 	lda	hl,2(sp)
   01BB 2A                 2951 	ld	a,(hl+)
   01BC 23                 2952 	inc	hl
   01BD 96                 2953 	sub	a,(hl)
   01BE 4F                 2954 	ld	c,a
   01BF 2B                 2955 	dec	hl
   01C0 2A                 2956 	ld	a,(hl+)
   01C1 23                 2957 	inc	hl
   01C2 9E                 2958 	sbc	a,(hl)
   01C3 47                 2959 	ld	b,a
                           2960 ; genIpush
   01C4 C5                 2961 	push	bc
                           2962 ; genIpush
                           2963 ; AOP_HL for _currentFreq
   01C5 21 30 01           2964 	ld	hl,#_currentFreq + 0
   01C8 2A                 2965 	ld	a,(hl+)
   01C9 66                 2966 	ld	h,(hl)
   01CA 6F                 2967 	ld	l,a
   01CB E5                 2968 	push	hl
                           2969 ; genCall
   01CC CD 00 00           2970 	call	__muluint
                           2971 ; AOP_HL for _currentFreq
   01CF 21 31 01           2972 	ld	hl,#_currentFreq + 1
   01D2 72                 2973 	ld	(hl),d
   01D3 21 30 01           2974 	ld	hl,#_currentFreq + 0
   01D6 73                 2975 	ld	(hl),e
   01D7 E8 04              2976 	lda	sp,4(sp)
                           2977 ;	mGBSynthPitchFunctions.c 19
                           2978 ; genRightShift
                           2979 ; AOP_HL for _currentFreq
                           2980 ; shift right 	result 2, left 2
   01D9 4E                 2981 	ld	c,(hl)
   01DA 21 31 01           2982 	ld	hl,#_currentFreq + 1
   01DD 46                 2983 	ld	b,(hl)
   01DE 3E 07              2984 	ld	a,#0x06+1
   01E0 18 05              2985 	jr	00124$
   01E2                    2986 00123$:
   01E2 B7                 2987 	or	a,a
   01E3 CB 18              2988 	rr	b
   01E5 CB 19              2989 	rr	c
   01E7                    2990 00124$:
   01E7 3D                 2991 	dec	a
   01E8 20 F8              2992 	jr	nz,00123$
                           2993 ; genMinus
                           2994 ; AOP_STK for _setPitchBendFrequencyOffset_f_1_1
                           2995 ; AOP_HL for _currentFreq
   01EA F8 02              2996 	lda	hl,2(sp)
   01EC 7E                 2997 	ld	a,(hl)
   01ED 91                 2998 	sub	a,c
   01EE 21 30 01           2999 	ld	hl,#_currentFreq + 0
   01F1 77                 3000 	ld	(hl),a
   01F2 F8 03              3001 	lda	hl,3(sp)
   01F4 7E                 3002 	ld	a,(hl)
   01F5 98                 3003 	sbc	a,b
   01F6 21 31 01           3004 	ld	hl,#_currentFreq + 1
   01F9 77                 3005 	ld	(hl),a
                           3006 ; genLabel
   01FA                    3007 00103$:
                           3008 ;	mGBSynthPitchFunctions.c 21
                           3009 ; genCmpEq
                           3010 ; AOP_STK for _setPitchBendFrequencyOffset_sloc1_1_0
   01FA F8 00              3011 	lda	hl,0(sp)
   01FC 7E                 3012 	ld	a,(hl)
   01FD B7                 3013 	or	a,a
                           3014 ; Rule 5
   01FE CA 0C 02           3015 	jp	z,00104$
   0201                    3016 00125$:
                           3017 ; genCmpEq
                           3018 ; AOP_STK for _setPitchBendFrequencyOffset_sloc1_1_0
   0201 F8 00              3019 	lda	hl,0(sp)
   0203 7E                 3020 	ld	a,(hl) ; 2
   0204 FE 01              3021 	cp	a,#0x01
                           3022 ; Rule 5
   0206 CA 29 02           3023 	jp	z,00105$
   0209                    3024 00126$:
                           3025 ; genGoto
   0209 C3 46 02           3026 	jp	00106$
                           3027 ;	mGBSynthPitchFunctions.c 23
                           3028 ; genLabel
   020C                    3029 00104$:
                           3030 ; genRightShift
                           3031 ; AOP_HL for _currentFreq
                           3032 ; shift right 	result 2, left 2
   020C 21 31 01           3033 	ld	hl,#_currentFreq + 1
   020F 4E                 3034 	ld	c,(hl)
   0210 06 00              3035 	ld	b,#0x00
                           3036 ; genCast
                           3037 ; AOP_SFR for _NR14_REG
   0212 79                 3038 	ld	a,c
   0213 E0 00              3039 	ldh	(_NR14_REG+0),a
                           3040 ;	mGBSynthPitchFunctions.c 24
                           3041 ; genCast
                           3042 ; AOP_HL for _currentFreq
                           3043 ; AOP_SFR for _NR13_REG
   0215 21 30 01           3044 	ld	hl,#_currentFreq + 0
   0218 7E                 3045 	ld	a,(hl)
   0219 E0 00              3046 	ldh	(_NR13_REG+0),a
                           3047 ;	mGBSynthPitchFunctions.c 25
                           3048 ; genAssign (pointer)
                           3049 ; AOP_HL for _currentFreq
   021B 11 42 01           3050 	ld	de,#_currentFreqData + 0
   021E 7E                 3051 	ld	a,(hl)
   021F 12                 3052 	ld	(de),a
   0220 13                 3053 	inc	de
   0221 21 31 01           3054 	ld	hl,#_currentFreq + 1
   0224 7E                 3055 	ld	a,(hl)
   0225 12                 3056 	ld	(de),a
                           3057 ;	mGBSynthPitchFunctions.c 26
                           3058 ; genGoto
   0226 C3 70 02           3059 	jp	00108$
                           3060 ;	mGBSynthPitchFunctions.c 28
                           3061 ; genLabel
   0229                    3062 00105$:
                           3063 ; genRightShift
                           3064 ; AOP_HL for _currentFreq
                           3065 ; shift right 	result 2, left 2
   0229 21 31 01           3066 	ld	hl,#_currentFreq + 1
   022C 4E                 3067 	ld	c,(hl)
   022D 06 00              3068 	ld	b,#0x00
                           3069 ; genCast
                           3070 ; AOP_SFR for _NR24_REG
   022F 79                 3071 	ld	a,c
   0230 E0 00              3072 	ldh	(_NR24_REG+0),a
                           3073 ;	mGBSynthPitchFunctions.c 29
                           3074 ; genCast
                           3075 ; AOP_HL for _currentFreq
                           3076 ; AOP_SFR for _NR23_REG
   0232 21 30 01           3077 	ld	hl,#_currentFreq + 0
   0235 7E                 3078 	ld	a,(hl)
   0236 E0 00              3079 	ldh	(_NR23_REG+0),a
                           3080 ;	mGBSynthPitchFunctions.c 30
                           3081 ; genPlus
                           3082 ; genPlusIncr
   0238 11 44 01           3083 	ld	de,#_currentFreqData + 2
                           3084 ; genAssign (pointer)
                           3085 ; AOP_HL for _currentFreq
   023B 7E                 3086 	ld	a,(hl)
   023C 12                 3087 	ld	(de),a
   023D 13                 3088 	inc	de
   023E 21 31 01           3089 	ld	hl,#_currentFreq + 1
   0241 7E                 3090 	ld	a,(hl)
   0242 12                 3091 	ld	(de),a
                           3092 ;	mGBSynthPitchFunctions.c 31
                           3093 ; genGoto
   0243 C3 70 02           3094 	jp	00108$
                           3095 ;	mGBSynthPitchFunctions.c 33
                           3096 ; genLabel
   0246                    3097 00106$:
                           3098 ; genRightShift
                           3099 ; AOP_HL for _currentFreq
                           3100 ; shift right 	result 2, left 2
   0246 21 31 01           3101 	ld	hl,#_currentFreq + 1
   0249 4E                 3102 	ld	c,(hl)
   024A 06 00              3103 	ld	b,#0x00
                           3104 ; genCast
                           3105 ; AOP_SFR for _NR34_REG
   024C 79                 3106 	ld	a,c
   024D E0 00              3107 	ldh	(_NR34_REG+0),a
                           3108 ;	mGBSynthPitchFunctions.c 34
                           3109 ; genCast
                           3110 ; AOP_HL for _currentFreq
                           3111 ; AOP_SFR for _NR33_REG
   024F 21 30 01           3112 	ld	hl,#_currentFreq + 0
   0252 7E                 3113 	ld	a,(hl)
   0253 E0 00              3114 	ldh	(_NR33_REG+0),a
                           3115 ;	mGBSynthPitchFunctions.c 35
                           3116 ; genAssign
                           3117 ; AOP_HL for _currentFreq
                           3118 ; AOP_HL for _wavCurrentFreq
   0255 7E                 3119 	ld	a,(hl)
   0256 21 31 01           3120 	ld	hl,#_currentFreq + 1
   0259 5E                 3121 	ld	e,(hl)
   025A 21 40 01           3122 	ld	hl,#_wavCurrentFreq + 0
   025D 77                 3123 	ld	(hl),a
   025E 21 41 01           3124 	ld	hl,#_wavCurrentFreq + 1
   0261 73                 3125 	ld	(hl),e
                           3126 ;	mGBSynthPitchFunctions.c 36
                           3127 ; genPlus
                           3128 ; genPlusIncr
   0262 11 46 01           3129 	ld	de,#_currentFreqData + 4
                           3130 ; genAssign (pointer)
                           3131 ; AOP_HL for _currentFreq
   0265 21 30 01           3132 	ld	hl,#_currentFreq + 0
   0268 7E                 3133 	ld	a,(hl)
   0269 12                 3134 	ld	(de),a
   026A 13                 3135 	inc	de
   026B 21 31 01           3136 	ld	hl,#_currentFreq + 1
   026E 7E                 3137 	ld	a,(hl)
   026F 12                 3138 	ld	(de),a
                           3139 ;	mGBSynthPitchFunctions.c 37
                           3140 ; genLabel
   0270                    3141 00108$:
                           3142 ; genEndFunction
   0270 E8 06              3143 	lda	sp,6(sp)
   0272 C1                 3144 	pop bc
   0273 C9                 3145 	ret
   0274                    3146 ___setPitchBendFrequencyOffset_end:
                           3147 ;	mGBSynthPitchFunctions.c 40
                           3148 ; genLabel
                           3149 ; genFunction
                           3150 ;	---------------------------------
                           3151 ; Function setPitchBendFrequencyOffsetNoise
                           3152 ; ---------------------------------
mp 0274                    3153 ___setPitchBendFrequencyOffsetNoise_start:
   0274                    3154 _setPitchBendFrequencyOffsetNoise:
   0274 C5                 3155 	push	bc
   0275 E8 FE              3156 	lda sp,-2(sp)
                           3157 ;	mGBSynthPitchFunctions.c 42
                           3158 ; genAssign
                           3159 ; AOP_HL for _systemIdle
   0277 21 8A 01           3160 	ld	hl,#_systemIdle + 0
   027A 36 00              3161 	ld	(hl),#0x00
                           3162 ;	mGBSynthPitchFunctions.c 43
                           3163 ; genPlus
                           3164 ; genPlusIncr
   027C 11 1B 01           3165 	ld	de,#_pbWheelIn + 3
                           3166 ; genPointerGet
                           3167 ; AOP_STK for _setPitchBendFrequencyOffsetNoise_sloc0_1_0
   027F 1A                 3168 	ld	a,(de)
   0280 F8 01              3169 	lda	hl,1(sp)
   0282 77                 3170 	ld	(hl),a ; 3
                           3171 ; genAnd
                           3172 ; AOP_STK for _setPitchBendFrequencyOffsetNoise_sloc0_1_0
   0283 7E                 3173 	ld	a,(hl)
   0284 CB 7F              3174 	bit	7,a
   0286 CA C2 02           3175 	jp	z,00102$
                           3176 ;	mGBSynthPitchFunctions.c 44
                           3177 ; genPlus
                           3178 ; genPlusIncr
   0289 3E 9F              3179 	ld	a,#<_noteStatus
   028B C6 07              3180 	add	a,#0x07
   028D 47                 3181 	ld	b,a
   028E 3E 00              3182 	ld	a,#>_noteStatus
   0290 CE 00              3183 	adc	a,#0x00
   0292 4F                 3184 	ld	c,a
                           3185 ; genPointerGet
                           3186 ; AOP_STK for _setPitchBendFrequencyOffsetNoise_sloc1_1_0
   0293 58                 3187 	ld	e,b
   0294 51                 3188 	ld	d,c
   0295 1A                 3189 	ld	a,(de)
   0296 2B                 3190 	dec	hl
   0297 77                 3191 	ld	(hl),a ; 3
                           3192 ; genAssign (pointer)
                           3193 ; AOP_STK for _setPitchBendFrequencyOffsetNoise_sloc1_1_0
   0298 58                 3194 	ld	e,b
   0299 51                 3195 	ld	d,c
   029A 7E                 3196 	ld	a,(hl)
   029B 12                 3197 	ld	(de),a
                           3198 ;	mGBSynthPitchFunctions.c 45
                           3199 ; genMinus
                           3200 ; AOP_STK for _setPitchBendFrequencyOffsetNoise_sloc0_1_0
   029C 23                 3201 	inc	hl
   029D 7E                 3202 	ld	a,(hl)
   029E C6 80              3203 	add	a,#0x80
   02A0 4F                 3204 	ld	c,a
                           3205 ; genRightShift
                           3206 ; shift right 	result 1, left 1
                           3207 ; Removed redundent load
   02A1 CB 39              3208 	srl	c
   02A3 CB 39              3209 	srl	c
   02A5 CB 39              3210 	srl	c
                           3211 ; genPlus
                           3212 ; AOP_STK for _setPitchBendFrequencyOffsetNoise_sloc1_1_0
   02A7 2B                 3213 	dec	hl
   02A8 7E                 3214 	ld	a,(hl)
   02A9 81                 3215 	add	a,c
   02AA 4F                 3216 	ld	c,a
                           3217 ; genPlus
   02AB 3E AC              3218 	ld	a,#<_noiFreq
   02AD 81                 3219 	add	a,c
   02AE 5F                 3220 	ld	e,a
   02AF 3E 00              3221 	ld	a,#>_noiFreq
   02B1 CE 00              3222 	adc	a,#0x00
   02B3 57                 3223 	ld	d,a
                           3224 ; genPointerGet
   02B4 1A                 3225 	ld	a,(de)
   02B5 4F                 3226 	ld	c,a
                           3227 ; genCast
                           3228 ; AOP_HL for _currentFreq
   02B6 21 30 01           3229 	ld	hl,#_currentFreq + 0
   02B9 71                 3230 	ld	(hl),c
   02BA 21 31 01           3231 	ld	hl,#_currentFreq + 1
   02BD 36 00              3232 	ld	(hl),#0x00
                           3233 ; genGoto
   02BF C3 EE 02           3234 	jp	00103$
                           3235 ; genLabel
   02C2                    3236 00102$:
                           3237 ;	mGBSynthPitchFunctions.c 47
                           3238 ; genPlus
                           3239 ; genPlusIncr
   02C2 01 A6 00           3240 	ld	bc,#_noteStatus + 7
                           3241 ; genPointerGet
                           3242 ; AOP_STK for _setPitchBendFrequencyOffsetNoise_sloc1_1_0
   02C5 0A                 3243 	ld	a,(bc)
   02C6 F8 00              3244 	lda	hl,0(sp)
   02C8 77                 3245 	ld	(hl),a ; 3
                           3246 ; genAssign (pointer)
                           3247 ; AOP_STK for _setPitchBendFrequencyOffsetNoise_sloc1_1_0
   02C9 7E                 3248 	ld	a,(hl)
   02CA 02                 3249 	ld	(bc),a
                           3250 ;	mGBSynthPitchFunctions.c 48
                           3251 ; genMinus
                           3252 ; AOP_STK for _setPitchBendFrequencyOffsetNoise_sloc0_1_0
   02CB 3E 80              3253 	ld	a,#0x80
   02CD 23                 3254 	inc	hl
   02CE 96                 3255 	sub	a,(hl)
   02CF 4F                 3256 	ld	c,a
                           3257 ; genRightShift
                           3258 ; shift right 	result 1, left 1
                           3259 ; Removed redundent load
   02D0 CB 39              3260 	srl	c
   02D2 CB 39              3261 	srl	c
   02D4 CB 39              3262 	srl	c
                           3263 ; genMinus
                           3264 ; AOP_STK for _setPitchBendFrequencyOffsetNoise_sloc1_1_0
   02D6 2B                 3265 	dec	hl
   02D7 7E                 3266 	ld	a,(hl)
   02D8 91                 3267 	sub	a,c
   02D9 4F                 3268 	ld	c,a
                           3269 ; genPlus
   02DA 3E AC              3270 	ld	a,#<_noiFreq
   02DC 81                 3271 	add	a,c
   02DD 5F                 3272 	ld	e,a
   02DE 3E 00              3273 	ld	a,#>_noiFreq
   02E0 CE 00              3274 	adc	a,#0x00
   02E2 57                 3275 	ld	d,a
                           3276 ; genPointerGet
   02E3 1A                 3277 	ld	a,(de)
   02E4 4F                 3278 	ld	c,a
                           3279 ; genCast
                           3280 ; AOP_HL for _currentFreq
   02E5 21 30 01           3281 	ld	hl,#_currentFreq + 0
   02E8 71                 3282 	ld	(hl),c
   02E9 21 31 01           3283 	ld	hl,#_currentFreq + 1
   02EC 36 00              3284 	ld	(hl),#0x00
                           3285 ; genLabel
   02EE                    3286 00103$:
                           3287 ;	mGBSynthPitchFunctions.c 50
                           3288 ; genCast
                           3289 ; AOP_HL for _currentFreq
                           3290 ; AOP_SFR for _NR43_REG
   02EE 21 30 01           3291 	ld	hl,#_currentFreq + 0
   02F1 7E                 3292 	ld	a,(hl)
   02F2 E0 00              3293 	ldh	(_NR43_REG+0),a
                           3294 ;	mGBSynthPitchFunctions.c 51
                           3295 ; genPlus
                           3296 ; genPlusIncr
   02F4 11 48 01           3297 	ld	de,#_currentFreqData + 6
                           3298 ; genAssign (pointer)
                           3299 ; AOP_HL for _currentFreq
   02F7 7E                 3300 	ld	a,(hl)
   02F8 12                 3301 	ld	(de),a
   02F9 13                 3302 	inc	de
   02FA 21 31 01           3303 	ld	hl,#_currentFreq + 1
   02FD 7E                 3304 	ld	a,(hl)
   02FE 12                 3305 	ld	(de),a
                           3306 ; genLabel
   02FF                    3307 00104$:
                           3308 ; genEndFunction
   02FF E8 02              3309 	lda	sp,2(sp)
   0301 C1                 3310 	pop bc
   0302 C9                 3311 	ret
m  0303                    3312 ___setPitchBendFrequencyOffsetNoise_end:
                           3313 ;	mGBSynthPitchFunctions.c 54
                           3314 ; genLabel
                           3315 ; genFunction
                           3316 ;	---------------------------------
                           3317 ; Function addPortamento
                           3318 ; ---------------------------------
   0303                    3319 ___addPortamento_start:
   0303                    3320 _addPortamento:
   0303 C5                 3321 	push	bc
   0304 E8 FD              3322 	lda sp,-3(sp)
                           3323 ;	mGBSynthPitchFunctions.c 55
                           3324 ; genLeftShift
                           3325 ; AOP_STK for 
   0306 F8 07              3326 	lda	hl,7(sp)
   0308 7E                 3327 	ld	a,(hl)
   0309 87                 3328 	add	a,a
   030A 4F                 3329 	ld	c,a
                           3330 ; genPlus
                           3331 ; genPlusIncr
   030B 79                 3332 	ld	a,c
   030C C6 01              3333 	add	a,#0x01
   030E 47                 3334 	ld	b,a
                           3335 ; genPlus
   030F 3E 9F              3336 	ld	a,#<_noteStatus
   0311 80                 3337 	add	a,b
   0312 5F                 3338 	ld	e,a
   0313 3E 00              3339 	ld	a,#>_noteStatus
   0315 CE 00              3340 	adc	a,#0x00
   0317 57                 3341 	ld	d,a
                           3342 ; genPointerGet
   0318 1A                 3343 	ld	a,(de)
   0319 47                 3344 	ld	b,a
                           3345 ; genLeftShift
   031A 78                 3346 	ld	a,b
   031B 87                 3347 	add	a,a
   031C 47                 3348 	ld	b,a
                           3349 ; genPlus
   031D 3E 0F              3350 	ld	a,#<_freq
   031F 80                 3351 	add	a,b
   0320 5F                 3352 	ld	e,a
   0321 3E 00              3353 	ld	a,#>_freq
   0323 CE 00              3354 	adc	a,#0x00
   0325 57                 3355 	ld	d,a
                           3356 ; genPointerGet
                           3357 ; AOP_HL for _targetFreq
                           3358 ; Removed redundent load
                           3359 ; Removed redundent load
   0326 1A                 3360 	ld	a,(de)
   0327 21 AF 01           3361 	ld	hl,#_targetFreq + 0
   032A 77                 3362 	ld	(hl),a
   032B 13                 3363 	inc	de
   032C 1A                 3364 	ld	a,(de)
   032D 21 B0 01           3365 	ld	hl,#_targetFreq + 1
   0330 77                 3366 	ld	(hl),a
                           3367 ;	mGBSynthPitchFunctions.c 56
                           3368 ; genPlus
   0331 3E 9B              3369 	ld	a,#<_portStepSize
   0333 81                 3370 	add	a,c
   0334 5F                 3371 	ld	e,a
   0335 3E 01              3372 	ld	a,#>_portStepSize
   0337 CE 00              3373 	adc	a,#0x00
   0339 57                 3374 	ld	d,a
                           3375 ; genPointerGet
                           3376 ; AOP_HL for _stepSize
                           3377 ; Removed redundent load
                           3378 ; Removed redundent load
   033A 1A                 3379 	ld	a,(de)
   033B 21 B1 01           3380 	ld	hl,#_stepSize + 0
   033E 77                 3381 	ld	(hl),a
   033F 13                 3382 	inc	de
   0340 1A                 3383 	ld	a,(de)
   0341 21 B2 01           3384 	ld	hl,#_stepSize + 1
   0344 77                 3385 	ld	(hl),a
                           3386 ;	mGBSynthPitchFunctions.c 57
                           3387 ; genPlus
   0345 3E 4A              3388 	ld	a,#<_currentPortFreqData
   0347 81                 3389 	add	a,c
   0348 5F                 3390 	ld	e,a
   0349 3E 01              3391 	ld	a,#>_currentPortFreqData
   034B CE 00              3392 	adc	a,#0x00
   034D 57                 3393 	ld	d,a
                           3394 ; genPointerGet
                           3395 ; AOP_HL for _currentFreq
                           3396 ; Removed redundent load
                           3397 ; Removed redundent load
   034E 1A                 3398 	ld	a,(de)
   034F 21 30 01           3399 	ld	hl,#_currentFreq + 0
   0352 77                 3400 	ld	(hl),a
   0353 13                 3401 	inc	de
   0354 1A                 3402 	ld	a,(de)
   0355 21 31 01           3403 	ld	hl,#_currentFreq + 1
   0358 77                 3404 	ld	(hl),a
                           3405 ;	mGBSynthPitchFunctions.c 59
                           3406 ; genAssign
                           3407 ; AOP_STK for 
                           3408 ; AOP_STK for _addPortamento_sloc1_1_0
   0359 F8 07              3409 	lda	hl,7(sp)
   035B 7E                 3410 	ld	a,(hl)
   035C F8 00              3411 	lda	hl,0(sp)
   035E 77                 3412 	ld	(hl),a ; 3
                           3413 ; genPlus
                           3414 ; AOP_STK for _addPortamento_sloc1_1_0
                           3415 ; AOP_STK for _addPortamento_sloc0_1_0
   035F 3E AB              3416 	ld	a,#<_portDelay
   0361 86                 3417 	add	a,(hl)
   0362 23                 3418 	inc	hl
   0363 77                 3419 	ld	(hl),a ; 3
   0364 3E 01              3420 	ld	a,#>_portDelay
   0366 CE 00              3421 	adc	a,#0x00
   0368 23                 3422 	inc	hl
   0369 77                 3423 	ld	(hl),a ; 3
                           3424 ; genPointerGet
                           3425 ; AOP_STK for _addPortamento_sloc0_1_0
   036A 2B                 3426 	dec	hl
   036B 5E                 3427 	ld	e,(hl)
   036C 23                 3428 	inc	hl
   036D 56                 3429 	ld	d,(hl)
   036E 1A                 3430 	ld	a,(de)
   036F 47                 3431 	ld	b,a
                           3432 ; genPlus
                           3433 ; genPlusIncr
   0370 04                 3434 	inc	b
                           3435 ; genAssign (pointer)
                           3436 ; AOP_STK for _addPortamento_sloc0_1_0
   0371 2B                 3437 	dec	hl
   0372 5E                 3438 	ld	e,(hl)
   0373 23                 3439 	inc	hl
   0374 56                 3440 	ld	d,(hl)
   0375 78                 3441 	ld	a,b
   0376 12                 3442 	ld	(de),a
                           3443 ;	mGBSynthPitchFunctions.c 61
                           3444 ; genCmpEq
   0377 78                 3445 	ld	a,b ; 2
   0378 FE 01              3446 	cp	a,#0x01
   037A C2 7F 03           3447 	jp	nz,00121$
   037D 18 03              3448 	jr	00122$
   037F                    3449 00121$:
   037F C3 96 04           3450 	jp	00113$
   0382                    3451 00122$:
                           3452 ; genCmpEq
                           3453 ; AOP_HL for _currentFreq
                           3454 ; AOP_HL for _targetFreq
   0382 21 AF 01           3455 	ld	hl,#_targetFreq + 0
   0385 7E                 3456 	ld	a,(hl)
   0386 21 30 01           3457 	ld	hl,#_currentFreq + 0
   0389 BE                 3458 	cp	(hl) ; 5
   038A 20 0D              3459 	jr	nz,00123$
   038C 21 B0 01           3460 	ld	hl,#_targetFreq + 1
   038F 7E                 3461 	ld	a,(hl)
   0390 21 31 01           3462 	ld	hl,#_currentFreq + 1
   0393 BE                 3463 	cp	(hl) ; 5
   0394 20 03              3464 	jr	nz,00123$
   0396 C3 96 04           3465 	jp	00113$
   0399                    3466 00123$:
                           3467 ;	mGBSynthPitchFunctions.c 62
                           3468 ; genAssign (pointer)
                           3469 ; AOP_STK for _addPortamento_sloc0_1_0
   0399 F8 01              3470 	lda	hl,1(sp)
   039B 5E                 3471 	ld	e,(hl)
   039C 23                 3472 	inc	hl
   039D 56                 3473 	ld	d,(hl)
   039E 3E 00              3474 	ld	a,#0x00
   03A0 12                 3475 	ld	(de),a
                           3476 ;	mGBSynthPitchFunctions.c 64
                           3477 ; genCmpLt
                           3478 ; AOP_HL for _currentFreq
                           3479 ; AOP_HL for _targetFreq
   03A1 AF                 3480 	xor	a,a
   03A2 21 30 01           3481 	ld	hl,#_currentFreq + 0
   03A5 7E                 3482 	ld	a,(hl)
   03A6 21 AF 01           3483 	ld	hl,#_targetFreq + 0
   03A9 9E                 3484 	sbc	a,(hl) ; 2
   03AA 21 31 01           3485 	ld	hl,#_currentFreq + 1
   03AD 7E                 3486 	ld	a,(hl)
   03AE 21 B0 01           3487 	ld	hl,#_targetFreq + 1
   03B1 9E                 3488 	sbc	a,(hl) ; 2
   03B2 D2 1D 04           3489 	jp	nc,00108$
                           3490 ;	mGBSynthPitchFunctions.c 65
                           3491 ; genMinus
                           3492 ; AOP_HL for _targetFreq
                           3493 ; AOP_HL for _currentFreq
   03B5 21 AF 01           3494 	ld	hl,#_targetFreq + 0
   03B8 7E                 3495 	ld	a,(hl)
   03B9 21 30 01           3496 	ld	hl,#_currentFreq + 0
   03BC 96                 3497 	sub	a,(hl)
   03BD 47                 3498 	ld	b,a
   03BE 21 B0 01           3499 	ld	hl,#_targetFreq + 1
   03C1 7E                 3500 	ld	a,(hl)
   03C2 21 31 01           3501 	ld	hl,#_currentFreq + 1
   03C5 9E                 3502 	sbc	a,(hl)
   03C6 4F                 3503 	ld	c,a
                           3504 ; genCmpLt
                           3505 ; AOP_HL for _stepSize
   03C7 AF                 3506 	xor	a,a
   03C8 78                 3507 	ld	a,b
   03C9 21 B1 01           3508 	ld	hl,#_stepSize + 0
   03CC 9E                 3509 	sbc	a,(hl) ; 2
   03CD 79                 3510 	ld	a,c
   03CE 21 B2 01           3511 	ld	hl,#_stepSize + 1
   03D1 9E                 3512 	sbc	a,(hl) ; 2
   03D2 D2 DD 03           3513 	jp	nc,00102$
                           3514 ;	mGBSynthPitchFunctions.c 66
                           3515 ; genAssign
                           3516 ; AOP_HL for _stepSize
   03D5 21 B1 01           3517 	ld	hl,#_stepSize + 0
   03D8 70                 3518 	ld	(hl),b
   03D9 21 B2 01           3519 	ld	hl,#_stepSize + 1
   03DC 71                 3520 	ld	(hl),c
                           3521 ; genLabel
   03DD                    3522 00102$:
                           3523 ;	mGBSynthPitchFunctions.c 68
                           3524 ; genPlus
                           3525 ; AOP_HL for _currentFreq
                           3526 ; AOP_HL for _stepSize
   03DD 21 30 01           3527 	ld	hl,#_currentFreq + 0
   03E0 7E                 3528 	ld	a,(hl)
   03E1 21 B1 01           3529 	ld	hl,#_stepSize + 0
   03E4 86                 3530 	add	a,(hl)
   03E5 21 30 01           3531 	ld	hl,#_currentFreq + 0
   03E8 77                 3532 	ld	(hl),a
   03E9 21 31 01           3533 	ld	hl,#_currentFreq + 1
   03EC 7E                 3534 	ld	a,(hl)
   03ED 21 B2 01           3535 	ld	hl,#_stepSize + 1
   03F0 8E                 3536 	adc	a,(hl)
   03F1 21 31 01           3537 	ld	hl,#_currentFreq + 1
   03F4 77                 3538 	ld	(hl),a
                           3539 ;	mGBSynthPitchFunctions.c 69
                           3540 ; genRightShift
                           3541 ; AOP_HL for _currentFreq
                           3542 ; shift right 	result 2, left 2
   03F5 4E                 3543 	ld	c,(hl)
   03F6 06 00              3544 	ld	b,#0x00
                           3545 ; genCast
                           3546 ; AOP_SFR for _NR14_REG
   03F8 79                 3547 	ld	a,c
   03F9 E0 00              3548 	ldh	(_NR14_REG+0),a
                           3549 ;	mGBSynthPitchFunctions.c 70
                           3550 ; genCast
                           3551 ; AOP_HL for _currentFreq
                           3552 ; AOP_SFR for _NR13_REG
   03FB 21 30 01           3553 	ld	hl,#_currentFreq + 0
   03FE 7E                 3554 	ld	a,(hl)
   03FF E0 00              3555 	ldh	(_NR13_REG+0),a
                           3556 ;	mGBSynthPitchFunctions.c 71
                           3557 ; genLeftShift
                           3558 ; AOP_STK for _addPortamento_sloc1_1_0
   0401 F8 00              3559 	lda	hl,0(sp)
   0403 7E                 3560 	ld	a,(hl)
   0404 87                 3561 	add	a,a
   0405 4F                 3562 	ld	c,a
                           3563 ; genPlus
   0406 3E 4A              3564 	ld	a,#<_currentPortFreqData
   0408 81                 3565 	add	a,c
   0409 5F                 3566 	ld	e,a
   040A 3E 01              3567 	ld	a,#>_currentPortFreqData
   040C CE 00              3568 	adc	a,#0x00
   040E 57                 3569 	ld	d,a
                           3570 ; genAssign (pointer)
                           3571 ; AOP_HL for _currentFreq
   040F 21 30 01           3572 	ld	hl,#_currentFreq + 0
   0412 7E                 3573 	ld	a,(hl)
   0413 12                 3574 	ld	(de),a
   0414 13                 3575 	inc	de
   0415 21 31 01           3576 	ld	hl,#_currentFreq + 1
   0418 7E                 3577 	ld	a,(hl)
   0419 12                 3578 	ld	(de),a
                           3579 ; genGoto
   041A C3 96 04           3580 	jp	00113$
                           3581 ; genLabel
   041D                    3582 00108$:
                           3583 ;	mGBSynthPitchFunctions.c 73
                           3584 ; genCmpGt
                           3585 ; AOP_HL for _currentFreq
                           3586 ; AOP_HL for _targetFreq
   041D AF                 3587 	xor	a,a
   041E 21 AF 01           3588 	ld	hl,#_targetFreq + 0
   0421 7E                 3589 	ld	a,(hl)
   0422 21 30 01           3590 	ld	hl,#_currentFreq + 0
   0425 9E                 3591 	sbc	a,(hl) ; 2
   0426 21 B0 01           3592 	ld	hl,#_targetFreq + 1
   0429 7E                 3593 	ld	a,(hl)
   042A 21 31 01           3594 	ld	hl,#_currentFreq + 1
   042D 9E                 3595 	sbc	a,(hl) ; 2
   042E D2 96 04           3596 	jp	nc,00113$
                           3597 ;	mGBSynthPitchFunctions.c 74
                           3598 ; genMinus
                           3599 ; AOP_HL for _currentFreq
                           3600 ; AOP_HL for _targetFreq
   0431 21 30 01           3601 	ld	hl,#_currentFreq + 0
   0434 7E                 3602 	ld	a,(hl)
   0435 21 AF 01           3603 	ld	hl,#_targetFreq + 0
   0438 96                 3604 	sub	a,(hl)
   0439 4F                 3605 	ld	c,a
   043A 21 31 01           3606 	ld	hl,#_currentFreq + 1
   043D 7E                 3607 	ld	a,(hl)
   043E 21 B0 01           3608 	ld	hl,#_targetFreq + 1
   0441 9E                 3609 	sbc	a,(hl)
   0442 47                 3610 	ld	b,a
                           3611 ; genCmpLt
                           3612 ; AOP_HL for _stepSize
   0443 AF                 3613 	xor	a,a
   0444 79                 3614 	ld	a,c
   0445 21 B1 01           3615 	ld	hl,#_stepSize + 0
   0448 9E                 3616 	sbc	a,(hl) ; 2
   0449 78                 3617 	ld	a,b
   044A 21 B2 01           3618 	ld	hl,#_stepSize + 1
   044D 9E                 3619 	sbc	a,(hl) ; 2
   044E D2 59 04           3620 	jp	nc,00104$
                           3621 ;	mGBSynthPitchFunctions.c 75
                           3622 ; genAssign
                           3623 ; AOP_HL for _stepSize
   0451 21 B1 01           3624 	ld	hl,#_stepSize + 0
   0454 71                 3625 	ld	(hl),c
   0455 21 B2 01           3626 	ld	hl,#_stepSize + 1
   0458 70                 3627 	ld	(hl),b
                           3628 ; genLabel
   0459                    3629 00104$:
                           3630 ;	mGBSynthPitchFunctions.c 77
                           3631 ; genMinus
                           3632 ; AOP_HL for _currentFreq
                           3633 ; AOP_HL for _stepSize
   0459 21 30 01           3634 	ld	hl,#_currentFreq + 0
   045C 7E                 3635 	ld	a,(hl)
   045D 21 B1 01           3636 	ld	hl,#_stepSize + 0
   0460 96                 3637 	sub	a,(hl)
   0461 21 30 01           3638 	ld	hl,#_currentFreq + 0
   0464 77                 3639 	ld	(hl),a
   0465 21 31 01           3640 	ld	hl,#_currentFreq + 1
   0468 7E                 3641 	ld	a,(hl)
   0469 21 B2 01           3642 	ld	hl,#_stepSize + 1
   046C 9E                 3643 	sbc	a,(hl)
   046D 21 31 01           3644 	ld	hl,#_currentFreq + 1
   0470 77                 3645 	ld	(hl),a
                           3646 ;	mGBSynthPitchFunctions.c 78
                           3647 ; genRightShift
                           3648 ; AOP_HL for _currentFreq
                           3649 ; shift right 	result 2, left 2
   0471 4E                 3650 	ld	c,(hl)
   0472 06 00              3651 	ld	b,#0x00
                           3652 ; genCast
                           3653 ; AOP_SFR for _NR14_REG
   0474 79                 3654 	ld	a,c
   0475 E0 00              3655 	ldh	(_NR14_REG+0),a
                           3656 ;	mGBSynthPitchFunctions.c 79
                           3657 ; genCast
                           3658 ; AOP_HL for _currentFreq
                           3659 ; AOP_SFR for _NR13_REG
   0477 21 30 01           3660 	ld	hl,#_currentFreq + 0
   047A 7E                 3661 	ld	a,(hl)
   047B E0 00              3662 	ldh	(_NR13_REG+0),a
                           3663 ;	mGBSynthPitchFunctions.c 80
                           3664 ; genLeftShift
                           3665 ; AOP_STK for _addPortamento_sloc1_1_0
   047D F8 00              3666 	lda	hl,0(sp)
   047F 7E                 3667 	ld	a,(hl)
   0480 87                 3668 	add	a,a
   0481 4F                 3669 	ld	c,a
                           3670 ; genPlus
   0482 3E 4A              3671 	ld	a,#<_currentPortFreqData
   0484 81                 3672 	add	a,c
   0485 5F                 3673 	ld	e,a
   0486 3E 01              3674 	ld	a,#>_currentPortFreqData
   0488 CE 00              3675 	adc	a,#0x00
   048A 57                 3676 	ld	d,a
                           3677 ; genAssign (pointer)
                           3678 ; AOP_HL for _currentFreq
   048B 21 30 01           3679 	ld	hl,#_currentFreq + 0
   048E 7E                 3680 	ld	a,(hl)
   048F 12                 3681 	ld	(de),a
   0490 13                 3682 	inc	de
   0491 21 31 01           3683 	ld	hl,#_currentFreq + 1
   0494 7E                 3684 	ld	a,(hl)
   0495 12                 3685 	ld	(de),a
                           3686 ; genLabel
   0496                    3687 00113$:
                           3688 ; genEndFunction
   0496 E8 03              3689 	lda	sp,3(sp)
   0498 C1                 3690 	pop bc
   0499 C9                 3691 	ret
   049A                    3692 ___addPortamento_end:
                           3693 ;	mGBSynthPitchFunctions.c 85
                           3694 ; genLabel
                           3695 ; genFunction
                           3696 ;	---------------------------------
                           3697 ; Function addVibrato
                           3698 ; ---------------------------------
   049A                    3699 ___addVibrato_start:
   049A                    3700 _addVibrato:
   049A C5                 3701 	push	bc
   049B E8 FD              3702 	lda sp,-3(sp)
                           3703 ;	mGBSynthPitchFunctions.c 86
                           3704 ; genAssign
                           3705 ; AOP_STK for 
                           3706 ; AOP_STK for _addVibrato_sloc0_1_0
   049D F8 07              3707 	lda	hl,7(sp)
   049F 7E                 3708 	ld	a,(hl)
   04A0 F8 02              3709 	lda	hl,2(sp)
   04A2 77                 3710 	ld	(hl),a ; 3
                           3711 ; genPlus
                           3712 ; AOP_STK for _addVibrato_sloc0_1_0
   04A3 3E 93              3713 	ld	a,#<_vibratoDepth
   04A5 86                 3714 	add	a,(hl)
   04A6 5F                 3715 	ld	e,a
   04A7 3E 01              3716 	ld	a,#>_vibratoDepth
   04A9 CE 00              3717 	adc	a,#0x00
   04AB 57                 3718 	ld	d,a
                           3719 ; genPointerGet
   04AC 1A                 3720 	ld	a,(de)
   04AD 47                 3721 	ld	b,a
                           3722 ; genIfx
                           3723 ; Removed redundent or a,a
   04AE AF                 3724 	xor	a,a
   04AF B0                 3725 	or	a,b
   04B0 CA 53 05           3726 	jp	z,00112$
                           3727 ;	mGBSynthPitchFunctions.c 87
                           3728 ; genLeftShift
                           3729 ; AOP_STK for _addVibrato_sloc0_1_0
   04B3 7E                 3730 	ld	a,(hl)
   04B4 87                 3731 	add	a,a
   04B5 47                 3732 	ld	b,a
                           3733 ; genPlus
   04B6 3E 42              3734 	ld	a,#<_currentFreqData
   04B8 80                 3735 	add	a,b
   04B9 5F                 3736 	ld	e,a
   04BA 3E 01              3737 	ld	a,#>_currentFreqData
   04BC CE 00              3738 	adc	a,#0x00
   04BE 57                 3739 	ld	d,a
                           3740 ; genPointerGet
                           3741 ; AOP_STK for _addVibrato_sloc1_1_0
                           3742 ; Removed redundent load
                           3743 ; Removed redundent load
   04BF 1A                 3744 	ld	a,(de)
   04C0 2B                 3745 	dec	hl
   04C1 2B                 3746 	dec	hl
   04C2 77                 3747 	ld	(hl),a ; 3
   04C3 13                 3748 	inc	de
   04C4 1A                 3749 	ld	a,(de)
   04C5 23                 3750 	inc	hl
   04C6 77                 3751 	ld	(hl),a ; 3
                           3752 ; genPlus
                           3753 ; AOP_STK for _addVibrato_sloc0_1_0
   04C7 3E 8B              3754 	ld	a,#<_vibratoPosition
   04C9 23                 3755 	inc	hl
   04CA 86                 3756 	add	a,(hl)
   04CB 5F                 3757 	ld	e,a
   04CC 3E 01              3758 	ld	a,#>_vibratoPosition
   04CE CE 00              3759 	adc	a,#0x00
   04D0 57                 3760 	ld	d,a
                           3761 ; genPointerGet
   04D1 1A                 3762 	ld	a,(de)
   04D2 4F                 3763 	ld	c,a
                           3764 ; genCast
                           3765 ; Removed redundent load
   04D3 06 00              3766 	ld	b,#0x00
                           3767 ; genPlus
                           3768 ; AOP_STK for _addVibrato_sloc1_1_0
                           3769 ; AOP_HL for _currentFreq
   04D5 2B                 3770 	dec	hl
   04D6 2B                 3771 	dec	hl
   04D7 7E                 3772 	ld	a,(hl)
   04D8 81                 3773 	add	a,c
   04D9 21 30 01           3774 	ld	hl,#_currentFreq + 0
   04DC 77                 3775 	ld	(hl),a
   04DD F8 01              3776 	lda	hl,1(sp)
   04DF 7E                 3777 	ld	a,(hl)
   04E0 88                 3778 	adc	a,b
   04E1 21 31 01           3779 	ld	hl,#_currentFreq + 1
   04E4 77                 3780 	ld	(hl),a
                           3781 ;	mGBSynthPitchFunctions.c 88
                           3782 ; genPlus
                           3783 ; AOP_STK for _addVibrato_sloc0_1_0
   04E5 3E 1C              3784 	ld	a,#<_pbWheelInLast
   04E7 F8 02              3785 	lda	hl,2(sp)
   04E9 86                 3786 	add	a,(hl)
   04EA 5F                 3787 	ld	e,a
   04EB 3E 01              3788 	ld	a,#>_pbWheelInLast
   04ED CE 00              3789 	adc	a,#0x00
   04EF 57                 3790 	ld	d,a
                           3791 ; genAssign (pointer)
   04F0 3E 80              3792 	ld	a,#0x80
   04F2 12                 3793 	ld	(de),a
                           3794 ;	mGBSynthPitchFunctions.c 89
                           3795 ; genCmpEq
                           3796 ; AOP_STK for _addVibrato_sloc0_1_0
   04F3 7E                 3797 	ld	a,(hl)
   04F4 B7                 3798 	or	a,a
   04F5 C2 FA 04           3799 	jp	nz,00118$
   04F8 18 03              3800 	jr	00119$
   04FA                    3801 00118$:
   04FA C3 0F 05           3802 	jp	00108$
   04FD                    3803 00119$:
                           3804 ;	mGBSynthPitchFunctions.c 90
                           3805 ; genRightShift
                           3806 ; AOP_HL for _currentFreq
                           3807 ; shift right 	result 2, left 2
   04FD 21 31 01           3808 	ld	hl,#_currentFreq + 1
   0500 4E                 3809 	ld	c,(hl)
   0501 06 00              3810 	ld	b,#0x00
                           3811 ; genCast
                           3812 ; AOP_SFR for _NR14_REG
   0503 79                 3813 	ld	a,c
   0504 E0 00              3814 	ldh	(_NR14_REG+0),a
                           3815 ;	mGBSynthPitchFunctions.c 91
                           3816 ; genCast
                           3817 ; AOP_HL for _currentFreq
                           3818 ; AOP_SFR for _NR13_REG
   0506 21 30 01           3819 	ld	hl,#_currentFreq + 0
   0509 7E                 3820 	ld	a,(hl)
   050A E0 00              3821 	ldh	(_NR13_REG+0),a
                           3822 ; genGoto
   050C C3 53 05           3823 	jp	00112$
                           3824 ; genLabel
   050F                    3825 00108$:
                           3826 ;	mGBSynthPitchFunctions.c 92
                           3827 ; genCmpEq
                           3828 ; AOP_STK for _addVibrato_sloc0_1_0
   050F F8 02              3829 	lda	hl,2(sp)
   0511 7E                 3830 	ld	a,(hl) ; 2
   0512 FE 01              3831 	cp	a,#0x01
   0514 C2 19 05           3832 	jp	nz,00120$
   0517 18 03              3833 	jr	00121$
   0519                    3834 00120$:
   0519 C3 2E 05           3835 	jp	00105$
   051C                    3836 00121$:
                           3837 ;	mGBSynthPitchFunctions.c 93
                           3838 ; genRightShift
                           3839 ; AOP_HL for _currentFreq
                           3840 ; shift right 	result 2, left 2
   051C 21 31 01           3841 	ld	hl,#_currentFreq + 1
   051F 4E                 3842 	ld	c,(hl)
   0520 06 00              3843 	ld	b,#0x00
                           3844 ; genCast
                           3845 ; AOP_SFR for _NR24_REG
   0522 79                 3846 	ld	a,c
   0523 E0 00              3847 	ldh	(_NR24_REG+0),a
                           3848 ;	mGBSynthPitchFunctions.c 94
                           3849 ; genCast
                           3850 ; AOP_HL for _currentFreq
                           3851 ; AOP_SFR for _NR23_REG
   0525 21 30 01           3852 	ld	hl,#_currentFreq + 0
   0528 7E                 3853 	ld	a,(hl)
   0529 E0 00              3854 	ldh	(_NR23_REG+0),a
                           3855 ; genGoto
   052B C3 53 05           3856 	jp	00112$
                           3857 ; genLabel
   052E                    3858 00105$:
                           3859 ;	mGBSynthPitchFunctions.c 95
                           3860 ; genCmpEq
                           3861 ; AOP_STK for _addVibrato_sloc0_1_0
   052E F8 02              3862 	lda	hl,2(sp)
   0530 7E                 3863 	ld	a,(hl) ; 2
   0531 FE 02              3864 	cp	a,#0x02
   0533 C2 38 05           3865 	jp	nz,00122$
   0536 18 03              3866 	jr	00123$
   0538                    3867 00122$:
   0538 C3 4D 05           3868 	jp	00102$
   053B                    3869 00123$:
                           3870 ;	mGBSynthPitchFunctions.c 96
                           3871 ; genRightShift
                           3872 ; AOP_HL for _currentFreq
                           3873 ; shift right 	result 2, left 2
   053B 21 31 01           3874 	ld	hl,#_currentFreq + 1
   053E 4E                 3875 	ld	c,(hl)
   053F 06 00              3876 	ld	b,#0x00
                           3877 ; genCast
                           3878 ; AOP_SFR for _NR34_REG
   0541 79                 3879 	ld	a,c
   0542 E0 00              3880 	ldh	(_NR34_REG+0),a
                           3881 ;	mGBSynthPitchFunctions.c 97
                           3882 ; genCast
                           3883 ; AOP_HL for _currentFreq
                           3884 ; AOP_SFR for _NR33_REG
   0544 21 30 01           3885 	ld	hl,#_currentFreq + 0
   0547 7E                 3886 	ld	a,(hl)
   0548 E0 00              3887 	ldh	(_NR33_REG+0),a
                           3888 ; genGoto
   054A C3 53 05           3889 	jp	00112$
                           3890 ; genLabel
   054D                    3891 00102$:
                           3892 ;	mGBSynthPitchFunctions.c 99
                           3893 ; genCast
                           3894 ; AOP_HL for _currentFreq
                           3895 ; AOP_SFR for _NR43_REG
   054D 21 30 01           3896 	ld	hl,#_currentFreq + 0
   0550 7E                 3897 	ld	a,(hl)
   0551 E0 00              3898 	ldh	(_NR43_REG+0),a
                           3899 ; genLabel
   0553                    3900 00112$:
                           3901 ; genEndFunction
   0553 E8 03              3902 	lda	sp,3(sp)
   0555 C1                 3903 	pop bc
   0556 C9                 3904 	ret
   0557                    3905 ___addVibrato_end:
                           3906 ;	mGBSynthPitchFunctions.c 106
                           3907 ; genLabel
                           3908 ; genFunction
                           3909 ;	---------------------------------
                           3910 ; Function updateVibratoPosition
                           3911 ; ---------------------------------
   0557                    3912 ___updateVibratoPosition_start:
   0557                    3913 _updateVibratoPosition:
   0557 C5                 3914 	push	bc
   0558 E8 F9              3915 	lda sp,-7(sp)
                           3916 ;	mGBSynthPitchFunctions.c 108
                           3917 ; genAssign
                           3918 ; AOP_STK for 
   055A F8 0B              3919 	lda	hl,11(sp)
   055C 4E                 3920 	ld	c,(hl)
                           3921 ; genPlus
                           3922 ; AOP_STK for _updateVibratoPosition_sloc0_1_0
   055D 3E 04              3923 	ld	a,#<_vibratoTimer
   055F 81                 3924 	add	a,c
   0560 F8 05              3925 	lda	hl,5(sp)
   0562 77                 3926 	ld	(hl),a ; 3
   0563 3E 02              3927 	ld	a,#>_vibratoTimer
   0565 CE 00              3928 	adc	a,#0x00
   0567 23                 3929 	inc	hl
   0568 77                 3930 	ld	(hl),a ; 3
                           3931 ; genPointerGet
                           3932 ; AOP_STK for _updateVibratoPosition_sloc0_1_0
   0569 2B                 3933 	dec	hl
   056A 5E                 3934 	ld	e,(hl)
   056B 23                 3935 	inc	hl
   056C 56                 3936 	ld	d,(hl)
   056D 1A                 3937 	ld	a,(de)
   056E 47                 3938 	ld	b,a
                           3939 ; genPlus
   056F 3E 8F              3940 	ld	a,#<_vibratoSpeed
   0571 81                 3941 	add	a,c
   0572 5F                 3942 	ld	e,a
   0573 3E 01              3943 	ld	a,#>_vibratoSpeed
   0575 CE 00              3944 	adc	a,#0x00
   0577 57                 3945 	ld	d,a
                           3946 ; genPointerGet
   0578 1A                 3947 	ld	a,(de)
                           3948 ; genCmpEq
   0579 B8                 3949 	cp	b ; 5
   057A 20 02              3950 	jr	nz,00116$
   057C 18 03              3951 	jr	00117$
   057E                    3952 00116$:
   057E C3 0B 06           3953 	jp	00109$
   0581                    3954 00117$:
                           3955 ;	mGBSynthPitchFunctions.c 109
                           3956 ; genAssign (pointer)
                           3957 ; AOP_STK for _updateVibratoPosition_sloc0_1_0
   0581 F8 05              3958 	lda	hl,5(sp)
   0583 5E                 3959 	ld	e,(hl)
   0584 23                 3960 	inc	hl
   0585 56                 3961 	ld	d,(hl)
   0586 3E 00              3962 	ld	a,#0x00
   0588 12                 3963 	ld	(de),a
                           3964 ;	mGBSynthPitchFunctions.c 110
                           3965 ; genPlus
                           3966 ; AOP_STK for _updateVibratoPosition_sloc1_1_0
   0589 3E 97              3967 	ld	a,#<_vibratoSlope
   058B 81                 3968 	add	a,c
   058C F8 03              3969 	lda	hl,3(sp)
   058E 77                 3970 	ld	(hl),a ; 3
   058F 3E 01              3971 	ld	a,#>_vibratoSlope
   0591 CE 00              3972 	adc	a,#0x00
   0593 23                 3973 	inc	hl
   0594 77                 3974 	ld	(hl),a ; 3
                           3975 ; genPointerGet
                           3976 ; AOP_STK for _updateVibratoPosition_sloc1_1_0
   0595 2B                 3977 	dec	hl
   0596 5E                 3978 	ld	e,(hl)
   0597 23                 3979 	inc	hl
   0598 56                 3980 	ld	d,(hl)
   0599 1A                 3981 	ld	a,(de)
   059A 47                 3982 	ld	b,a
                           3983 ; genIfx
                           3984 ; Removed redundent or a,a
   059B AF                 3985 	xor	a,a
   059C B0                 3986 	or	a,b
   059D CA D2 05           3987 	jp	z,00105$
                           3988 ; genPlus
                           3989 ; AOP_STK for _updateVibratoPosition_sloc2_1_0
   05A0 3E 8B              3990 	ld	a,#<_vibratoPosition
   05A2 81                 3991 	add	a,c
   05A3 F8 01              3992 	lda	hl,1(sp)
   05A5 77                 3993 	ld	(hl),a ; 3
   05A6 3E 01              3994 	ld	a,#>_vibratoPosition
   05A8 CE 00              3995 	adc	a,#0x00
   05AA 23                 3996 	inc	hl
   05AB 77                 3997 	ld	(hl),a ; 3
                           3998 ; genPointerGet
                           3999 ; AOP_STK for _updateVibratoPosition_sloc2_1_0
                           4000 ; AOP_STK for _updateVibratoPosition_sloc3_1_0
   05AC 2B                 4001 	dec	hl
   05AD 5E                 4002 	ld	e,(hl)
   05AE 23                 4003 	inc	hl
   05AF 56                 4004 	ld	d,(hl)
   05B0 1A                 4005 	ld	a,(de)
   05B1 2B                 4006 	dec	hl
   05B2 2B                 4007 	dec	hl
   05B3 77                 4008 	ld	(hl),a ; 3
                           4009 ; genPlus
   05B4 3E 93              4010 	ld	a,#<_vibratoDepth
   05B6 81                 4011 	add	a,c
   05B7 5F                 4012 	ld	e,a
   05B8 3E 01              4013 	ld	a,#>_vibratoDepth
   05BA CE 00              4014 	adc	a,#0x00
   05BC 57                 4015 	ld	d,a
                           4016 ; genPointerGet
   05BD 1A                 4017 	ld	a,(de)
   05BE 47                 4018 	ld	b,a
                           4019 ; genCmpLt
                           4020 ; AOP_STK for _updateVibratoPosition_sloc3_1_0
   05BF AF                 4021 	xor	a,a
   05C0 7E                 4022 	ld	a,(hl)
   05C1 98                 4023 	sbc	a,b ; 2
   05C2 D2 D2 05           4024 	jp	nc,00105$
                           4025 ;	mGBSynthPitchFunctions.c 111
                           4026 ; genPlus
                           4027 ; AOP_STK for _updateVibratoPosition_sloc3_1_0
                           4028 ; genPlusIncr
   05C5 7E                 4029 	ld	a,(hl)
   05C6 C6 01              4030 	add	a,#0x01
   05C8 47                 4031 	ld	b,a
                           4032 ; genAssign (pointer)
                           4033 ; AOP_STK for _updateVibratoPosition_sloc2_1_0
   05C9 23                 4034 	inc	hl
   05CA 5E                 4035 	ld	e,(hl)
   05CB 23                 4036 	inc	hl
   05CC 56                 4037 	ld	d,(hl)
   05CD 78                 4038 	ld	a,b
   05CE 12                 4039 	ld	(de),a
                           4040 ; genGoto
   05CF C3 03 06           4041 	jp	00106$
                           4042 ; genLabel
   05D2                    4043 00105$:
                           4044 ;	mGBSynthPitchFunctions.c 113
                           4045 ; genAssign (pointer)
                           4046 ; AOP_STK for _updateVibratoPosition_sloc1_1_0
   05D2 F8 03              4047 	lda	hl,3(sp)
   05D4 5E                 4048 	ld	e,(hl)
   05D5 23                 4049 	inc	hl
   05D6 56                 4050 	ld	d,(hl)
   05D7 3E 00              4051 	ld	a,#0x00
   05D9 12                 4052 	ld	(de),a
                           4053 ;	mGBSynthPitchFunctions.c 114
                           4054 ; genPlus
                           4055 ; AOP_STK for _updateVibratoPosition_sloc2_1_0
   05DA 3E 8B              4056 	ld	a,#<_vibratoPosition
   05DC 81                 4057 	add	a,c
   05DD F8 01              4058 	lda	hl,1(sp)
   05DF 77                 4059 	ld	(hl),a ; 3
   05E0 3E 01              4060 	ld	a,#>_vibratoPosition
   05E2 CE 00              4061 	adc	a,#0x00
   05E4 23                 4062 	inc	hl
   05E5 77                 4063 	ld	(hl),a ; 3
                           4064 ; genPointerGet
                           4065 ; AOP_STK for _updateVibratoPosition_sloc2_1_0
   05E6 2B                 4066 	dec	hl
   05E7 5E                 4067 	ld	e,(hl)
   05E8 23                 4068 	inc	hl
   05E9 56                 4069 	ld	d,(hl)
   05EA 1A                 4070 	ld	a,(de)
   05EB 47                 4071 	ld	b,a
                           4072 ; genIfx
                           4073 ; Removed redundent or a,a
   05EC AF                 4074 	xor	a,a
   05ED B0                 4075 	or	a,b
   05EE CA FB 05           4076 	jp	z,00102$
                           4077 ;	mGBSynthPitchFunctions.c 115
                           4078 ; genMinus
   05F1 05                 4079 	dec	b
                           4080 ; genAssign (pointer)
                           4081 ; AOP_STK for _updateVibratoPosition_sloc2_1_0
   05F2 2B                 4082 	dec	hl
   05F3 5E                 4083 	ld	e,(hl)
   05F4 23                 4084 	inc	hl
   05F5 56                 4085 	ld	d,(hl)
   05F6 78                 4086 	ld	a,b
   05F7 12                 4087 	ld	(de),a
                           4088 ; genGoto
   05F8 C3 03 06           4089 	jp	00106$
                           4090 ; genLabel
   05FB                    4091 00102$:
                           4092 ;	mGBSynthPitchFunctions.c 117
                           4093 ; genAssign (pointer)
                           4094 ; AOP_STK for _updateVibratoPosition_sloc1_1_0
   05FB F8 03              4095 	lda	hl,3(sp)
   05FD 5E                 4096 	ld	e,(hl)
   05FE 23                 4097 	inc	hl
   05FF 56                 4098 	ld	d,(hl)
   0600 3E 01              4099 	ld	a,#0x01
   0602 12                 4100 	ld	(de),a
                           4101 ; genLabel
   0603                    4102 00106$:
                           4103 ;	mGBSynthPitchFunctions.c 120
                           4104 ; genIpush
   0603 79                 4105 	ld	a,c
   0604 F5                 4106 	push	af
   0605 33                 4107 	inc	sp
                           4108 ; genCall
   0606 CD 9A 04           4109 	call	_addVibrato
   0609 E8 01              4110 	lda	sp,1(sp)
                           4111 ; genLabel
   060B                    4112 00109$:
                           4113 ;	mGBSynthPitchFunctions.c 123
                           4114 ; genPointerGet
                           4115 ; AOP_STK for _updateVibratoPosition_sloc0_1_0
   060B F8 05              4116 	lda	hl,5(sp)
   060D 5E                 4117 	ld	e,(hl)
   060E 23                 4118 	inc	hl
   060F 56                 4119 	ld	d,(hl)
   0610 1A                 4120 	ld	a,(de)
   0611 4F                 4121 	ld	c,a
                           4122 ; genPlus
                           4123 ; genPlusIncr
   0612 0C                 4124 	inc	c
                           4125 ; genAssign (pointer)
                           4126 ; AOP_STK for _updateVibratoPosition_sloc0_1_0
   0613 2B                 4127 	dec	hl
   0614 5E                 4128 	ld	e,(hl)
   0615 23                 4129 	inc	hl
   0616 56                 4130 	ld	d,(hl)
   0617 79                 4131 	ld	a,c
   0618 12                 4132 	ld	(de),a
                           4133 ; genLabel
   0619                    4134 00110$:
                           4135 ; genEndFunction
   0619 E8 07              4136 	lda	sp,7(sp)
   061B C1                 4137 	pop bc
   061C C9                 4138 	ret
   061D                    4139 ___updateVibratoPosition_end:
                           4140 ;	mGBSynthCommonFunctions.c 4
                           4141 ; genLabel
                           4142 ; genFunction
                           4143 ;	---------------------------------
                           4144 ; Function setOutputSwitch
                           4145 ; ---------------------------------
   061D                    4146 ___setOutputSwitch_start:
   061D                    4147 _setOutputSwitch:
   061D C5                 4148 	push	bc
                           4149 ;	mGBSynthCommonFunctions.c 6
                           4150 ; genPointerGet
   061E 11 09 01           4151 	ld	de,#_outputSwitch + 0
   0621 1A                 4152 	ld	a,(de)
   0622 4F                 4153 	ld	c,a
                           4154 ; genPlus
                           4155 ; genPlusIncr
   0623 11 0A 01           4156 	ld	de,#_outputSwitch + 1
                           4157 ; genPointerGet
   0626 1A                 4158 	ld	a,(de)
                           4159 ; genPlus
   0627 81                 4160 	add	a,c
   0628 4F                 4161 	ld	c,a
                           4162 ; genPlus
                           4163 ; genPlusIncr
   0629 11 0B 01           4164 	ld	de,#_outputSwitch + 2
                           4165 ; genPointerGet
   062C 1A                 4166 	ld	a,(de)
                           4167 ; genPlus
   062D 81                 4168 	add	a,c
   062E 4F                 4169 	ld	c,a
                           4170 ; genPlus
                           4171 ; genPlusIncr
   062F 11 0C 01           4172 	ld	de,#_outputSwitch + 3
                           4173 ; genPointerGet
   0632 1A                 4174 	ld	a,(de)
                           4175 ; genPlus
                           4176 ; AOP_SFR for _NR51_REG
   0633 81                 4177 	add	a,c
   0634 E0 00              4178 	ldh	(_NR51_REG+0),a
                           4179 ; genLabel
   0636                    4180 00101$:
                           4181 ; genEndFunction
   0636 C1                 4182 	pop	bc
   0637 C9                 4183 	ret
   0638                    4184 ___setOutputSwitch_end:
                           4185 ;	mGBSynthCommonFunctions.c 9
                           4186 ; genLabel
                           4187 ; genFunction
                           4188 ;	---------------------------------
                           4189 ; Function setOutputPanBySynth
                           4190 ; ---------------------------------
   0638                    4191 ___setOutputPanBySynth_start:
   0638                    4192 _setOutputPanBySynth:
   0638 C5                 4193 	push	bc
                           4194 ;	mGBSynthCommonFunctions.c 11
                           4195 ; genAssign
                           4196 ; AOP_STK for 
   0639 F8 04              4197 	lda	hl,4(sp)
   063B 4E                 4198 	ld	c,(hl)
                           4199 ; genPlus
   063C 3E 11              4200 	ld	a,#<_outputSwitchValue
   063E 81                 4201 	add	a,c
   063F 5F                 4202 	ld	e,a
   0640 3E 01              4203 	ld	a,#>_outputSwitchValue
   0642 CE 00              4204 	adc	a,#0x00
   0644 57                 4205 	ld	d,a
                           4206 ; genAssign (pointer)
                           4207 ; AOP_STK for 
   0645 23                 4208 	inc	hl
   0646 7E                 4209 	ld	a,(hl)
   0647 12                 4210 	ld	(de),a
                           4211 ;	mGBSynthCommonFunctions.c 13
                           4212 ; genCmpEq
                           4213 ; AOP_STK for 
   0648 7E                 4214 	ld	a,(hl) ; 2
   0649 FE 03              4215 	cp	a,#0x03
   064B C2 50 06           4216 	jp	nz,00115$
   064E 18 03              4217 	jr	00116$
   0650                    4218 00115$:
   0650 C3 66 06           4219 	jp	00108$
   0653                    4220 00116$:
                           4221 ;	mGBSynthCommonFunctions.c 14
                           4222 ; genLeftShift
   0653 79                 4223 	ld	a,c
   0654 3C                 4224 	inc	a
                           4225 ; AOP_STK for 
   0655 F8 05              4226 	lda	hl,5(sp)
   0657 36 11              4227 	ld	(hl),#0x11 ; 3
   0659 18 05              4228 	jr	00118$
   065B                    4229 00117$:
   065B F8 05              4230 	lda	hl,5(sp)
   065D B7                 4231 	or	a,a
   065E CB 16              4232 	rl	(hl)
   0660                    4233 00118$:
   0660 3D                 4234 	dec	a
   0661 20 F8              4235 	jr	nz,00117$
                           4236 ; genGoto
   0663 C3 AA 06           4237 	jp	00109$
                           4238 ; genLabel
   0666                    4239 00108$:
                           4240 ;	mGBSynthCommonFunctions.c 15
                           4241 ; genCmpEq
                           4242 ; AOP_STK for 
   0666 F8 05              4243 	lda	hl,5(sp)
   0668 7E                 4244 	ld	a,(hl) ; 2
   0669 FE 02              4245 	cp	a,#0x02
   066B C2 70 06           4246 	jp	nz,00119$
   066E 18 03              4247 	jr	00120$
   0670                    4248 00119$:
   0670 C3 86 06           4249 	jp	00105$
   0673                    4250 00120$:
                           4251 ;	mGBSynthCommonFunctions.c 16
                           4252 ; genLeftShift
   0673 79                 4253 	ld	a,c
   0674 3C                 4254 	inc	a
                           4255 ; AOP_STK for 
   0675 F8 05              4256 	lda	hl,5(sp)
   0677 36 10              4257 	ld	(hl),#0x10 ; 3
   0679 18 05              4258 	jr	00122$
   067B                    4259 00121$:
   067B F8 05              4260 	lda	hl,5(sp)
   067D B7                 4261 	or	a,a
   067E CB 16              4262 	rl	(hl)
   0680                    4263 00122$:
   0680 3D                 4264 	dec	a
   0681 20 F8              4265 	jr	nz,00121$
                           4266 ; genGoto
   0683 C3 AA 06           4267 	jp	00109$
                           4268 ; genLabel
   0686                    4269 00105$:
                           4270 ;	mGBSynthCommonFunctions.c 17
                           4271 ; genCmpEq
                           4272 ; AOP_STK for 
   0686 F8 05              4273 	lda	hl,5(sp)
   0688 7E                 4274 	ld	a,(hl) ; 2
   0689 FE 01              4275 	cp	a,#0x01
   068B C2 90 06           4276 	jp	nz,00123$
   068E 18 03              4277 	jr	00124$
   0690                    4278 00123$:
   0690 C3 A6 06           4279 	jp	00102$
   0693                    4280 00124$:
                           4281 ;	mGBSynthCommonFunctions.c 18
                           4282 ; genLeftShift
   0693 79                 4283 	ld	a,c
   0694 3C                 4284 	inc	a
                           4285 ; AOP_STK for 
   0695 F8 05              4286 	lda	hl,5(sp)
   0697 36 01              4287 	ld	(hl),#0x01 ; 3
   0699 18 05              4288 	jr	00126$
   069B                    4289 00125$:
   069B F8 05              4290 	lda	hl,5(sp)
   069D B7                 4291 	or	a,a
   069E CB 16              4292 	rl	(hl)
   06A0                    4293 00126$:
   06A0 3D                 4294 	dec	a
   06A1 20 F8              4295 	jr	nz,00125$
                           4296 ; genGoto
   06A3 C3 AA 06           4297 	jp	00109$
                           4298 ; genLabel
   06A6                    4299 00102$:
                           4300 ;	mGBSynthCommonFunctions.c 20
                           4301 ; genAssign
                           4302 ; AOP_STK for 
   06A6 F8 05              4303 	lda	hl,5(sp)
   06A8 36 00              4304 	ld	(hl),#0x00 ; 3
                           4305 ; genLabel
   06AA                    4306 00109$:
                           4307 ;	mGBSynthCommonFunctions.c 22
                           4308 ; genPlus
   06AA 3E 09              4309 	ld	a,#<_outputSwitch
   06AC 81                 4310 	add	a,c
   06AD 5F                 4311 	ld	e,a
   06AE 3E 01              4312 	ld	a,#>_outputSwitch
   06B0 CE 00              4313 	adc	a,#0x00
   06B2 57                 4314 	ld	d,a
                           4315 ; genAssign (pointer)
                           4316 ; AOP_STK for 
   06B3 F8 05              4317 	lda	hl,5(sp)
   06B5 7E                 4318 	ld	a,(hl)
   06B6 12                 4319 	ld	(de),a
                           4320 ;	mGBSynthCommonFunctions.c 23
                           4321 ; genPointerGet
   06B7 11 09 01           4322 	ld	de,#_outputSwitch + 0
   06BA 1A                 4323 	ld	a,(de)
   06BB 4F                 4324 	ld	c,a
                           4325 ; genPlus
                           4326 ; genPlusIncr
   06BC 11 0A 01           4327 	ld	de,#_outputSwitch + 1
                           4328 ; genPointerGet
   06BF 1A                 4329 	ld	a,(de)
                           4330 ; genPlus
   06C0 81                 4331 	add	a,c
   06C1 4F                 4332 	ld	c,a
                           4333 ; genPlus
                           4334 ; genPlusIncr
   06C2 11 0B 01           4335 	ld	de,#_outputSwitch + 2
                           4336 ; genPointerGet
   06C5 1A                 4337 	ld	a,(de)
                           4338 ; genPlus
   06C6 81                 4339 	add	a,c
   06C7 4F                 4340 	ld	c,a
                           4341 ; genPlus
                           4342 ; genPlusIncr
   06C8 11 0C 01           4343 	ld	de,#_outputSwitch + 3
                           4344 ; genPointerGet
   06CB 1A                 4345 	ld	a,(de)
                           4346 ; genPlus
                           4347 ; AOP_SFR for _NR51_REG
   06CC 81                 4348 	add	a,c
   06CD E0 00              4349 	ldh	(_NR51_REG+0),a
                           4350 ; genLabel
   06CF                    4351 00110$:
                           4352 ; genEndFunction
   06CF C1                 4353 	pop	bc
   06D0 C9                 4354 	ret
   06D1                    4355 ___setOutputPanBySynth_end:
                           4356 ;	mGBSynthCommonFunctions.c 26
                           4357 ; genLabel
                           4358 ; genFunction
                           4359 ;	---------------------------------
                           4360 ; Function setOutputPan
                           4361 ; ---------------------------------
   06D1                    4362 ___setOutputPan_start:
   06D1                    4363 _setOutputPan:
   06D1 C5                 4364 	push	bc
                           4365 ;	mGBSynthCommonFunctions.c 28
                           4366 ; genCmpGt
                           4367 ; AOP_STK for 
   06D2 AF                 4368 	xor	a,a
   06D3 3E 60              4369 	ld	a,#0x60
   06D5 F8 05              4370 	lda	hl,5(sp)
   06D7 9E                 4371 	sbc	a,(hl) ; 2
   06D8 D2 FD 06           4372 	jp	nc,00105$
                           4373 ;	mGBSynthCommonFunctions.c 29
                           4374 ; genLeftShift
                           4375 ; AOP_STK for 
   06DB 2B                 4376 	dec	hl
   06DC 7E                 4377 	ld	a,(hl)
   06DD 3C                 4378 	inc	a
                           4379 ; AOP_STK for 
   06DE 23                 4380 	inc	hl
   06DF 36 10              4381 	ld	(hl),#0x10 ; 3
   06E1 18 05              4382 	jr	00112$
   06E3                    4383 00111$:
   06E3 F8 05              4384 	lda	hl,5(sp)
   06E5 B7                 4385 	or	a,a
   06E6 CB 16              4386 	rl	(hl)
   06E8                    4387 00112$:
   06E8 3D                 4388 	dec	a
   06E9 20 F8              4389 	jr	nz,00111$
                           4390 ;	mGBSynthCommonFunctions.c 30
                           4391 ; genAssign
                           4392 ; AOP_STK for 
   06EB F8 04              4393 	lda	hl,4(sp)
   06ED 4E                 4394 	ld	c,(hl)
                           4395 ; genPlus
   06EE 3E 11              4396 	ld	a,#<_outputSwitchValue
   06F0 81                 4397 	add	a,c
   06F1 5F                 4398 	ld	e,a
   06F2 3E 01              4399 	ld	a,#>_outputSwitchValue
   06F4 CE 00              4400 	adc	a,#0x00
   06F6 57                 4401 	ld	d,a
                           4402 ; genAssign (pointer)
   06F7 3E 02              4403 	ld	a,#0x02
   06F9 12                 4404 	ld	(de),a
                           4405 ; genGoto
   06FA C3 48 07           4406 	jp	00106$
                           4407 ; genLabel
   06FD                    4408 00105$:
                           4409 ;	mGBSynthCommonFunctions.c 31
                           4410 ; genCmpGt
                           4411 ; AOP_STK for 
   06FD AF                 4412 	xor	a,a
   06FE 3E 20              4413 	ld	a,#0x20
   0700 F8 05              4414 	lda	hl,5(sp)
   0702 9E                 4415 	sbc	a,(hl) ; 2
   0703 D2 28 07           4416 	jp	nc,00102$
                           4417 ;	mGBSynthCommonFunctions.c 32
                           4418 ; genLeftShift
                           4419 ; AOP_STK for 
   0706 2B                 4420 	dec	hl
   0707 7E                 4421 	ld	a,(hl)
   0708 3C                 4422 	inc	a
                           4423 ; AOP_STK for 
   0709 23                 4424 	inc	hl
   070A 36 11              4425 	ld	(hl),#0x11 ; 3
   070C 18 05              4426 	jr	00114$
   070E                    4427 00113$:
   070E F8 05              4428 	lda	hl,5(sp)
   0710 B7                 4429 	or	a,a
   0711 CB 16              4430 	rl	(hl)
   0713                    4431 00114$:
   0713 3D                 4432 	dec	a
   0714 20 F8              4433 	jr	nz,00113$
                           4434 ;	mGBSynthCommonFunctions.c 33
                           4435 ; genAssign
                           4436 ; AOP_STK for 
   0716 F8 04              4437 	lda	hl,4(sp)
   0718 4E                 4438 	ld	c,(hl)
                           4439 ; genPlus
   0719 3E 11              4440 	ld	a,#<_outputSwitchValue
   071B 81                 4441 	add	a,c
   071C 5F                 4442 	ld	e,a
   071D 3E 01              4443 	ld	a,#>_outputSwitchValue
   071F CE 00              4444 	adc	a,#0x00
   0721 57                 4445 	ld	d,a
                           4446 ; genAssign (pointer)
   0722 3E 03              4447 	ld	a,#0x03
   0724 12                 4448 	ld	(de),a
                           4449 ; genGoto
   0725 C3 48 07           4450 	jp	00106$
                           4451 ; genLabel
   0728                    4452 00102$:
                           4453 ;	mGBSynthCommonFunctions.c 35
                           4454 ; genLeftShift
                           4455 ; AOP_STK for 
   0728 F8 04              4456 	lda	hl,4(sp)
   072A 7E                 4457 	ld	a,(hl)
   072B 3C                 4458 	inc	a
                           4459 ; AOP_STK for 
   072C 23                 4460 	inc	hl
   072D 36 01              4461 	ld	(hl),#0x01 ; 3
   072F 18 05              4462 	jr	00116$
   0731                    4463 00115$:
   0731 F8 05              4464 	lda	hl,5(sp)
   0733 B7                 4465 	or	a,a
   0734 CB 16              4466 	rl	(hl)
   0736                    4467 00116$:
   0736 3D                 4468 	dec	a
   0737 20 F8              4469 	jr	nz,00115$
                           4470 ;	mGBSynthCommonFunctions.c 36
                           4471 ; genAssign
                           4472 ; AOP_STK for 
   0739 F8 04              4473 	lda	hl,4(sp)
   073B 4E                 4474 	ld	c,(hl)
                           4475 ; genPlus
   073C 3E 11              4476 	ld	a,#<_outputSwitchValue
   073E 81                 4477 	add	a,c
   073F 5F                 4478 	ld	e,a
   0740 3E 01              4479 	ld	a,#>_outputSwitchValue
   0742 CE 00              4480 	adc	a,#0x00
   0744 57                 4481 	ld	d,a
                           4482 ; genAssign (pointer)
   0745 3E 01              4483 	ld	a,#0x01
   0747 12                 4484 	ld	(de),a
                           4485 ; genLabel
   0748                    4486 00106$:
                           4487 ;	mGBSynthCommonFunctions.c 38
                           4488 ; genAssign
                           4489 ; AOP_STK for 
   0748 F8 04              4490 	lda	hl,4(sp)
   074A 4E                 4491 	ld	c,(hl)
                           4492 ; genPlus
   074B 3E 09              4493 	ld	a,#<_outputSwitch
   074D 81                 4494 	add	a,c
   074E 5F                 4495 	ld	e,a
   074F 3E 01              4496 	ld	a,#>_outputSwitch
   0751 CE 00              4497 	adc	a,#0x00
   0753 57                 4498 	ld	d,a
                           4499 ; genAssign (pointer)
                           4500 ; AOP_STK for 
   0754 23                 4501 	inc	hl
   0755 7E                 4502 	ld	a,(hl)
   0756 12                 4503 	ld	(de),a
                           4504 ;	mGBSynthCommonFunctions.c 39
                           4505 ; genPointerGet
   0757 11 09 01           4506 	ld	de,#_outputSwitch + 0
   075A 1A                 4507 	ld	a,(de)
   075B 4F                 4508 	ld	c,a
                           4509 ; genPlus
                           4510 ; genPlusIncr
   075C 11 0A 01           4511 	ld	de,#_outputSwitch + 1
                           4512 ; genPointerGet
   075F 1A                 4513 	ld	a,(de)
                           4514 ; genPlus
   0760 81                 4515 	add	a,c
   0761 4F                 4516 	ld	c,a
                           4517 ; genPlus
                           4518 ; genPlusIncr
   0762 11 0B 01           4519 	ld	de,#_outputSwitch + 2
                           4520 ; genPointerGet
   0765 1A                 4521 	ld	a,(de)
                           4522 ; genPlus
   0766 81                 4523 	add	a,c
   0767 4F                 4524 	ld	c,a
                           4525 ; genPlus
                           4526 ; genPlusIncr
   0768 11 0C 01           4527 	ld	de,#_outputSwitch + 3
                           4528 ; genPointerGet
   076B 1A                 4529 	ld	a,(de)
                           4530 ; genPlus
                           4531 ; AOP_SFR for _NR51_REG
   076C 81                 4532 	add	a,c
   076D E0 00              4533 	ldh	(_NR51_REG+0),a
                           4534 ; genLabel
   076F                    4535 00107$:
                           4536 ; genEndFunction
   076F C1                 4537 	pop	bc
   0770 C9                 4538 	ret
   0771                    4539 ___setOutputPan_end:
                           4540 ;	mGBSynthCommonFunctions.c 42
                           4541 ; genLabel
                           4542 ; genFunction
                           4543 ;	---------------------------------
                           4544 ; Function updateValueSynth
                           4545 ; ---------------------------------
   0771                    4546 ___updateValueSynth_start:
   0771                    4547 _updateValueSynth:
   0771 C5                 4548 	push	bc
   0772 E8 FE              4549 	lda sp,-2(sp)
                           4550 ;	mGBSynthCommonFunctions.c 44
                           4551 ; genCmpGt
                           4552 ; AOP_STK for 
   0774 AF                 4553 	xor	a,a
   0775 3E 17              4554 	ld	a,#0x17
   0777 F8 06              4555 	lda	hl,6(sp)
   0779 9E                 4556 	sbc	a,(hl) ; 2
   077A DA DE 0A           4557 	jp	c,00139$
                           4558 ; genJumpTab
                           4559 ; AOP_STK for 
   077D 5E                 4560 	ld	e,(hl)
   077E 16 00              4561 	ld	d,#0x00
   0780 21 87 07           4562 	ld	hl,#00150$
   0783 19                 4563 	add	hl,de
   0784 19                 4564 	add	hl,de
   0785 19                 4565 	add	hl,de
   0786 E9                 4566 	jp	(hl)
   0787                    4567 00150$:
   0787 C3 CF 07           4568 	jp	00101$
   078A C3 F6 07           4569 	jp	00102$
   078D C3 20 08           4570 	jp	00103$
   0790 C3 34 08           4571 	jp	00104$
   0793 C3 46 08           4572 	jp	00105$
   0796 C3 5C 08           4573 	jp	00106$
   0799 C3 84 08           4574 	jp	00110$
   079C C3 A1 08           4575 	jp	00111$
   079F C3 C8 08           4576 	jp	00112$
   07A2 C3 F2 08           4577 	jp	00113$
   07A5 C3 06 09           4578 	jp	00114$
   07A8 C3 2B 09           4579 	jp	00115$
   07AB C3 53 09           4580 	jp	00119$
   07AE C3 70 09           4581 	jp	00120$
   07B1 C3 97 09           4582 	jp	00121$
   07B4 C3 BD 09           4583 	jp	00122$
   07B7 C3 E3 09           4584 	jp	00123$
   07BA C3 F7 09           4585 	jp	00124$
   07BD C3 1C 0A           4586 	jp	00125$
   07C0 C3 44 0A           4587 	jp	00129$
   07C3 C3 61 0A           4588 	jp	00130$
   07C6 C3 88 0A           4589 	jp	00131$
   07C9 C3 9C 0A           4590 	jp	00132$
   07CC C3 C4 0A           4591 	jp	00136$
                           4592 ;	mGBSynthCommonFunctions.c 47
                           4593 ; genLabel
   07CF                    4594 00101$:
                           4595 ; genAssign
                           4596 ; AOP_STK for 
   07CF F8 06              4597 	lda	hl,6(sp)
   07D1 4E                 4598 	ld	c,(hl)
                           4599 ; genPlus
   07D2 3E CF              4600 	ld	a,#<_dataSet
   07D4 81                 4601 	add	a,c
   07D5 5F                 4602 	ld	e,a
   07D6 3E 01              4603 	ld	a,#>_dataSet
   07D8 CE 00              4604 	adc	a,#0x00
   07DA 57                 4605 	ld	d,a
                           4606 ; genPointerGet
                           4607 ; AOP_HL for _pu1Oct
   07DB 1A                 4608 	ld	a,(de)
   07DC 21 52 01           4609 	ld	hl,#_pu1Oct + 0
   07DF 77                 4610 	ld	(hl),a
                           4611 ;	mGBSynthCommonFunctions.c 48
                           4612 ; genAssign
                           4613 ; AOP_HL for _pu1Oct
   07E0 4E                 4614 	ld	c,(hl)
                           4615 ; genMinus
   07E1 0D                 4616 	dec	c
   07E2 0D                 4617 	dec	c
                           4618 ; genIpush
   07E3 3E 0C              4619 	ld	a,#0x0C
   07E5 F5                 4620 	push	af
   07E6 33                 4621 	inc	sp
                           4622 ; genIpush
   07E7 79                 4623 	ld	a,c
   07E8 F5                 4624 	push	af
   07E9 33                 4625 	inc	sp
                           4626 ; genCall
   07EA CD 00 00           4627 	call	__muluchar
                           4628 ; AOP_HL for _pu1Oct
   07ED 21 52 01           4629 	ld	hl,#_pu1Oct + 0
   07F0 73                 4630 	ld	(hl),e
   07F1 E8 02              4631 	lda	sp,2(sp)
                           4632 ;	mGBSynthCommonFunctions.c 49
                           4633 ; genGoto
   07F3 C3 DE 0A           4634 	jp	00139$
                           4635 ;	mGBSynthCommonFunctions.c 51
                           4636 ; genLabel
   07F6                    4637 00102$:
                           4638 ; genAssign
                           4639 ; AOP_STK for 
   07F6 F8 06              4640 	lda	hl,6(sp)
   07F8 4E                 4641 	ld	c,(hl)
                           4642 ; genPlus
   07F9 3E CF              4643 	ld	a,#<_dataSet
   07FB 81                 4644 	add	a,c
   07FC 5F                 4645 	ld	e,a
   07FD 3E 01              4646 	ld	a,#>_dataSet
   07FF CE 00              4647 	adc	a,#0x00
   0801 57                 4648 	ld	d,a
                           4649 ; genPointerGet
   0802 1A                 4650 	ld	a,(de)
   0803 4F                 4651 	ld	c,a
                           4652 ; genLeftShift
   0804 79                 4653 	ld	a,c
   0805 CB 17              4654 	rl	a
   0807 CB 17              4655 	rl	a
   0809 CB 17              4656 	rl	a
   080B E6 F8              4657 	and	a,#0xF8
   080D 4F                 4658 	ld	c,a
                           4659 ; genLeftShift
   080E 79                 4660 	ld	a,c
   080F CB 17              4661 	rl	a
   0811 CB 17              4662 	rl	a
   0813 CB 17              4663 	rl	a
   0815 E6 F8              4664 	and	a,#0xF8
   0817 4F                 4665 	ld	c,a
                           4666 ; genOr
                           4667 ; AOP_SFR for _NR11_REG
                           4668 ; Type res[4] = l[2]&r[1]
                           4669 ; Size res[1] = l[1]&r[1]
   0818 79                 4670 	ld	a,c
   0819 F6 07              4671 	or	a,#0x07
   081B E0 00              4672 	ldh	(_NR11_REG+0),a
                           4673 ;	mGBSynthCommonFunctions.c 52
                           4674 ; genGoto
   081D C3 DE 0A           4675 	jp	00139$
                           4676 ;	mGBSynthCommonFunctions.c 54
                           4677 ; genLabel
   0820                    4678 00103$:
                           4679 ; genAssign
                           4680 ; AOP_STK for 
   0820 F8 06              4681 	lda	hl,6(sp)
   0822 4E                 4682 	ld	c,(hl)
                           4683 ; genPlus
   0823 3E CF              4684 	ld	a,#<_dataSet
   0825 81                 4685 	add	a,c
   0826 5F                 4686 	ld	e,a
   0827 3E 01              4687 	ld	a,#>_dataSet
   0829 CE 00              4688 	adc	a,#0x00
   082B 57                 4689 	ld	d,a
                           4690 ; genPointerGet
                           4691 ; AOP_HL for _pu1Env
   082C 1A                 4692 	ld	a,(de)
   082D 21 F4 00           4693 	ld	hl,#_pu1Env + 0
   0830 77                 4694 	ld	(hl),a
                           4695 ;	mGBSynthCommonFunctions.c 55
                           4696 ; genGoto
   0831 C3 DE 0A           4697 	jp	00139$
                           4698 ;	mGBSynthCommonFunctions.c 57
                           4699 ; genLabel
   0834                    4700 00104$:
                           4701 ; genAssign
                           4702 ; AOP_STK for 
   0834 F8 06              4703 	lda	hl,6(sp)
   0836 4E                 4704 	ld	c,(hl)
                           4705 ; genPlus
   0837 3E CF              4706 	ld	a,#<_dataSet
   0839 81                 4707 	add	a,c
   083A 5F                 4708 	ld	e,a
   083B 3E 01              4709 	ld	a,#>_dataSet
   083D CE 00              4710 	adc	a,#0x00
   083F 57                 4711 	ld	d,a
                           4712 ; genPointerGet
                           4713 ; AOP_SFR for _NR10_REG
   0840 1A                 4714 	ld	a,(de)
   0841 E0 00              4715 	ldh	(_NR10_REG+0),a
                           4716 ;	mGBSynthCommonFunctions.c 58
                           4717 ; genGoto
   0843 C3 DE 0A           4718 	jp	00139$
                           4719 ;	mGBSynthCommonFunctions.c 60
                           4720 ; genLabel
   0846                    4721 00105$:
                           4722 ; genAssign
                           4723 ; AOP_STK for 
   0846 F8 06              4724 	lda	hl,6(sp)
   0848 4E                 4725 	ld	c,(hl)
                           4726 ; genPlus
   0849 3E CF              4727 	ld	a,#<_dataSet
   084B 81                 4728 	add	a,c
   084C 5F                 4729 	ld	e,a
   084D 3E 01              4730 	ld	a,#>_dataSet
   084F CE 00              4731 	adc	a,#0x00
   0851 57                 4732 	ld	d,a
                           4733 ; genPointerGet
   0852 1A                 4734 	ld	a,(de)
   0853 4F                 4735 	ld	c,a
                           4736 ; genAssign (pointer)
   0854 11 24 01           4737 	ld	de,#_pbRange + 0
   0857 79                 4738 	ld	a,c
   0858 12                 4739 	ld	(de),a
                           4740 ;	mGBSynthCommonFunctions.c 61
                           4741 ; genGoto
   0859 C3 DE 0A           4742 	jp	00139$
                           4743 ;	mGBSynthCommonFunctions.c 63
                           4744 ; genLabel
   085C                    4745 00106$:
                           4746 ; genAssign
                           4747 ; AOP_STK for 
   085C F8 06              4748 	lda	hl,6(sp)
   085E 4E                 4749 	ld	c,(hl)
                           4750 ; genPlus
   085F 3E CF              4751 	ld	a,#<_dataSet
   0861 81                 4752 	add	a,c
   0862 5F                 4753 	ld	e,a
   0863 3E 01              4754 	ld	a,#>_dataSet
   0865 CE 00              4755 	adc	a,#0x00
   0867 57                 4756 	ld	d,a
                           4757 ; genPointerGet
   0868 1A                 4758 	ld	a,(de)
   0869 4F                 4759 	ld	c,a
                           4760 ; genAssign
                           4761 ; AOP_HL for _pu1Sus
   086A 21 04 01           4762 	ld	hl,#_pu1Sus + 0
   086D 71                 4763 	ld	(hl),c
                           4764 ;	mGBSynthCommonFunctions.c 64
                           4765 ; genIfx
                           4766 ; Removed redundent or a,a
   086E AF                 4767 	xor	a,a
   086F B1                 4768 	or	a,c
   0870 C2 DE 0A           4769 	jp	nz,00139$
                           4770 ; genPointerGet
   0873 11 9F 00           4771 	ld	de,#_noteStatus + 0
   0876 1A                 4772 	ld	a,(de)
   0877 4F                 4773 	ld	c,a
                           4774 ; genIfx
                           4775 ; Removed redundent or a,a
   0878 AF                 4776 	xor	a,a
   0879 B1                 4777 	or	a,c
   087A C2 DE 0A           4778 	jp	nz,00139$
                           4779 ; genAssign
                           4780 ; AOP_SFR for _NR12_REG
   087D 3E 00              4781 	ld	a,#0x00
   087F E0 00              4782 	ldh	(_NR12_REG+0),a
                           4783 ;	mGBSynthCommonFunctions.c 65
                           4784 ; genGoto
   0881 C3 DE 0A           4785 	jp	00139$
                           4786 ;	mGBSynthCommonFunctions.c 67
                           4787 ; genLabel
   0884                    4788 00110$:
                           4789 ; genAssign
                           4790 ; AOP_STK for 
   0884 F8 06              4791 	lda	hl,6(sp)
   0886 4E                 4792 	ld	c,(hl)
                           4793 ; genPlus
   0887 3E CF              4794 	ld	a,#<_dataSet
   0889 81                 4795 	add	a,c
   088A 5F                 4796 	ld	e,a
   088B 3E 01              4797 	ld	a,#>_dataSet
   088D CE 00              4798 	adc	a,#0x00
   088F 57                 4799 	ld	d,a
                           4800 ; genPointerGet
   0890 1A                 4801 	ld	a,(de)
   0891 4F                 4802 	ld	c,a
                           4803 ; genIpush
   0892 79                 4804 	ld	a,c
   0893 F5                 4805 	push	af
   0894 33                 4806 	inc	sp
                           4807 ; genIpush
   0895 3E 00              4808 	ld	a,#0x00
   0897 F5                 4809 	push	af
   0898 33                 4810 	inc	sp
                           4811 ; genCall
   0899 CD 38 06           4812 	call	_setOutputPanBySynth
   089C E8 02              4813 	lda	sp,2(sp)
                           4814 ;	mGBSynthCommonFunctions.c 68
                           4815 ; genGoto
   089E C3 DE 0A           4816 	jp	00139$
                           4817 ;	mGBSynthCommonFunctions.c 70
                           4818 ; genLabel
   08A1                    4819 00111$:
                           4820 ; genAssign
                           4821 ; AOP_STK for 
   08A1 F8 06              4822 	lda	hl,6(sp)
   08A3 4E                 4823 	ld	c,(hl)
                           4824 ; genPlus
   08A4 3E CF              4825 	ld	a,#<_dataSet
   08A6 81                 4826 	add	a,c
   08A7 5F                 4827 	ld	e,a
   08A8 3E 01              4828 	ld	a,#>_dataSet
   08AA CE 00              4829 	adc	a,#0x00
   08AC 57                 4830 	ld	d,a
                           4831 ; genPointerGet
                           4832 ; AOP_HL for _pu2Oct
   08AD 1A                 4833 	ld	a,(de)
   08AE 21 53 01           4834 	ld	hl,#_pu2Oct + 0
   08B1 77                 4835 	ld	(hl),a
                           4836 ;	mGBSynthCommonFunctions.c 71
                           4837 ; genAssign
                           4838 ; AOP_HL for _pu2Oct
   08B2 4E                 4839 	ld	c,(hl)
                           4840 ; genMinus
   08B3 0D                 4841 	dec	c
   08B4 0D                 4842 	dec	c
                           4843 ; genIpush
   08B5 3E 0C              4844 	ld	a,#0x0C
   08B7 F5                 4845 	push	af
   08B8 33                 4846 	inc	sp
                           4847 ; genIpush
   08B9 79                 4848 	ld	a,c
   08BA F5                 4849 	push	af
   08BB 33                 4850 	inc	sp
                           4851 ; genCall
   08BC CD 00 00           4852 	call	__muluchar
                           4853 ; AOP_HL for _pu2Oct
   08BF 21 53 01           4854 	ld	hl,#_pu2Oct + 0
   08C2 73                 4855 	ld	(hl),e
   08C3 E8 02              4856 	lda	sp,2(sp)
                           4857 ;	mGBSynthCommonFunctions.c 72
                           4858 ; genGoto
   08C5 C3 DE 0A           4859 	jp	00139$
                           4860 ;	mGBSynthCommonFunctions.c 74
                           4861 ; genLabel
   08C8                    4862 00112$:
                           4863 ; genAssign
                           4864 ; AOP_STK for 
   08C8 F8 06              4865 	lda	hl,6(sp)
   08CA 4E                 4866 	ld	c,(hl)
                           4867 ; genPlus
   08CB 3E CF              4868 	ld	a,#<_dataSet
   08CD 81                 4869 	add	a,c
   08CE 5F                 4870 	ld	e,a
   08CF 3E 01              4871 	ld	a,#>_dataSet
   08D1 CE 00              4872 	adc	a,#0x00
   08D3 57                 4873 	ld	d,a
                           4874 ; genPointerGet
   08D4 1A                 4875 	ld	a,(de)
   08D5 4F                 4876 	ld	c,a
                           4877 ; genLeftShift
   08D6 79                 4878 	ld	a,c
   08D7 CB 17              4879 	rl	a
   08D9 CB 17              4880 	rl	a
   08DB CB 17              4881 	rl	a
   08DD E6 F8              4882 	and	a,#0xF8
   08DF 4F                 4883 	ld	c,a
                           4884 ; genLeftShift
   08E0 79                 4885 	ld	a,c
   08E1 CB 17              4886 	rl	a
   08E3 CB 17              4887 	rl	a
   08E5 CB 17              4888 	rl	a
   08E7 E6 F8              4889 	and	a,#0xF8
   08E9 4F                 4890 	ld	c,a
                           4891 ; genOr
                           4892 ; AOP_SFR for _NR21_REG
                           4893 ; Type res[4] = l[2]&r[1]
                           4894 ; Size res[1] = l[1]&r[1]
   08EA 79                 4895 	ld	a,c
   08EB F6 07              4896 	or	a,#0x07
   08ED E0 00              4897 	ldh	(_NR21_REG+0),a
                           4898 ;	mGBSynthCommonFunctions.c 75
                           4899 ; genGoto
   08EF C3 DE 0A           4900 	jp	00139$
                           4901 ;	mGBSynthCommonFunctions.c 77
                           4902 ; genLabel
   08F2                    4903 00113$:
                           4904 ; genAssign
                           4905 ; AOP_STK for 
   08F2 F8 06              4906 	lda	hl,6(sp)
   08F4 4E                 4907 	ld	c,(hl)
                           4908 ; genPlus
   08F5 3E CF              4909 	ld	a,#<_dataSet
   08F7 81                 4910 	add	a,c
   08F8 5F                 4911 	ld	e,a
   08F9 3E 01              4912 	ld	a,#>_dataSet
   08FB CE 00              4913 	adc	a,#0x00
   08FD 57                 4914 	ld	d,a
                           4915 ; genPointerGet
                           4916 ; AOP_HL for _pu2Env
   08FE 1A                 4917 	ld	a,(de)
   08FF 21 F5 00           4918 	ld	hl,#_pu2Env + 0
   0902 77                 4919 	ld	(hl),a
                           4920 ;	mGBSynthCommonFunctions.c 78
                           4921 ; genGoto
   0903 C3 DE 0A           4922 	jp	00139$
                           4923 ;	mGBSynthCommonFunctions.c 80
                           4924 ; genLabel
   0906                    4925 00114$:
                           4926 ; genPlus
                           4927 ; AOP_STK for _updateValueSynth_sloc0_1_0
                           4928 ; genPlusIncr
   0906 3E 24              4929 	ld	a,#<_pbRange
   0908 C6 01              4930 	add	a,#0x01
   090A F8 00              4931 	lda	hl,0(sp)
   090C 77                 4932 	ld	(hl),a ; 3
   090D 3E 01              4933 	ld	a,#>_pbRange
   090F CE 00              4934 	adc	a,#0x00
   0911 23                 4935 	inc	hl
   0912 77                 4936 	ld	(hl),a ; 3
                           4937 ; genAssign
                           4938 ; AOP_STK for 
   0913 F8 06              4939 	lda	hl,6(sp)
   0915 4E                 4940 	ld	c,(hl)
                           4941 ; genPlus
   0916 3E CF              4942 	ld	a,#<_dataSet
   0918 81                 4943 	add	a,c
   0919 5F                 4944 	ld	e,a
   091A 3E 01              4945 	ld	a,#>_dataSet
   091C CE 00              4946 	adc	a,#0x00
   091E 57                 4947 	ld	d,a
                           4948 ; genPointerGet
   091F 1A                 4949 	ld	a,(de)
   0920 4F                 4950 	ld	c,a
                           4951 ; genAssign (pointer)
                           4952 ; AOP_STK for _updateValueSynth_sloc0_1_0
   0921 F8 00              4953 	lda	hl,0(sp)
   0923 5E                 4954 	ld	e,(hl)
   0924 23                 4955 	inc	hl
   0925 56                 4956 	ld	d,(hl)
   0926 79                 4957 	ld	a,c
   0927 12                 4958 	ld	(de),a
                           4959 ;	mGBSynthCommonFunctions.c 81
                           4960 ; genGoto
   0928 C3 DE 0A           4961 	jp	00139$
                           4962 ;	mGBSynthCommonFunctions.c 83
                           4963 ; genLabel
   092B                    4964 00115$:
                           4965 ; genAssign
                           4966 ; AOP_STK for 
   092B F8 06              4967 	lda	hl,6(sp)
   092D 4E                 4968 	ld	c,(hl)
                           4969 ; genPlus
   092E 3E CF              4970 	ld	a,#<_dataSet
   0930 81                 4971 	add	a,c
   0931 5F                 4972 	ld	e,a
   0932 3E 01              4973 	ld	a,#>_dataSet
   0934 CE 00              4974 	adc	a,#0x00
   0936 57                 4975 	ld	d,a
                           4976 ; genPointerGet
   0937 1A                 4977 	ld	a,(de)
   0938 4F                 4978 	ld	c,a
                           4979 ; genAssign
                           4980 ; AOP_HL for _pu2Sus
   0939 21 05 01           4981 	ld	hl,#_pu2Sus + 0
   093C 71                 4982 	ld	(hl),c
                           4983 ;	mGBSynthCommonFunctions.c 84
                           4984 ; genIfx
                           4985 ; Removed redundent or a,a
   093D AF                 4986 	xor	a,a
   093E B1                 4987 	or	a,c
   093F C2 DE 0A           4988 	jp	nz,00139$
                           4989 ; genPlus
                           4990 ; genPlusIncr
   0942 11 A1 00           4991 	ld	de,#_noteStatus + 2
                           4992 ; genPointerGet
   0945 1A                 4993 	ld	a,(de)
   0946 4F                 4994 	ld	c,a
                           4995 ; genIfx
                           4996 ; Removed redundent or a,a
   0947 AF                 4997 	xor	a,a
   0948 B1                 4998 	or	a,c
   0949 C2 DE 0A           4999 	jp	nz,00139$
                           5000 ; genAssign
                           5001 ; AOP_SFR for _NR22_REG
   094C 3E 00              5002 	ld	a,#0x00
   094E E0 00              5003 	ldh	(_NR22_REG+0),a
                           5004 ;	mGBSynthCommonFunctions.c 85
                           5005 ; genGoto
   0950 C3 DE 0A           5006 	jp	00139$
                           5007 ;	mGBSynthCommonFunctions.c 87
                           5008 ; genLabel
   0953                    5009 00119$:
                           5010 ; genAssign
                           5011 ; AOP_STK for 
   0953 F8 06              5012 	lda	hl,6(sp)
   0955 4E                 5013 	ld	c,(hl)
                           5014 ; genPlus
   0956 3E CF              5015 	ld	a,#<_dataSet
   0958 81                 5016 	add	a,c
   0959 5F                 5017 	ld	e,a
   095A 3E 01              5018 	ld	a,#>_dataSet
   095C CE 00              5019 	adc	a,#0x00
   095E 57                 5020 	ld	d,a
                           5021 ; genPointerGet
   095F 1A                 5022 	ld	a,(de)
   0960 4F                 5023 	ld	c,a
                           5024 ; genIpush
   0961 79                 5025 	ld	a,c
   0962 F5                 5026 	push	af
   0963 33                 5027 	inc	sp
                           5028 ; genIpush
   0964 3E 01              5029 	ld	a,#0x01
   0966 F5                 5030 	push	af
   0967 33                 5031 	inc	sp
                           5032 ; genCall
   0968 CD 38 06           5033 	call	_setOutputPanBySynth
   096B E8 02              5034 	lda	sp,2(sp)
                           5035 ;	mGBSynthCommonFunctions.c 88
                           5036 ; genGoto
   096D C3 DE 0A           5037 	jp	00139$
                           5038 ;	mGBSynthCommonFunctions.c 90
                           5039 ; genLabel
   0970                    5040 00120$:
                           5041 ; genAssign
                           5042 ; AOP_STK for 
   0970 F8 06              5043 	lda	hl,6(sp)
   0972 4E                 5044 	ld	c,(hl)
                           5045 ; genPlus
   0973 3E CF              5046 	ld	a,#<_dataSet
   0975 81                 5047 	add	a,c
   0976 5F                 5048 	ld	e,a
   0977 3E 01              5049 	ld	a,#>_dataSet
   0979 CE 00              5050 	adc	a,#0x00
   097B 57                 5051 	ld	d,a
                           5052 ; genPointerGet
                           5053 ; AOP_HL for _wavOct
   097C 1A                 5054 	ld	a,(de)
   097D 21 54 01           5055 	ld	hl,#_wavOct + 0
   0980 77                 5056 	ld	(hl),a
                           5057 ;	mGBSynthCommonFunctions.c 91
                           5058 ; genAssign
                           5059 ; AOP_HL for _wavOct
   0981 4E                 5060 	ld	c,(hl)
                           5061 ; genMinus
   0982 0D                 5062 	dec	c
   0983 0D                 5063 	dec	c
                           5064 ; genIpush
   0984 3E 0C              5065 	ld	a,#0x0C
   0986 F5                 5066 	push	af
   0987 33                 5067 	inc	sp
                           5068 ; genIpush
   0988 79                 5069 	ld	a,c
   0989 F5                 5070 	push	af
   098A 33                 5071 	inc	sp
                           5072 ; genCall
   098B CD 00 00           5073 	call	__muluchar
                           5074 ; AOP_HL for _wavOct
   098E 21 54 01           5075 	ld	hl,#_wavOct + 0
   0991 73                 5076 	ld	(hl),e
   0992 E8 02              5077 	lda	sp,2(sp)
                           5078 ;	mGBSynthCommonFunctions.c 92
                           5079 ; genGoto
   0994 C3 DE 0A           5080 	jp	00139$
                           5081 ;	mGBSynthCommonFunctions.c 94
                           5082 ; genLabel
   0997                    5083 00121$:
                           5084 ; genAssign
                           5085 ; AOP_STK for 
   0997 F8 06              5086 	lda	hl,6(sp)
   0999 4E                 5087 	ld	c,(hl)
                           5088 ; genPlus
   099A 3E CF              5089 	ld	a,#<_dataSet
   099C 81                 5090 	add	a,c
   099D 5F                 5091 	ld	e,a
   099E 3E 01              5092 	ld	a,#>_dataSet
   09A0 CE 00              5093 	adc	a,#0x00
   09A2 57                 5094 	ld	d,a
                           5095 ; genPointerGet
   09A3 1A                 5096 	ld	a,(de)
   09A4 4F                 5097 	ld	c,a
                           5098 ; genLeftShift
   09A5 79                 5099 	ld	a,c
   09A6 CB 17              5100 	rl	a
   09A8 CB 17              5101 	rl	a
   09AA CB 17              5102 	rl	a
   09AC CB 17              5103 	rl	a
   09AE E6 F0              5104 	and	a,#0xF0
   09B0 4F                 5105 	ld	c,a
                           5106 ; genPlus
                           5107 ; genPlusIncr
   09B1 11 DE 01           5108 	ld	de,#_dataSet + 15
                           5109 ; genPointerGet
   09B4 1A                 5110 	ld	a,(de)
                           5111 ; genPlus
                           5112 ; AOP_HL for _wavDataOffset
   09B5 81                 5113 	add	a,c
   09B6 21 17 01           5114 	ld	hl,#_wavDataOffset + 0
   09B9 77                 5115 	ld	(hl),a
                           5116 ;	mGBSynthCommonFunctions.c 95
                           5117 ; genGoto
   09BA C3 DE 0A           5118 	jp	00139$
                           5119 ;	mGBSynthCommonFunctions.c 97
                           5120 ; genLabel
   09BD                    5121 00122$:
                           5122 ; genPlus
                           5123 ; genPlusIncr
   09BD 11 DD 01           5124 	ld	de,#_dataSet + 14
                           5125 ; genPointerGet
   09C0 1A                 5126 	ld	a,(de)
   09C1 4F                 5127 	ld	c,a
                           5128 ; genLeftShift
   09C2 79                 5129 	ld	a,c
   09C3 CB 17              5130 	rl	a
   09C5 CB 17              5131 	rl	a
   09C7 CB 17              5132 	rl	a
   09C9 CB 17              5133 	rl	a
   09CB E6 F0              5134 	and	a,#0xF0
   09CD 4F                 5135 	ld	c,a
                           5136 ; genAssign
                           5137 ; AOP_STK for 
   09CE F8 06              5138 	lda	hl,6(sp)
   09D0 46                 5139 	ld	b,(hl)
                           5140 ; genPlus
   09D1 3E CF              5141 	ld	a,#<_dataSet
   09D3 80                 5142 	add	a,b
   09D4 5F                 5143 	ld	e,a
   09D5 3E 01              5144 	ld	a,#>_dataSet
   09D7 CE 00              5145 	adc	a,#0x00
   09D9 57                 5146 	ld	d,a
                           5147 ; genPointerGet
   09DA 1A                 5148 	ld	a,(de)
                           5149 ; genPlus
                           5150 ; AOP_HL for _wavDataOffset
   09DB 81                 5151 	add	a,c
   09DC 21 17 01           5152 	ld	hl,#_wavDataOffset + 0
   09DF 77                 5153 	ld	(hl),a
                           5154 ;	mGBSynthCommonFunctions.c 98
                           5155 ; genGoto
   09E0 C3 DE 0A           5156 	jp	00139$
                           5157 ;	mGBSynthCommonFunctions.c 100
                           5158 ; genLabel
   09E3                    5159 00123$:
                           5160 ; genAssign
                           5161 ; AOP_STK for 
   09E3 F8 06              5162 	lda	hl,6(sp)
   09E5 4E                 5163 	ld	c,(hl)
                           5164 ; genPlus
   09E6 3E CF              5165 	ld	a,#<_dataSet
   09E8 81                 5166 	add	a,c
   09E9 5F                 5167 	ld	e,a
   09EA 3E 01              5168 	ld	a,#>_dataSet
   09EC CE 00              5169 	adc	a,#0x00
   09EE 57                 5170 	ld	d,a
                           5171 ; genPointerGet
                           5172 ; AOP_HL for _wavSweepSpeed
   09EF 1A                 5173 	ld	a,(de)
   09F0 21 3F 01           5174 	ld	hl,#_wavSweepSpeed + 0
   09F3 77                 5175 	ld	(hl),a
                           5176 ;	mGBSynthCommonFunctions.c 101
                           5177 ; genGoto
   09F4 C3 DE 0A           5178 	jp	00139$
                           5179 ;	mGBSynthCommonFunctions.c 103
                           5180 ; genLabel
   09F7                    5181 00124$:
                           5182 ; genPlus
                           5183 ; AOP_STK for _updateValueSynth_sloc0_1_0
                           5184 ; genPlusIncr
   09F7 3E 24              5185 	ld	a,#<_pbRange
   09F9 C6 02              5186 	add	a,#0x02
   09FB F8 00              5187 	lda	hl,0(sp)
   09FD 77                 5188 	ld	(hl),a ; 3
   09FE 3E 01              5189 	ld	a,#>_pbRange
   0A00 CE 00              5190 	adc	a,#0x00
   0A02 23                 5191 	inc	hl
   0A03 77                 5192 	ld	(hl),a ; 3
                           5193 ; genAssign
                           5194 ; AOP_STK for 
   0A04 F8 06              5195 	lda	hl,6(sp)
   0A06 4E                 5196 	ld	c,(hl)
                           5197 ; genPlus
   0A07 3E CF              5198 	ld	a,#<_dataSet
   0A09 81                 5199 	add	a,c
   0A0A 5F                 5200 	ld	e,a
   0A0B 3E 01              5201 	ld	a,#>_dataSet
   0A0D CE 00              5202 	adc	a,#0x00
   0A0F 57                 5203 	ld	d,a
                           5204 ; genPointerGet
   0A10 1A                 5205 	ld	a,(de)
   0A11 4F                 5206 	ld	c,a
                           5207 ; genAssign (pointer)
                           5208 ; AOP_STK for _updateValueSynth_sloc0_1_0
   0A12 F8 00              5209 	lda	hl,0(sp)
   0A14 5E                 5210 	ld	e,(hl)
   0A15 23                 5211 	inc	hl
   0A16 56                 5212 	ld	d,(hl)
   0A17 79                 5213 	ld	a,c
   0A18 12                 5214 	ld	(de),a
                           5215 ;	mGBSynthCommonFunctions.c 104
                           5216 ; genGoto
   0A19 C3 DE 0A           5217 	jp	00139$
                           5218 ;	mGBSynthCommonFunctions.c 106
                           5219 ; genLabel
   0A1C                    5220 00125$:
                           5221 ; genAssign
                           5222 ; AOP_STK for 
   0A1C F8 06              5223 	lda	hl,6(sp)
   0A1E 4E                 5224 	ld	c,(hl)
                           5225 ; genPlus
   0A1F 3E CF              5226 	ld	a,#<_dataSet
   0A21 81                 5227 	add	a,c
   0A22 5F                 5228 	ld	e,a
   0A23 3E 01              5229 	ld	a,#>_dataSet
   0A25 CE 00              5230 	adc	a,#0x00
   0A27 57                 5231 	ld	d,a
                           5232 ; genPointerGet
   0A28 1A                 5233 	ld	a,(de)
   0A29 4F                 5234 	ld	c,a
                           5235 ; genAssign
                           5236 ; AOP_HL for _wavSus
   0A2A 21 07 01           5237 	ld	hl,#_wavSus + 0
   0A2D 71                 5238 	ld	(hl),c
                           5239 ;	mGBSynthCommonFunctions.c 107
                           5240 ; genIfx
                           5241 ; Removed redundent or a,a
   0A2E AF                 5242 	xor	a,a
   0A2F B1                 5243 	or	a,c
   0A30 C2 DE 0A           5244 	jp	nz,00139$
                           5245 ; genPlus
                           5246 ; genPlusIncr
   0A33 11 A3 00           5247 	ld	de,#_noteStatus + 4
                           5248 ; genPointerGet
   0A36 1A                 5249 	ld	a,(de)
   0A37 4F                 5250 	ld	c,a
                           5251 ; genIfx
                           5252 ; Removed redundent or a,a
   0A38 AF                 5253 	xor	a,a
   0A39 B1                 5254 	or	a,c
   0A3A C2 DE 0A           5255 	jp	nz,00139$
                           5256 ; genAssign
                           5257 ; AOP_SFR for _NR32_REG
   0A3D 3E 00              5258 	ld	a,#0x00
   0A3F E0 00              5259 	ldh	(_NR32_REG+0),a
                           5260 ;	mGBSynthCommonFunctions.c 108
                           5261 ; genGoto
   0A41 C3 DE 0A           5262 	jp	00139$
                           5263 ;	mGBSynthCommonFunctions.c 110
                           5264 ; genLabel
   0A44                    5265 00129$:
                           5266 ; genAssign
                           5267 ; AOP_STK for 
   0A44 F8 06              5268 	lda	hl,6(sp)
   0A46 4E                 5269 	ld	c,(hl)
                           5270 ; genPlus
   0A47 3E CF              5271 	ld	a,#<_dataSet
   0A49 81                 5272 	add	a,c
   0A4A 5F                 5273 	ld	e,a
   0A4B 3E 01              5274 	ld	a,#>_dataSet
   0A4D CE 00              5275 	adc	a,#0x00
   0A4F 57                 5276 	ld	d,a
                           5277 ; genPointerGet
   0A50 1A                 5278 	ld	a,(de)
   0A51 4F                 5279 	ld	c,a
                           5280 ; genIpush
   0A52 79                 5281 	ld	a,c
   0A53 F5                 5282 	push	af
   0A54 33                 5283 	inc	sp
                           5284 ; genIpush
   0A55 3E 02              5285 	ld	a,#0x02
   0A57 F5                 5286 	push	af
   0A58 33                 5287 	inc	sp
                           5288 ; genCall
   0A59 CD 38 06           5289 	call	_setOutputPanBySynth
   0A5C E8 02              5290 	lda	sp,2(sp)
                           5291 ;	mGBSynthCommonFunctions.c 111
                           5292 ; genGoto
   0A5E C3 DE 0A           5293 	jp	00139$
                           5294 ;	mGBSynthCommonFunctions.c 113
                           5295 ; genLabel
   0A61                    5296 00130$:
                           5297 ; genAssign
                           5298 ; AOP_STK for 
   0A61 F8 06              5299 	lda	hl,6(sp)
   0A63 4E                 5300 	ld	c,(hl)
                           5301 ; genPlus
   0A64 3E CF              5302 	ld	a,#<_dataSet
   0A66 81                 5303 	add	a,c
   0A67 5F                 5304 	ld	e,a
   0A68 3E 01              5305 	ld	a,#>_dataSet
   0A6A CE 00              5306 	adc	a,#0x00
   0A6C 57                 5307 	ld	d,a
                           5308 ; genPointerGet
                           5309 ; AOP_HL for _noiOct
   0A6D 1A                 5310 	ld	a,(de)
   0A6E 21 55 01           5311 	ld	hl,#_noiOct + 0
   0A71 77                 5312 	ld	(hl),a
                           5313 ;	mGBSynthCommonFunctions.c 114
                           5314 ; genAssign
                           5315 ; AOP_HL for _noiOct
   0A72 4E                 5316 	ld	c,(hl)
                           5317 ; genMinus
   0A73 0D                 5318 	dec	c
   0A74 0D                 5319 	dec	c
                           5320 ; genIpush
   0A75 3E 0C              5321 	ld	a,#0x0C
   0A77 F5                 5322 	push	af
   0A78 33                 5323 	inc	sp
                           5324 ; genIpush
   0A79 79                 5325 	ld	a,c
   0A7A F5                 5326 	push	af
   0A7B 33                 5327 	inc	sp
                           5328 ; genCall
   0A7C CD 00 00           5329 	call	__muluchar
                           5330 ; AOP_HL for _noiOct
   0A7F 21 55 01           5331 	ld	hl,#_noiOct + 0
   0A82 73                 5332 	ld	(hl),e
   0A83 E8 02              5333 	lda	sp,2(sp)
                           5334 ;	mGBSynthCommonFunctions.c 115
                           5335 ; genGoto
   0A85 C3 DE 0A           5336 	jp	00139$
                           5337 ;	mGBSynthCommonFunctions.c 117
                           5338 ; genLabel
   0A88                    5339 00131$:
                           5340 ; genAssign
                           5341 ; AOP_STK for 
   0A88 F8 06              5342 	lda	hl,6(sp)
   0A8A 4E                 5343 	ld	c,(hl)
                           5344 ; genPlus
   0A8B 3E CF              5345 	ld	a,#<_dataSet
   0A8D 81                 5346 	add	a,c
   0A8E 5F                 5347 	ld	e,a
   0A8F 3E 01              5348 	ld	a,#>_dataSet
   0A91 CE 00              5349 	adc	a,#0x00
   0A93 57                 5350 	ld	d,a
                           5351 ; genPointerGet
                           5352 ; AOP_HL for _noiEnv
   0A94 1A                 5353 	ld	a,(de)
   0A95 21 F6 00           5354 	ld	hl,#_noiEnv + 0
   0A98 77                 5355 	ld	(hl),a
                           5356 ;	mGBSynthCommonFunctions.c 118
                           5357 ; genGoto
   0A99 C3 DE 0A           5358 	jp	00139$
                           5359 ;	mGBSynthCommonFunctions.c 120
                           5360 ; genLabel
   0A9C                    5361 00132$:
                           5362 ; genAssign
                           5363 ; AOP_STK for 
   0A9C F8 06              5364 	lda	hl,6(sp)
   0A9E 4E                 5365 	ld	c,(hl)
                           5366 ; genPlus
   0A9F 3E CF              5367 	ld	a,#<_dataSet
   0AA1 81                 5368 	add	a,c
   0AA2 5F                 5369 	ld	e,a
   0AA3 3E 01              5370 	ld	a,#>_dataSet
   0AA5 CE 00              5371 	adc	a,#0x00
   0AA7 57                 5372 	ld	d,a
                           5373 ; genPointerGet
   0AA8 1A                 5374 	ld	a,(de)
   0AA9 4F                 5375 	ld	c,a
                           5376 ; genAssign
                           5377 ; AOP_HL for _noiSus
   0AAA 21 06 01           5378 	ld	hl,#_noiSus + 0
   0AAD 71                 5379 	ld	(hl),c
                           5380 ;	mGBSynthCommonFunctions.c 121
                           5381 ; genIfx
                           5382 ; Removed redundent or a,a
   0AAE AF                 5383 	xor	a,a
   0AAF B1                 5384 	or	a,c
   0AB0 C2 DE 0A           5385 	jp	nz,00139$
                           5386 ; genPlus
                           5387 ; genPlusIncr
   0AB3 11 A5 00           5388 	ld	de,#_noteStatus + 6
                           5389 ; genPointerGet
   0AB6 1A                 5390 	ld	a,(de)
   0AB7 4F                 5391 	ld	c,a
                           5392 ; genIfx
                           5393 ; Removed redundent or a,a
   0AB8 AF                 5394 	xor	a,a
   0AB9 B1                 5395 	or	a,c
   0ABA C2 DE 0A           5396 	jp	nz,00139$
                           5397 ; genAssign
                           5398 ; AOP_SFR for _NR42_REG
   0ABD 3E 00              5399 	ld	a,#0x00
   0ABF E0 00              5400 	ldh	(_NR42_REG+0),a
                           5401 ;	mGBSynthCommonFunctions.c 122
                           5402 ; genGoto
   0AC1 C3 DE 0A           5403 	jp	00139$
                           5404 ;	mGBSynthCommonFunctions.c 124
                           5405 ; genLabel
   0AC4                    5406 00136$:
                           5407 ; genAssign
                           5408 ; AOP_STK for 
   0AC4 F8 06              5409 	lda	hl,6(sp)
   0AC6 4E                 5410 	ld	c,(hl)
                           5411 ; genPlus
   0AC7 3E CF              5412 	ld	a,#<_dataSet
   0AC9 81                 5413 	add	a,c
   0ACA 5F                 5414 	ld	e,a
   0ACB 3E 01              5415 	ld	a,#>_dataSet
   0ACD CE 00              5416 	adc	a,#0x00
   0ACF 57                 5417 	ld	d,a
                           5418 ; genPointerGet
   0AD0 1A                 5419 	ld	a,(de)
   0AD1 4F                 5420 	ld	c,a
                           5421 ; genIpush
   0AD2 79                 5422 	ld	a,c
   0AD3 F5                 5423 	push	af
   0AD4 33                 5424 	inc	sp
                           5425 ; genIpush
   0AD5 3E 03              5426 	ld	a,#0x03
   0AD7 F5                 5427 	push	af
   0AD8 33                 5428 	inc	sp
                           5429 ; genCall
   0AD9 CD 38 06           5430 	call	_setOutputPanBySynth
   0ADC E8 02              5431 	lda	sp,2(sp)
                           5432 ;	mGBSynthCommonFunctions.c 128
                           5433 ; genLabel
   0ADE                    5434 00139$:
                           5435 ; genEndFunction
   0ADE E8 02              5436 	lda	sp,2(sp)
   0AE0 C1                 5437 	pop bc
   0AE1 C9                 5438 	ret
   0AE2                    5439 ___updateValueSynth_end:
                           5440 ;	mGBSynthCommonFunctions.c 131
                           5441 ; genLabel
                           5442 ; genFunction
                           5443 ;	---------------------------------
                           5444 ; Function updateSynth
                           5445 ; ---------------------------------
   0AE2                    5446 ___updateSynth_start:
   0AE2                    5447 _updateSynth:
   0AE2 C5                 5448 	push	bc
   0AE3 E8 FC              5449 	lda sp,-4(sp)
                           5450 ;	mGBSynthCommonFunctions.c 133
                           5451 ; genAssign
                           5452 ; AOP_HL for _i
   0AE5 21 32 01           5453 	ld	hl,#_i + 0
   0AE8 36 00              5454 	ld	(hl),#0x00
                           5455 ; genIpush
   0AEA 3E 09              5456 	ld	a,#0x09
   0AEC F5                 5457 	push	af
   0AED 33                 5458 	inc	sp
                           5459 ; genIpush
                           5460 ; AOP_STK for 
   0AEE F8 09              5461 	lda	hl,9(sp)
   0AF0 7E                 5462 	ld	a,(hl)
   0AF1 F5                 5463 	push	af
   0AF2 33                 5464 	inc	sp
                           5465 ; genCall
   0AF3 CD 00 00           5466 	call	__muluchar
   0AF6 4B                 5467 	ld	c,e
   0AF7 E8 02              5468 	lda	sp,2(sp)
                           5469 ; genPlus
                           5470 ; AOP_STK for _updateSynth_sloc0_1_0
   0AF9 3E 69              5471 	ld	a,#<_tableCursorLookup
   0AFB 81                 5472 	add	a,c
   0AFC F8 02              5473 	lda	hl,2(sp)
   0AFE 77                 5474 	ld	(hl),a ; 3
   0AFF 3E 31              5475 	ld	a,#>_tableCursorLookup
   0B01 CE 00              5476 	adc	a,#0x00
   0B03 23                 5477 	inc	hl
   0B04 77                 5478 	ld	(hl),a ; 3
                           5479 ; genLabel
   0B05                    5480 00103$:
                           5481 ; genCmpEq
                           5482 ; AOP_HL for _i
   0B05 21 32 01           5483 	ld	hl,#_i + 0
   0B08 7E                 5484 	ld	a,(hl) ; 2
   0B09 FE 09              5485 	cp	a,#0x09
                           5486 ; Rule 5
   0B0B CA 9B 0B           5487 	jp	z,00107$
   0B0E                    5488 00112$:
                           5489 ;	mGBSynthCommonFunctions.c 134
                           5490 ; genAssign
                           5491 ; AOP_HL for _i
   0B0E 21 32 01           5492 	ld	hl,#_i + 0
   0B11 4E                 5493 	ld	c,(hl)
                           5494 ; genPlus
                           5495 ; AOP_STK for _updateSynth_sloc0_1_0
   0B12 F8 02              5496 	lda	hl,2(sp)
   0B14 7E                 5497 	ld	a,(hl)
   0B15 81                 5498 	add	a,c
   0B16 5F                 5499 	ld	e,a
   0B17 23                 5500 	inc	hl
   0B18 7E                 5501 	ld	a,(hl)
   0B19 CE 00              5502 	adc	a,#0x00
   0B1B 57                 5503 	ld	d,a
                           5504 ; genPointerGet
   0B1C 1A                 5505 	ld	a,(de)
   0B1D 4F                 5506 	ld	c,a
                           5507 ; genCmpEq
   0B1E 79                 5508 	ld	a,c ; 2
   0B1F FE FF              5509 	cp	a,#0xFF
                           5510 ; Rule 5
   0B21 CA 94 0B           5511 	jp	z,00105$
   0B24                    5512 00113$:
                           5513 ;	mGBSynthCommonFunctions.c 135
                           5514 ; genPointerGet
                           5515 ; AOP_STK for _updateSynth_sloc0_1_0
                           5516 ; AOP_STK for _updateSynth_sloc1_1_0
   0B24 F8 02              5517 	lda	hl,2(sp)
   0B26 5E                 5518 	ld	e,(hl)
   0B27 23                 5519 	inc	hl
   0B28 56                 5520 	ld	d,(hl)
   0B29 1A                 5521 	ld	a,(de)
   0B2A F8 00              5522 	lda	hl,0(sp)
   0B2C 77                 5523 	ld	(hl),a ; 3
   0B2D 13                 5524 	inc	de
   0B2E 1A                 5525 	ld	a,(de)
   0B2F 23                 5526 	inc	hl
   0B30 77                 5527 	ld	(hl),a ; 3
                           5528 ; genIpush
   0B31 3E 09              5529 	ld	a,#0x09
   0B33 F5                 5530 	push	af
   0B34 33                 5531 	inc	sp
                           5532 ; genIpush
                           5533 ; AOP_HL for _i
   0B35 21 32 01           5534 	ld	hl,#_i + 0
   0B38 7E                 5535 	ld	a,(hl)
   0B39 F5                 5536 	push	af
   0B3A 33                 5537 	inc	sp
                           5538 ; genCall
   0B3B CD 00 00           5539 	call	__muluchar
   0B3E 4B                 5540 	ld	c,e
   0B3F E8 02              5541 	lda	sp,2(sp)
                           5542 ; genPlus
                           5543 ; AOP_STK for _updateSynth_sloc1_1_0
   0B41 F8 00              5544 	lda	hl,0(sp)
   0B43 7E                 5545 	ld	a,(hl)
   0B44 81                 5546 	add	a,c
   0B45 5F                 5547 	ld	e,a
   0B46 23                 5548 	inc	hl
   0B47 7E                 5549 	ld	a,(hl)
   0B48 CE 00              5550 	adc	a,#0x00
   0B4A 57                 5551 	ld	d,a
                           5552 ; genPointerGet
                           5553 ; Removed redundent load
                           5554 ; Removed redundent load
   0B4B 1A                 5555 	ld	a,(de)
   0B4C 4F                 5556 	ld	c,a
   0B4D 13                 5557 	inc	de
   0B4E 1A                 5558 	ld	a,(de)
   0B4F 47                 5559 	ld	b,a
                           5560 ; genPlus
                           5561 ; AOP_STK for _updateSynth_sloc1_1_0
   0B50 3E CF              5562 	ld	a,#<_dataSet
   0B52 81                 5563 	add	a,c
   0B53 2B                 5564 	dec	hl
   0B54 77                 5565 	ld	(hl),a ; 3
   0B55 3E 01              5566 	ld	a,#>_dataSet
   0B57 88                 5567 	adc	a,b
   0B58 23                 5568 	inc	hl
   0B59 77                 5569 	ld	(hl),a ; 3
                           5570 ; genAssign
                           5571 ; AOP_HL for _i
   0B5A 21 32 01           5572 	ld	hl,#_i + 0
   0B5D 4E                 5573 	ld	c,(hl)
                           5574 ; genPlus
                           5575 ; AOP_STK for _updateSynth_sloc0_1_0
   0B5E F8 02              5576 	lda	hl,2(sp)
   0B60 7E                 5577 	ld	a,(hl)
   0B61 81                 5578 	add	a,c
   0B62 5F                 5579 	ld	e,a
   0B63 23                 5580 	inc	hl
   0B64 7E                 5581 	ld	a,(hl)
   0B65 CE 00              5582 	adc	a,#0x00
   0B67 57                 5583 	ld	d,a
                           5584 ; genPointerGet
   0B68 1A                 5585 	ld	a,(de)
   0B69 4F                 5586 	ld	c,a
                           5587 ; genPlus
   0B6A 3E CF              5588 	ld	a,#<_dataSet
   0B6C 81                 5589 	add	a,c
   0B6D 5F                 5590 	ld	e,a
   0B6E 3E 01              5591 	ld	a,#>_dataSet
   0B70 CE 00              5592 	adc	a,#0x00
   0B72 57                 5593 	ld	d,a
                           5594 ; genPointerGet
   0B73 1A                 5595 	ld	a,(de)
   0B74 4F                 5596 	ld	c,a
                           5597 ; genAssign (pointer)
                           5598 ; AOP_STK for _updateSynth_sloc1_1_0
   0B75 F8 00              5599 	lda	hl,0(sp)
   0B77 5E                 5600 	ld	e,(hl)
   0B78 23                 5601 	inc	hl
   0B79 56                 5602 	ld	d,(hl)
   0B7A 79                 5603 	ld	a,c
   0B7B 12                 5604 	ld	(de),a
                           5605 ;	mGBSynthCommonFunctions.c 136
                           5606 ; genAssign
                           5607 ; AOP_HL for _i
   0B7C 21 32 01           5608 	ld	hl,#_i + 0
   0B7F 4E                 5609 	ld	c,(hl)
                           5610 ; genPlus
                           5611 ; AOP_STK for _updateSynth_sloc0_1_0
   0B80 F8 02              5612 	lda	hl,2(sp)
   0B82 7E                 5613 	ld	a,(hl)
   0B83 81                 5614 	add	a,c
   0B84 5F                 5615 	ld	e,a
   0B85 23                 5616 	inc	hl
   0B86 7E                 5617 	ld	a,(hl)
   0B87 CE 00              5618 	adc	a,#0x00
   0B89 57                 5619 	ld	d,a
                           5620 ; genPointerGet
   0B8A 1A                 5621 	ld	a,(de)
   0B8B 4F                 5622 	ld	c,a
                           5623 ; genIpush
   0B8C 79                 5624 	ld	a,c
   0B8D F5                 5625 	push	af
   0B8E 33                 5626 	inc	sp
                           5627 ; genCall
   0B8F CD 71 07           5628 	call	_updateValueSynth
   0B92 E8 01              5629 	lda	sp,1(sp)
                           5630 ; genLabel
   0B94                    5631 00105$:
                           5632 ;	mGBSynthCommonFunctions.c 133
                           5633 ; genPlus
                           5634 ; AOP_HL for _i
                           5635 ; genPlusIncr
   0B94 21 32 01           5636 	ld	hl,#_i + 0
   0B97 34                 5637 	inc	(hl)
                           5638 ; genGoto
   0B98 C3 05 0B           5639 	jp	00103$
                           5640 ; genLabel
   0B9B                    5641 00107$:
                           5642 ; genEndFunction
   0B9B E8 04              5643 	lda	sp,4(sp)
   0B9D C1                 5644 	pop bc
   0B9E C9                 5645 	ret
   0B9F                    5646 ___updateSynth_end:
                           5647 ;	mGBSynthCommonFunctions.c 142
                           5648 ; genLabel
                           5649 ; genFunction
                           5650 ;	---------------------------------
                           5651 ; Function updateSynths
                           5652 ; ---------------------------------
   0B9F                    5653 ___updateSynths_start:
   0B9F                    5654 _updateSynths:
   0B9F C5                 5655 	push	bc
   0BA0 E8 FE              5656 	lda sp,-2(sp)
                           5657 ;	mGBSynthCommonFunctions.c 144
                           5658 ; genCall
   0BA2 CD 00 00           5659 	call	_enable_interrupts
                           5660 ;	mGBSynthCommonFunctions.c 145
                           5661 ; genIfx
                           5662 ; AOP_HL for _pu1Por
   0BA5 AF                 5663 	xor	a,a
   0BA6 21 08 01           5664 	ld	hl,#_pu1Por + 0
   0BA9 B6                 5665 	or	a,(hl)
   0BAA B7                 5666 	or	a,a
   0BAB CA B7 0B           5667 	jp	z,00102$
                           5668 ; genIpush
   0BAE 3E 00              5669 	ld	a,#0x00
   0BB0 F5                 5670 	push	af
   0BB1 33                 5671 	inc	sp
                           5672 ; genCall
   0BB2 CD 03 03           5673 	call	_addPortamento
   0BB5 E8 01              5674 	lda	sp,1(sp)
                           5675 ; genLabel
   0BB7                    5676 00102$:
                           5677 ;	mGBSynthCommonFunctions.c 147
                           5678 ; genPointerGet
   0BB7 11 93 01           5679 	ld	de,#_vibratoDepth + 0
   0BBA 1A                 5680 	ld	a,(de)
   0BBB 4F                 5681 	ld	c,a
                           5682 ; genIfx
                           5683 ; Removed redundent or a,a
   0BBC AF                 5684 	xor	a,a
   0BBD B1                 5685 	or	a,c
   0BBE CA CA 0B           5686 	jp	z,00104$
                           5687 ; genIpush
   0BC1 3E 00              5688 	ld	a,#0x00
   0BC3 F5                 5689 	push	af
   0BC4 33                 5690 	inc	sp
                           5691 ; genCall
   0BC5 CD 57 05           5692 	call	_updateVibratoPosition
   0BC8 E8 01              5693 	lda	sp,1(sp)
                           5694 ; genLabel
   0BCA                    5695 00104$:
                           5696 ;	mGBSynthCommonFunctions.c 148
                           5697 ; genPlus
                           5698 ; genPlusIncr
   0BCA 11 94 01           5699 	ld	de,#_vibratoDepth + 1
                           5700 ; genPointerGet
   0BCD 1A                 5701 	ld	a,(de)
   0BCE 4F                 5702 	ld	c,a
                           5703 ; genIfx
                           5704 ; Removed redundent or a,a
   0BCF AF                 5705 	xor	a,a
   0BD0 B1                 5706 	or	a,c
   0BD1 CA DD 0B           5707 	jp	z,00106$
                           5708 ; genIpush
   0BD4 3E 01              5709 	ld	a,#0x01
   0BD6 F5                 5710 	push	af
   0BD7 33                 5711 	inc	sp
                           5712 ; genCall
   0BD8 CD 57 05           5713 	call	_updateVibratoPosition
   0BDB E8 01              5714 	lda	sp,1(sp)
                           5715 ; genLabel
   0BDD                    5716 00106$:
                           5717 ;	mGBSynthCommonFunctions.c 149
                           5718 ; genPlus
                           5719 ; genPlusIncr
   0BDD 11 95 01           5720 	ld	de,#_vibratoDepth + 2
                           5721 ; genPointerGet
   0BE0 1A                 5722 	ld	a,(de)
   0BE1 4F                 5723 	ld	c,a
                           5724 ; genIfx
                           5725 ; Removed redundent or a,a
   0BE2 AF                 5726 	xor	a,a
   0BE3 B1                 5727 	or	a,c
   0BE4 CA F0 0B           5728 	jp	z,00108$
                           5729 ; genIpush
   0BE7 3E 02              5730 	ld	a,#0x02
   0BE9 F5                 5731 	push	af
   0BEA 33                 5732 	inc	sp
                           5733 ; genCall
   0BEB CD 57 05           5734 	call	_updateVibratoPosition
   0BEE E8 01              5735 	lda	sp,1(sp)
                           5736 ; genLabel
   0BF0                    5737 00108$:
                           5738 ;	mGBSynthCommonFunctions.c 150
                           5739 ; genPlus
                           5740 ; genPlusIncr
   0BF0 11 96 01           5741 	ld	de,#_vibratoDepth + 3
                           5742 ; genPointerGet
   0BF3 1A                 5743 	ld	a,(de)
   0BF4 4F                 5744 	ld	c,a
                           5745 ; genIfx
                           5746 ; Removed redundent or a,a
   0BF5 AF                 5747 	xor	a,a
   0BF6 B1                 5748 	or	a,c
   0BF7 CA 03 0C           5749 	jp	z,00110$
                           5750 ; genIpush
   0BFA 3E 03              5751 	ld	a,#0x03
   0BFC F5                 5752 	push	af
   0BFD 33                 5753 	inc	sp
                           5754 ; genCall
   0BFE CD 57 05           5755 	call	_updateVibratoPosition
   0C01 E8 01              5756 	lda	sp,1(sp)
                           5757 ; genLabel
   0C03                    5758 00110$:
                           5759 ;	mGBSynthCommonFunctions.c 151
                           5760 ; genIfx
                           5761 ; AOP_HL for _wavSweepSpeed
   0C03 AF                 5762 	xor	a,a
   0C04 21 3F 01           5763 	ld	hl,#_wavSweepSpeed + 0
   0C07 B6                 5764 	or	a,(hl)
   0C08 B7                 5765 	or	a,a
   0C09 CA B4 0C           5766 	jp	z,00123$
                           5767 ;	mGBSynthCommonFunctions.c 152
                           5768 ; genIfx
                           5769 ; AOP_HL for _wavStepCounter
   0C0C AF                 5770 	xor	a,a
   0C0D 21 08 02           5771 	ld	hl,#_wavStepCounter + 0
   0C10 B6                 5772 	or	a,(hl)
   0C11 B7                 5773 	or	a,a
   0C12 C2 A0 0C           5774 	jp	nz,00118$
                           5775 ;	mGBSynthCommonFunctions.c 153
                           5776 ; genPlus
                           5777 ; AOP_HL for _counterWav
                           5778 ; genPlusIncr
   0C15 21 56 01           5779 	ld	hl,#_counterWav + 0
   0C18 34                 5780 	inc	(hl)
   0C19 20 04              5781 	jr	nz,00137$
   0C1B 21 57 01           5782 	ld	hl,#_counterWav + 1
   0C1E 34                 5783 	inc	(hl)
   0C1F                    5784 00137$:
                           5785 ;	mGBSynthCommonFunctions.c 154
                           5786 ; genIfx
                           5787 ; AOP_HL for _wavSweepSpeed
   0C1F AF                 5788 	xor	a,a
   0C20 21 3F 01           5789 	ld	hl,#_wavSweepSpeed + 0
   0C23 B6                 5790 	or	a,(hl)
   0C24 B7                 5791 	or	a,a
   0C25 CA A0 0C           5792 	jp	z,00118$
                           5793 ; genIfx
                           5794 ; AOP_HL for _cueWavSweep
   0C28 AF                 5795 	xor	a,a
   0C29 21 58 01           5796 	ld	hl,#_cueWavSweep + 0
   0C2C B6                 5797 	or	a,(hl)
   0C2D B7                 5798 	or	a,a
   0C2E CA A0 0C           5799 	jp	z,00118$
                           5800 ;	mGBSynthCommonFunctions.c 155
                           5801 ; genPlus
                           5802 ; genPlusIncr
   0C31 11 46 01           5803 	ld	de,#_currentFreqData + 4
                           5804 ; genPointerGet
                           5805 ; AOP_STK for _updateSynths_sloc0_1_0
                           5806 ; Removed redundent load
                           5807 ; Removed redundent load
   0C34 1A                 5808 	ld	a,(de)
   0C35 F8 00              5809 	lda	hl,0(sp)
   0C37 77                 5810 	ld	(hl),a ; 3
   0C38 13                 5811 	inc	de
   0C39 1A                 5812 	ld	a,(de)
   0C3A 23                 5813 	inc	hl
   0C3B 77                 5814 	ld	(hl),a ; 3
                           5815 ; genLeftShift
                           5816 ; AOP_HL for _wavSweepSpeed
   0C3C 21 3F 01           5817 	ld	hl,#_wavSweepSpeed + 0
   0C3F 7E                 5818 	ld	a,(hl)
   0C40 3C                 5819 	inc	a
                           5820 ; AOP_HL for _counterWav
   0C41 21 56 01           5821 	ld	hl,#_counterWav + 0
   0C44 4E                 5822 	ld	c,(hl)
   0C45 21 57 01           5823 	ld	hl,#_counterWav + 1
   0C48 46                 5824 	ld	b,(hl)
   0C49 18 05              5825 	jr	00139$
   0C4B                    5826 00138$:
   0C4B B7                 5827 	or	a,a
   0C4C CB 11              5828 	rl	c
   0C4E CB 10              5829 	rl	b
   0C50                    5830 00139$:
   0C50 3D                 5831 	dec	a
   0C51 20 F8              5832 	jr	nz,00138$
                           5833 ; genMinus
                           5834 ; AOP_STK for _updateSynths_sloc0_1_0
                           5835 ; AOP_HL for _wavCurrentFreq
   0C53 F8 00              5836 	lda	hl,0(sp)
   0C55 7E                 5837 	ld	a,(hl)
   0C56 91                 5838 	sub	a,c
   0C57 21 40 01           5839 	ld	hl,#_wavCurrentFreq + 0
   0C5A 77                 5840 	ld	(hl),a
   0C5B F8 01              5841 	lda	hl,1(sp)
   0C5D 7E                 5842 	ld	a,(hl)
   0C5E 98                 5843 	sbc	a,b
   0C5F 21 41 01           5844 	ld	hl,#_wavCurrentFreq + 1
   0C62 77                 5845 	ld	(hl),a
                           5846 ;	mGBSynthCommonFunctions.c 156
                           5847 ; genRightShift
                           5848 ; AOP_HL for _wavSweepSpeed
                           5849 ; shift right 	result 1, left 1
   0C63 21 3F 01           5850 	ld	hl,#_wavSweepSpeed + 0
   0C66 4E                 5851 	ld	c,(hl)
   0C67 CB 39              5852 	srl	c
   0C69 CB 39              5853 	srl	c
   0C6B CB 39              5854 	srl	c
                           5855 ; genIfx
                           5856 ; Removed redundent or a,a
   0C6D AF                 5857 	xor	a,a
   0C6E B1                 5858 	or	a,c
   0C6F C2 91 0C           5859 	jp	nz,00112$
                           5860 ; genCmpGt
                           5861 ; AOP_HL for _wavCurrentFreq
   0C72 AF                 5862 	xor	a,a
   0C73 3E 98              5863 	ld	a,#0x98
   0C75 21 40 01           5864 	ld	hl,#_wavCurrentFreq + 0
   0C78 9E                 5865 	sbc	a,(hl) ; 2
   0C79 3E 08              5866 	ld	a,#0x08
   0C7B 21 41 01           5867 	ld	hl,#_wavCurrentFreq + 1
   0C7E 9E                 5868 	sbc	a,(hl) ; 2
   0C7F D2 91 0C           5869 	jp	nc,00112$
                           5870 ;	mGBSynthCommonFunctions.c 157
                           5871 ; genAssign
                           5872 ; AOP_HL for _wavCurrentFreq
   0C82 21 40 01           5873 	ld	hl,#_wavCurrentFreq + 0
   0C85 36 00              5874 	ld	(hl),#0x00
   0C87 21 41 01           5875 	ld	hl,#_wavCurrentFreq + 1
   0C8A 36 00              5876 	ld	(hl),#0x00
                           5877 ;	mGBSynthCommonFunctions.c 158
                           5878 ; genAssign
                           5879 ; AOP_HL for _cueWavSweep
   0C8C 21 58 01           5880 	ld	hl,#_cueWavSweep + 0
   0C8F 36 00              5881 	ld	(hl),#0x00
                           5882 ; genLabel
   0C91                    5883 00112$:
                           5884 ;	mGBSynthCommonFunctions.c 160
                           5885 ; genRightShift
                           5886 ; AOP_HL for _wavCurrentFreq
                           5887 ; shift right 	result 2, left 2
   0C91 21 41 01           5888 	ld	hl,#_wavCurrentFreq + 1
   0C94 4E                 5889 	ld	c,(hl)
   0C95 06 00              5890 	ld	b,#0x00
                           5891 ; genCast
                           5892 ; AOP_SFR for _NR34_REG
   0C97 79                 5893 	ld	a,c
   0C98 E0 00              5894 	ldh	(_NR34_REG+0),a
                           5895 ;	mGBSynthCommonFunctions.c 161
                           5896 ; genCast
                           5897 ; AOP_HL for _wavCurrentFreq
                           5898 ; AOP_SFR for _NR33_REG
   0C9A 21 40 01           5899 	ld	hl,#_wavCurrentFreq + 0
   0C9D 7E                 5900 	ld	a,(hl)
   0C9E E0 00              5901 	ldh	(_NR33_REG+0),a
                           5902 ; genLabel
   0CA0                    5903 00118$:
                           5904 ;	mGBSynthCommonFunctions.c 164
                           5905 ; genPlus
                           5906 ; AOP_HL for _wavStepCounter
                           5907 ; genPlusIncr
   0CA0 21 08 02           5908 	ld	hl,#_wavStepCounter + 0
   0CA3 34                 5909 	inc	(hl)
                           5910 ;	mGBSynthCommonFunctions.c 165
                           5911 ; genCmpEq
                           5912 ; AOP_HL for _wavStepCounter
   0CA4 7E                 5913 	ld	a,(hl) ; 2
   0CA5 FE 02              5914 	cp	a,#0x02
   0CA7 C2 AC 0C           5915 	jp	nz,00140$
   0CAA 18 03              5916 	jr	00141$
   0CAC                    5917 00140$:
   0CAC C3 B4 0C           5918 	jp	00123$
   0CAF                    5919 00141$:
                           5920 ; genAssign
                           5921 ; AOP_HL for _wavStepCounter
   0CAF 21 08 02           5922 	ld	hl,#_wavStepCounter + 0
   0CB2 36 00              5923 	ld	(hl),#0x00
                           5924 ; genLabel
   0CB4                    5925 00123$:
                           5926 ; genEndFunction
   0CB4 E8 02              5927 	lda	sp,2(sp)
   0CB6 C1                 5928 	pop bc
   0CB7 C9                 5929 	ret
   0CB8                    5930 ___updateSynths_end:
                           5931 ;	mGBDisplayFunctions.c 1
                           5932 ; genLabel
                           5933 ; genFunction
                           5934 ;	---------------------------------
                           5935 ; Function printversion
                           5936 ; ---------------------------------
   0CB8                    5937 ___printversion_start:
   0CB8                    5938 _printversion:
   0CB8 C5                 5939 	push	bc
                           5940 ;	mGBDisplayFunctions.c 3
                           5941 ; genIpush
   0CB9 21 4B 30           5942 	ld	hl,#_versionnumber + 0
   0CBC E5                 5943 	push	hl
                           5944 ; genIpush
   0CBD 3E 01              5945 	ld	a,#0x01
   0CBF F5                 5946 	push	af
   0CC0 33                 5947 	inc	sp
                           5948 ; genIpush
   0CC1 3E 10              5949 	ld	a,#0x10
   0CC3 F5                 5950 	push	af
   0CC4 33                 5951 	inc	sp
                           5952 ; genIpush
   0CC5 3E 11              5953 	ld	a,#0x11
   0CC7 F5                 5954 	push	af
   0CC8 33                 5955 	inc	sp
                           5956 ; genIpush
   0CC9 3E 01              5957 	ld	a,#0x01
   0CCB F5                 5958 	push	af
   0CCC 33                 5959 	inc	sp
                           5960 ; genCall
   0CCD CD 00 00           5961 	call	_set_bkg_tiles
   0CD0 E8 06              5962 	lda	sp,6(sp)
                           5963 ; genLabel
   0CD2                    5964 00101$:
                           5965 ; genEndFunction
   0CD2 C1                 5966 	pop	bc
   0CD3 C9                 5967 	ret
   0CD4                    5968 ___printversion_end:
                           5969 ;	mGBDisplayFunctions.c 6
                           5970 ; genLabel
                           5971 ; genFunction
                           5972 ;	---------------------------------
                           5973 ; Function printhelp
                           5974 ; ---------------------------------
   0CD4                    5975 ___printhelp_start:
   0CD4                    5976 _printhelp:
   0CD4 C5                 5977 	push	bc
   0CD5 E8 FE              5978 	lda sp,-2(sp)
                           5979 ;	mGBDisplayFunctions.c 8
                           5980 ; genIpush
   0CD7 3E 09              5981 	ld	a,#0x09
   0CD9 F5                 5982 	push	af
   0CDA 33                 5983 	inc	sp
                           5984 ; genIpush
                           5985 ; AOP_HL for _cursorColumn
   0CDB 21 72 01           5986 	ld	hl,#_cursorColumn + 0
   0CDE 7E                 5987 	ld	a,(hl)
   0CDF F5                 5988 	push	af
   0CE0 33                 5989 	inc	sp
                           5990 ; genCall
   0CE1 CD 00 00           5991 	call	__muluchar
   0CE4 4B                 5992 	ld	c,e
   0CE5 E8 02              5993 	lda	sp,2(sp)
                           5994 ; genPlus
                           5995 ; AOP_STK for _printhelp_sloc0_1_0
   0CE7 3E 0F              5996 	ld	a,#<_helpmap
   0CE9 81                 5997 	add	a,c
   0CEA F8 00              5998 	lda	hl,0(sp)
   0CEC 77                 5999 	ld	(hl),a ; 3
   0CED 3E 31              6000 	ld	a,#>_helpmap
   0CEF CE 00              6001 	adc	a,#0x00
   0CF1 23                 6002 	inc	hl
   0CF2 77                 6003 	ld	(hl),a ; 3
                           6004 ; genAssign
                           6005 ; AOP_HL for _cursorRowMain
   0CF3 21 88 01           6006 	ld	hl,#_cursorRowMain + 0
   0CF6 4E                 6007 	ld	c,(hl)
                           6008 ; genPlus
                           6009 ; AOP_STK for _printhelp_sloc0_1_0
   0CF7 F8 00              6010 	lda	hl,0(sp)
   0CF9 7E                 6011 	ld	a,(hl)
   0CFA 81                 6012 	add	a,c
   0CFB 5F                 6013 	ld	e,a
   0CFC 23                 6014 	inc	hl
   0CFD 7E                 6015 	ld	a,(hl)
   0CFE CE 00              6016 	adc	a,#0x00
   0D00 57                 6017 	ld	d,a
                           6018 ; genPointerGet
                           6019 ; AOP_HL for _j
   0D01 1A                 6020 	ld	a,(de)
   0D02 21 34 01           6021 	ld	hl,#_j + 0
   0D05 77                 6022 	ld	(hl),a
                           6023 ;	mGBDisplayFunctions.c 9
                           6024 ; genIpush
   0D06 3E 12              6025 	ld	a,#0x12
   0D08 F5                 6026 	push	af
   0D09 33                 6027 	inc	sp
                           6028 ; genIpush
                           6029 ; AOP_HL for _j
   0D0A 7E                 6030 	ld	a,(hl)
   0D0B F5                 6031 	push	af
   0D0C 33                 6032 	inc	sp
                           6033 ; genCall
   0D0D CD 00 00           6034 	call	__muluchar
   0D10 4B                 6035 	ld	c,e
   0D11 E8 02              6036 	lda	sp,2(sp)
                           6037 ; genPlus
   0D13 3E 5B              6038 	ld	a,#<_helpdata
   0D15 81                 6039 	add	a,c
   0D16 4F                 6040 	ld	c,a
   0D17 3E 30              6041 	ld	a,#>_helpdata
   0D19 CE 00              6042 	adc	a,#0x00
   0D1B 47                 6043 	ld	b,a
                           6044 ; genCast
                           6045 ; genIpush
   0D1C C5                 6046 	push	bc
                           6047 ; genIpush
   0D1D 3E 01              6048 	ld	a,#0x01
   0D1F F5                 6049 	push	af
   0D20 33                 6050 	inc	sp
                           6051 ; genIpush
   0D21 3E 12              6052 	ld	a,#0x12
   0D23 F5                 6053 	push	af
   0D24 33                 6054 	inc	sp
                           6055 ; genIpush
   0D25 3E 11              6056 	ld	a,#0x11
   0D27 F5                 6057 	push	af
   0D28 33                 6058 	inc	sp
                           6059 ; genIpush
   0D29 3E 01              6060 	ld	a,#0x01
   0D2B F5                 6061 	push	af
   0D2C 33                 6062 	inc	sp
                           6063 ; genCall
   0D2D CD 00 00           6064 	call	_set_bkg_tiles
   0D30 E8 06              6065 	lda	sp,6(sp)
                           6066 ; genLabel
   0D32                    6067 00101$:
                           6068 ; genEndFunction
   0D32 E8 02              6069 	lda	sp,2(sp)
   0D34 C1                 6070 	pop bc
   0D35 C9                 6071 	ret
   0D36                    6072 ___printhelp_end:
                           6073 ;	mGBDisplayFunctions.c 12
                           6074 ; genLabel
                           6075 ; genFunction
                           6076 ;	---------------------------------
                           6077 ; Function updateDisplayValue
                           6078 ; ---------------------------------
   0D36                    6079 ___updateDisplayValue_start:
   0D36                    6080 _updateDisplayValue:
   0D36 C5                 6081 	push	bc
   0D37 E8 FA              6082 	lda sp,-6(sp)
                           6083 ;	mGBDisplayFunctions.c 14
                           6084 ; genPlus
                           6085 ; AOP_STK for _updateDisplayValue_sloc0_1_0
                           6086 ; genPlusIncr
   0D39 3E 59              6087 	ld	a,#<_bkg
   0D3B C6 01              6088 	add	a,#0x01
   0D3D F8 04              6089 	lda	hl,4(sp)
   0D3F 77                 6090 	ld	(hl),a ; 3
   0D40 3E 01              6091 	ld	a,#>_bkg
   0D42 CE 00              6092 	adc	a,#0x00
   0D44 23                 6093 	inc	hl
   0D45 77                 6094 	ld	(hl),a ; 3
                           6095 ; genAssign (pointer)
                           6096 ; AOP_STK for _updateDisplayValue_sloc0_1_0
   0D46 2B                 6097 	dec	hl
   0D47 5E                 6098 	ld	e,(hl)
   0D48 23                 6099 	inc	hl
   0D49 56                 6100 	ld	d,(hl)
   0D4A 3E 00              6101 	ld	a,#0x00
   0D4C 12                 6102 	ld	(de),a
                           6103 ;	mGBDisplayFunctions.c 15
                           6104 ; genCmpGt
                           6105 ; AOP_STK for 
   0D4D AF                 6106 	xor	a,a
   0D4E 3E 1B              6107 	ld	a,#0x1B
   0D50 F8 0A              6108 	lda	hl,10(sp)
   0D52 9E                 6109 	sbc	a,(hl) ; 2
   0D53 DA F4 11           6110 	jp	c,00137$
                           6111 ; genJumpTab
                           6112 ; AOP_STK for 
   0D56 5E                 6113 	ld	e,(hl)
   0D57 16 00              6114 	ld	d,#0x00
   0D59 21 60 0D           6115 	ld	hl,#00142$
   0D5C 19                 6116 	add	hl,de
   0D5D 19                 6117 	add	hl,de
   0D5E 19                 6118 	add	hl,de
   0D5F E9                 6119 	jp	(hl)
   0D60                    6120 00142$:
   0D60 C3 B4 0D           6121 	jp	00104$
   0D63 C3 08 0E           6122 	jp	00106$
   0D66 C3 54 0E           6123 	jp	00112$
   0D69 C3 A0 10           6124 	jp	00128$
   0D6C C3 EF 0E           6125 	jp	00115$
   0D6F C3 4E 0F           6126 	jp	00119$
   0D72 C3 A3 0F           6127 	jp	00123$
   0D75 C3 B4 0D           6128 	jp	00103$
   0D78 C3 08 0E           6129 	jp	00105$
   0D7B C3 54 0E           6130 	jp	00111$
   0D7E C3 EF 0E           6131 	jp	00114$
   0D81 C3 4E 0F           6132 	jp	00118$
   0D84 C3 A3 0F           6133 	jp	00122$
   0D87 C3 B4 0D           6134 	jp	00102$
   0D8A C3 F8 0F           6135 	jp	00127$
   0D8D C3 FF 10           6136 	jp	00129$
   0D90 C3 5E 11           6137 	jp	00130$
   0D93 C3 EF 0E           6138 	jp	00113$
   0D96 C3 4E 0F           6139 	jp	00117$
   0D99 C3 A3 0F           6140 	jp	00121$
   0D9C C3 B4 0D           6141 	jp	00101$
   0D9F C3 54 0E           6142 	jp	00110$
   0DA2 C3 4E 0F           6143 	jp	00116$
   0DA5 C3 A3 0F           6144 	jp	00120$
   0DA8 C3 AA 11           6145 	jp	00134$
   0DAB C3 AA 11           6146 	jp	00133$
   0DAE C3 AA 11           6147 	jp	00132$
   0DB1 C3 AA 11           6148 	jp	00131$
                           6149 ;	mGBDisplayFunctions.c 20
                           6150 ; genLabel
   0DB4                    6151 00104$:
                           6152 ; genLabel
   0DB4                    6153 00103$:
                           6154 ; genLabel
   0DB4                    6155 00102$:
                           6156 ; genLabel
   0DB4                    6157 00101$:
                           6158 ; genLeftShift
                           6159 ; AOP_STK for 
   0DB4 F8 0B              6160 	lda	hl,11(sp)
   0DB6 7E                 6161 	ld	a,(hl)
   0DB7 87                 6162 	add	a,a
   0DB8 4F                 6163 	ld	c,a
                           6164 ; genPlus
                           6165 ; AOP_STK for _updateDisplayValue_sloc1_1_0
   0DB9 3E E1              6166 	ld	a,#<_octmap
   0DBB 81                 6167 	add	a,c
   0DBC F8 02              6168 	lda	hl,2(sp)
   0DBE 77                 6169 	ld	(hl),a ; 3
   0DBF 3E 31              6170 	ld	a,#>_octmap
   0DC1 CE 00              6171 	adc	a,#0x00
   0DC3 23                 6172 	inc	hl
   0DC4 77                 6173 	ld	(hl),a ; 3
                           6174 ; genIpush
   0DC5 3E 03              6175 	ld	a,#0x03
   0DC7 F5                 6176 	push	af
   0DC8 33                 6177 	inc	sp
                           6178 ; genIpush
                           6179 ; AOP_STK for 
   0DC9 F8 0B              6180 	lda	hl,11(sp)
   0DCB 7E                 6181 	ld	a,(hl)
   0DCC F5                 6182 	push	af
   0DCD 33                 6183 	inc	sp
                           6184 ; genCall
   0DCE CD 00 00           6185 	call	__muluchar
   0DD1 4B                 6186 	ld	c,e
   0DD2 E8 02              6187 	lda	sp,2(sp)
                           6188 ; genPlus
                           6189 ; AOP_STK for _updateDisplayValue_sloc2_1_0
   0DD4 3E 8D              6190 	ld	a,#<_tableData
   0DD6 81                 6191 	add	a,c
   0DD7 F8 00              6192 	lda	hl,0(sp)
   0DD9 77                 6193 	ld	(hl),a ; 3
   0DDA 3E 31              6194 	ld	a,#>_tableData
   0DDC CE 00              6195 	adc	a,#0x00
   0DDE 23                 6196 	inc	hl
   0DDF 77                 6197 	ld	(hl),a ; 3
                           6198 ; genPlus
                           6199 ; AOP_STK for _updateDisplayValue_sloc2_1_0
                           6200 ; genPlusIncr
   0DE0 2B                 6201 	dec	hl
   0DE1 5E                 6202 	ld	e,(hl)
   0DE2 23                 6203 	inc	hl
   0DE3 56                 6204 	ld	d,(hl)
   0DE4 13                 6205 	inc	de
                           6206 ; genPointerGet
   0DE5 1A                 6207 	ld	a,(de)
   0DE6 4F                 6208 	ld	c,a
                           6209 ; genPointerGet
                           6210 ; AOP_STK for _updateDisplayValue_sloc2_1_0
   0DE7 2B                 6211 	dec	hl
   0DE8 5E                 6212 	ld	e,(hl)
   0DE9 23                 6213 	inc	hl
   0DEA 56                 6214 	ld	d,(hl)
   0DEB 1A                 6215 	ld	a,(de)
   0DEC 47                 6216 	ld	b,a
                           6217 ; genIpush
                           6218 ; AOP_STK for _updateDisplayValue_sloc1_1_0
   0DED 23                 6219 	inc	hl
   0DEE 2A                 6220 	ld	a,(hl+)
   0DEF 66                 6221 	ld	h,(hl)
   0DF0 6F                 6222 	ld	l,a
   0DF1 E5                 6223 	push	hl
                           6224 ; genIpush
   0DF2 3E 01              6225 	ld	a,#0x01
   0DF4 F5                 6226 	push	af
   0DF5 33                 6227 	inc	sp
                           6228 ; genIpush
   0DF6 3E 02              6229 	ld	a,#0x02
   0DF8 F5                 6230 	push	af
   0DF9 33                 6231 	inc	sp
                           6232 ; genIpush
   0DFA 79                 6233 	ld	a,c
   0DFB F5                 6234 	push	af
   0DFC 33                 6235 	inc	sp
                           6236 ; genIpush
   0DFD 78                 6237 	ld	a,b
   0DFE F5                 6238 	push	af
   0DFF 33                 6239 	inc	sp
                           6240 ; genCall
   0E00 CD 00 00           6241 	call	_set_bkg_tiles
   0E03 E8 06              6242 	lda	sp,6(sp)
                           6243 ;	mGBDisplayFunctions.c 21
                           6244 ; genGoto
   0E05 C3 F4 11           6245 	jp	00137$
                           6246 ;	mGBDisplayFunctions.c 24
                           6247 ; genLabel
   0E08                    6248 00106$:
                           6249 ; genLabel
   0E08                    6250 00105$:
                           6251 ; genPlus
                           6252 ; AOP_STK for 
                           6253 ; genPlusIncr
   0E08 F8 0B              6254 	lda	hl,11(sp)
   0E0A 7E                 6255 	ld	a,(hl)
   0E0B C6 2C              6256 	add	a,#0x2C
   0E0D 4F                 6257 	ld	c,a
                           6258 ; genAssign (pointer)
   0E0E 11 59 01           6259 	ld	de,#_bkg + 0
   0E11 79                 6260 	ld	a,c
   0E12 12                 6261 	ld	(de),a
                           6262 ; genIpush
   0E13 3E 03              6263 	ld	a,#0x03
   0E15 F5                 6264 	push	af
   0E16 33                 6265 	inc	sp
                           6266 ; genIpush
                           6267 ; AOP_STK for 
   0E17 2B                 6268 	dec	hl
   0E18 7E                 6269 	ld	a,(hl)
   0E19 F5                 6270 	push	af
   0E1A 33                 6271 	inc	sp
                           6272 ; genCall
   0E1B CD 00 00           6273 	call	__muluchar
   0E1E 4B                 6274 	ld	c,e
   0E1F E8 02              6275 	lda	sp,2(sp)
                           6276 ; genPlus
                           6277 ; AOP_STK for _updateDisplayValue_sloc2_1_0
   0E21 3E 8D              6278 	ld	a,#<_tableData
   0E23 81                 6279 	add	a,c
   0E24 F8 00              6280 	lda	hl,0(sp)
   0E26 77                 6281 	ld	(hl),a ; 3
   0E27 3E 31              6282 	ld	a,#>_tableData
   0E29 CE 00              6283 	adc	a,#0x00
   0E2B 23                 6284 	inc	hl
   0E2C 77                 6285 	ld	(hl),a ; 3
                           6286 ; genPlus
                           6287 ; AOP_STK for _updateDisplayValue_sloc2_1_0
                           6288 ; genPlusIncr
   0E2D 2B                 6289 	dec	hl
   0E2E 5E                 6290 	ld	e,(hl)
   0E2F 23                 6291 	inc	hl
   0E30 56                 6292 	ld	d,(hl)
   0E31 13                 6293 	inc	de
                           6294 ; genPointerGet
   0E32 1A                 6295 	ld	a,(de)
   0E33 4F                 6296 	ld	c,a
                           6297 ; genPointerGet
                           6298 ; AOP_STK for _updateDisplayValue_sloc2_1_0
   0E34 2B                 6299 	dec	hl
   0E35 5E                 6300 	ld	e,(hl)
   0E36 23                 6301 	inc	hl
   0E37 56                 6302 	ld	d,(hl)
   0E38 1A                 6303 	ld	a,(de)
   0E39 47                 6304 	ld	b,a
                           6305 ; genIpush
   0E3A 21 59 01           6306 	ld	hl,#_bkg + 0
   0E3D E5                 6307 	push	hl
                           6308 ; genIpush
   0E3E 3E 01              6309 	ld	a,#0x01
   0E40 F5                 6310 	push	af
   0E41 33                 6311 	inc	sp
                           6312 ; genIpush
   0E42 3E 02              6313 	ld	a,#0x02
   0E44 F5                 6314 	push	af
   0E45 33                 6315 	inc	sp
                           6316 ; genIpush
   0E46 79                 6317 	ld	a,c
   0E47 F5                 6318 	push	af
   0E48 33                 6319 	inc	sp
                           6320 ; genIpush
   0E49 78                 6321 	ld	a,b
   0E4A F5                 6322 	push	af
   0E4B 33                 6323 	inc	sp
                           6324 ; genCall
   0E4C CD 00 00           6325 	call	_set_bkg_tiles
   0E4F E8 06              6326 	lda	sp,6(sp)
                           6327 ;	mGBDisplayFunctions.c 25
                           6328 ; genGoto
   0E51 C3 F4 11           6329 	jp	00137$
                           6330 ;	mGBDisplayFunctions.c 33
                           6331 ; genLabel
   0E54                    6332 00112$:
                           6333 ; genLabel
   0E54                    6334 00111$:
                           6335 ; genLabel
   0E54                    6336 00110$:
                           6337 ;	mGBDisplayFunctions.c 29
                           6338 ; genIfx
                           6339 ; AOP_STK for 
   0E54 AF                 6340 	xor	a,a
   0E55 F8 0B              6341 	lda	hl,11(sp)
   0E57 B6                 6342 	or	a,(hl)
   0E58 B7                 6343 	or	a,a
   0E59 C2 A3 0E           6344 	jp	nz,00108$
                           6345 ;	mGBDisplayFunctions.c 30
                           6346 ; genAssign (pointer)
   0E5C 11 59 01           6347 	ld	de,#_bkg + 0
   0E5F 3E 53              6348 	ld	a,#0x53
   0E61 12                 6349 	ld	(de),a
                           6350 ; genIpush
   0E62 3E 03              6351 	ld	a,#0x03
   0E64 F5                 6352 	push	af
   0E65 33                 6353 	inc	sp
                           6354 ; genIpush
                           6355 ; AOP_STK for 
   0E66 2B                 6356 	dec	hl
   0E67 7E                 6357 	ld	a,(hl)
   0E68 F5                 6358 	push	af
   0E69 33                 6359 	inc	sp
                           6360 ; genCall
   0E6A CD 00 00           6361 	call	__muluchar
   0E6D 4B                 6362 	ld	c,e
   0E6E E8 02              6363 	lda	sp,2(sp)
                           6364 ; genPlus
                           6365 ; AOP_STK for _updateDisplayValue_sloc2_1_0
   0E70 3E 8D              6366 	ld	a,#<_tableData
   0E72 81                 6367 	add	a,c
   0E73 F8 00              6368 	lda	hl,0(sp)
   0E75 77                 6369 	ld	(hl),a ; 3
   0E76 3E 31              6370 	ld	a,#>_tableData
   0E78 CE 00              6371 	adc	a,#0x00
   0E7A 23                 6372 	inc	hl
   0E7B 77                 6373 	ld	(hl),a ; 3
                           6374 ; genPlus
                           6375 ; AOP_STK for _updateDisplayValue_sloc2_1_0
                           6376 ; genPlusIncr
   0E7C 2B                 6377 	dec	hl
   0E7D 5E                 6378 	ld	e,(hl)
   0E7E 23                 6379 	inc	hl
   0E7F 56                 6380 	ld	d,(hl)
   0E80 13                 6381 	inc	de
                           6382 ; genPointerGet
   0E81 1A                 6383 	ld	a,(de)
   0E82 4F                 6384 	ld	c,a
                           6385 ; genPointerGet
                           6386 ; AOP_STK for _updateDisplayValue_sloc2_1_0
   0E83 2B                 6387 	dec	hl
   0E84 5E                 6388 	ld	e,(hl)
   0E85 23                 6389 	inc	hl
   0E86 56                 6390 	ld	d,(hl)
   0E87 1A                 6391 	ld	a,(de)
   0E88 47                 6392 	ld	b,a
                           6393 ; genIpush
   0E89 21 59 01           6394 	ld	hl,#_bkg + 0
   0E8C E5                 6395 	push	hl
                           6396 ; genIpush
   0E8D 3E 01              6397 	ld	a,#0x01
   0E8F F5                 6398 	push	af
   0E90 33                 6399 	inc	sp
                           6400 ; genIpush
   0E91 3E 02              6401 	ld	a,#0x02
   0E93 F5                 6402 	push	af
   0E94 33                 6403 	inc	sp
                           6404 ; genIpush
   0E95 79                 6405 	ld	a,c
   0E96 F5                 6406 	push	af
   0E97 33                 6407 	inc	sp
                           6408 ; genIpush
   0E98 78                 6409 	ld	a,b
   0E99 F5                 6410 	push	af
   0E9A 33                 6411 	inc	sp
                           6412 ; genCall
   0E9B CD 00 00           6413 	call	_set_bkg_tiles
   0E9E E8 06              6414 	lda	sp,6(sp)
                           6415 ; genGoto
   0EA0 C3 F4 11           6416 	jp	00137$
                           6417 ; genLabel
   0EA3                    6418 00108$:
                           6419 ;	mGBDisplayFunctions.c 32
                           6420 ; genPlus
                           6421 ; AOP_STK for 
                           6422 ; genPlusIncr
   0EA3 F8 0B              6423 	lda	hl,11(sp)
   0EA5 7E                 6424 	ld	a,(hl)
   0EA6 C6 30              6425 	add	a,#0x30
   0EA8 4F                 6426 	ld	c,a
                           6427 ; genAssign (pointer)
   0EA9 11 59 01           6428 	ld	de,#_bkg + 0
   0EAC 79                 6429 	ld	a,c
   0EAD 12                 6430 	ld	(de),a
                           6431 ; genIpush
   0EAE 3E 03              6432 	ld	a,#0x03
   0EB0 F5                 6433 	push	af
   0EB1 33                 6434 	inc	sp
                           6435 ; genIpush
                           6436 ; AOP_STK for 
   0EB2 2B                 6437 	dec	hl
   0EB3 7E                 6438 	ld	a,(hl)
   0EB4 F5                 6439 	push	af
   0EB5 33                 6440 	inc	sp
                           6441 ; genCall
   0EB6 CD 00 00           6442 	call	__muluchar
   0EB9 4B                 6443 	ld	c,e
   0EBA E8 02              6444 	lda	sp,2(sp)
                           6445 ; genPlus
                           6446 ; AOP_STK for _updateDisplayValue_sloc2_1_0
   0EBC 3E 8D              6447 	ld	a,#<_tableData
   0EBE 81                 6448 	add	a,c
   0EBF F8 00              6449 	lda	hl,0(sp)
   0EC1 77                 6450 	ld	(hl),a ; 3
   0EC2 3E 31              6451 	ld	a,#>_tableData
   0EC4 CE 00              6452 	adc	a,#0x00
   0EC6 23                 6453 	inc	hl
   0EC7 77                 6454 	ld	(hl),a ; 3
                           6455 ; genPlus
                           6456 ; AOP_STK for _updateDisplayValue_sloc2_1_0
                           6457 ; genPlusIncr
   0EC8 2B                 6458 	dec	hl
   0EC9 5E                 6459 	ld	e,(hl)
   0ECA 23                 6460 	inc	hl
   0ECB 56                 6461 	ld	d,(hl)
   0ECC 13                 6462 	inc	de
                           6463 ; genPointerGet
   0ECD 1A                 6464 	ld	a,(de)
   0ECE 4F                 6465 	ld	c,a
                           6466 ; genPointerGet
                           6467 ; AOP_STK for _updateDisplayValue_sloc2_1_0
   0ECF 2B                 6468 	dec	hl
   0ED0 5E                 6469 	ld	e,(hl)
   0ED1 23                 6470 	inc	hl
   0ED2 56                 6471 	ld	d,(hl)
   0ED3 1A                 6472 	ld	a,(de)
   0ED4 47                 6473 	ld	b,a
                           6474 ; genIpush
   0ED5 21 59 01           6475 	ld	hl,#_bkg + 0
   0ED8 E5                 6476 	push	hl
                           6477 ; genIpush
   0ED9 3E 01              6478 	ld	a,#0x01
   0EDB F5                 6479 	push	af
   0EDC 33                 6480 	inc	sp
                           6481 ; genIpush
   0EDD 3E 02              6482 	ld	a,#0x02
   0EDF F5                 6483 	push	af
   0EE0 33                 6484 	inc	sp
                           6485 ; genIpush
   0EE1 79                 6486 	ld	a,c
   0EE2 F5                 6487 	push	af
   0EE3 33                 6488 	inc	sp
                           6489 ; genIpush
   0EE4 78                 6490 	ld	a,b
   0EE5 F5                 6491 	push	af
   0EE6 33                 6492 	inc	sp
                           6493 ; genCall
   0EE7 CD 00 00           6494 	call	_set_bkg_tiles
   0EEA E8 06              6495 	lda	sp,6(sp)
                           6496 ;	mGBDisplayFunctions.c 34
                           6497 ; genGoto
   0EEC C3 F4 11           6498 	jp	00137$
                           6499 ;	mGBDisplayFunctions.c 38
                           6500 ; genLabel
   0EEF                    6501 00115$:
                           6502 ; genLabel
   0EEF                    6503 00114$:
                           6504 ; genLabel
   0EEF                    6505 00113$:
                           6506 ; genRightShift
                           6507 ; AOP_STK for 
                           6508 ; shift right 	result 1, left 1
   0EEF F8 0B              6509 	lda	hl,11(sp)
   0EF1 4E                 6510 	ld	c,(hl)
   0EF2 CB 39              6511 	srl	c
   0EF4 CB 39              6512 	srl	c
   0EF6 CB 39              6513 	srl	c
   0EF8 CB 39              6514 	srl	c
                           6515 ; genPlus
                           6516 ; genPlusIncr
   0EFA 0C                 6517 	inc	c
                           6518 ; genAssign (pointer)
   0EFB 11 59 01           6519 	ld	de,#_bkg + 0
   0EFE 79                 6520 	ld	a,c
   0EFF 12                 6521 	ld	(de),a
                           6522 ;	mGBDisplayFunctions.c 39
                           6523 ; genAnd
                           6524 ; AOP_STK for 
   0F00 7E                 6525 	ld	a,(hl)
   0F01 E6 0F              6526 	and	a,#0x0F
   0F03 4F                 6527 	ld	c,a
                           6528 ; genPlus
                           6529 ; genPlusIncr
   0F04 0C                 6530 	inc	c
                           6531 ; genAssign (pointer)
                           6532 ; AOP_STK for _updateDisplayValue_sloc0_1_0
   0F05 F8 04              6533 	lda	hl,4(sp)
   0F07 5E                 6534 	ld	e,(hl)
   0F08 23                 6535 	inc	hl
   0F09 56                 6536 	ld	d,(hl)
   0F0A 79                 6537 	ld	a,c
   0F0B 12                 6538 	ld	(de),a
                           6539 ;	mGBDisplayFunctions.c 40
                           6540 ; genIpush
   0F0C 3E 03              6541 	ld	a,#0x03
   0F0E F5                 6542 	push	af
   0F0F 33                 6543 	inc	sp
                           6544 ; genIpush
                           6545 ; AOP_STK for 
   0F10 F8 0B              6546 	lda	hl,11(sp)
   0F12 7E                 6547 	ld	a,(hl)
   0F13 F5                 6548 	push	af
   0F14 33                 6549 	inc	sp
                           6550 ; genCall
   0F15 CD 00 00           6551 	call	__muluchar
   0F18 4B                 6552 	ld	c,e
   0F19 E8 02              6553 	lda	sp,2(sp)
                           6554 ; genPlus
                           6555 ; AOP_STK for _updateDisplayValue_sloc2_1_0
   0F1B 3E 8D              6556 	ld	a,#<_tableData
   0F1D 81                 6557 	add	a,c
   0F1E F8 00              6558 	lda	hl,0(sp)
   0F20 77                 6559 	ld	(hl),a ; 3
   0F21 3E 31              6560 	ld	a,#>_tableData
   0F23 CE 00              6561 	adc	a,#0x00
   0F25 23                 6562 	inc	hl
   0F26 77                 6563 	ld	(hl),a ; 3
                           6564 ; genPlus
                           6565 ; AOP_STK for _updateDisplayValue_sloc2_1_0
                           6566 ; genPlusIncr
   0F27 2B                 6567 	dec	hl
   0F28 5E                 6568 	ld	e,(hl)
   0F29 23                 6569 	inc	hl
   0F2A 56                 6570 	ld	d,(hl)
   0F2B 13                 6571 	inc	de
                           6572 ; genPointerGet
   0F2C 1A                 6573 	ld	a,(de)
   0F2D 4F                 6574 	ld	c,a
                           6575 ; genPointerGet
                           6576 ; AOP_STK for _updateDisplayValue_sloc2_1_0
   0F2E 2B                 6577 	dec	hl
   0F2F 5E                 6578 	ld	e,(hl)
   0F30 23                 6579 	inc	hl
   0F31 56                 6580 	ld	d,(hl)
   0F32 1A                 6581 	ld	a,(de)
   0F33 47                 6582 	ld	b,a
                           6583 ; genIpush
   0F34 21 59 01           6584 	ld	hl,#_bkg + 0
   0F37 E5                 6585 	push	hl
                           6586 ; genIpush
   0F38 3E 01              6587 	ld	a,#0x01
   0F3A F5                 6588 	push	af
   0F3B 33                 6589 	inc	sp
                           6590 ; genIpush
   0F3C 3E 02              6591 	ld	a,#0x02
   0F3E F5                 6592 	push	af
   0F3F 33                 6593 	inc	sp
                           6594 ; genIpush
   0F40 79                 6595 	ld	a,c
   0F41 F5                 6596 	push	af
   0F42 33                 6597 	inc	sp
                           6598 ; genIpush
   0F43 78                 6599 	ld	a,b
   0F44 F5                 6600 	push	af
   0F45 33                 6601 	inc	sp
                           6602 ; genCall
   0F46 CD 00 00           6603 	call	_set_bkg_tiles
   0F49 E8 06              6604 	lda	sp,6(sp)
                           6605 ;	mGBDisplayFunctions.c 41
                           6606 ; genGoto
   0F4B C3 F4 11           6607 	jp	00137$
                           6608 ;	mGBDisplayFunctions.c 46
                           6609 ; genLabel
   0F4E                    6610 00119$:
                           6611 ; genLabel
   0F4E                    6612 00118$:
                           6613 ; genLabel
   0F4E                    6614 00117$:
                           6615 ; genLabel
   0F4E                    6616 00116$:
                           6617 ; genLeftShift
                           6618 ; AOP_STK for 
   0F4E F8 0B              6619 	lda	hl,11(sp)
   0F50 7E                 6620 	ld	a,(hl)
   0F51 87                 6621 	add	a,a
   0F52 4F                 6622 	ld	c,a
                           6623 ; genPlus
                           6624 ; AOP_STK for _updateDisplayValue_sloc2_1_0
   0F53 3E F5              6625 	ld	a,#<_susmap
   0F55 81                 6626 	add	a,c
   0F56 F8 00              6627 	lda	hl,0(sp)
   0F58 77                 6628 	ld	(hl),a ; 3
   0F59 3E 31              6629 	ld	a,#>_susmap
   0F5B CE 00              6630 	adc	a,#0x00
   0F5D 23                 6631 	inc	hl
   0F5E 77                 6632 	ld	(hl),a ; 3
                           6633 ; genIpush
   0F5F 3E 03              6634 	ld	a,#0x03
   0F61 F5                 6635 	push	af
   0F62 33                 6636 	inc	sp
                           6637 ; genIpush
                           6638 ; AOP_STK for 
   0F63 F8 0B              6639 	lda	hl,11(sp)
   0F65 7E                 6640 	ld	a,(hl)
   0F66 F5                 6641 	push	af
   0F67 33                 6642 	inc	sp
                           6643 ; genCall
   0F68 CD 00 00           6644 	call	__muluchar
   0F6B 4B                 6645 	ld	c,e
   0F6C E8 02              6646 	lda	sp,2(sp)
                           6647 ; genPlus
                           6648 ; AOP_STK for _updateDisplayValue_sloc1_1_0
   0F6E 3E 8D              6649 	ld	a,#<_tableData
   0F70 81                 6650 	add	a,c
   0F71 F8 02              6651 	lda	hl,2(sp)
   0F73 77                 6652 	ld	(hl),a ; 3
   0F74 3E 31              6653 	ld	a,#>_tableData
   0F76 CE 00              6654 	adc	a,#0x00
   0F78 23                 6655 	inc	hl
   0F79 77                 6656 	ld	(hl),a ; 3
                           6657 ; genPlus
                           6658 ; AOP_STK for _updateDisplayValue_sloc1_1_0
                           6659 ; genPlusIncr
   0F7A 2B                 6660 	dec	hl
   0F7B 5E                 6661 	ld	e,(hl)
   0F7C 23                 6662 	inc	hl
   0F7D 56                 6663 	ld	d,(hl)
   0F7E 13                 6664 	inc	de
                           6665 ; genPointerGet
   0F7F 1A                 6666 	ld	a,(de)
   0F80 4F                 6667 	ld	c,a
                           6668 ; genPointerGet
                           6669 ; AOP_STK for _updateDisplayValue_sloc1_1_0
   0F81 2B                 6670 	dec	hl
   0F82 5E                 6671 	ld	e,(hl)
   0F83 23                 6672 	inc	hl
   0F84 56                 6673 	ld	d,(hl)
   0F85 1A                 6674 	ld	a,(de)
   0F86 47                 6675 	ld	b,a
                           6676 ; genIpush
                           6677 ; AOP_STK for _updateDisplayValue_sloc2_1_0
   0F87 F8 00              6678 	lda	hl,0(sp)
   0F89 2A                 6679 	ld	a,(hl+)
   0F8A 66                 6680 	ld	h,(hl)
   0F8B 6F                 6681 	ld	l,a
   0F8C E5                 6682 	push	hl
                           6683 ; genIpush
   0F8D 3E 01              6684 	ld	a,#0x01
   0F8F F5                 6685 	push	af
   0F90 33                 6686 	inc	sp
                           6687 ; genIpush
   0F91 3E 02              6688 	ld	a,#0x02
   0F93 F5                 6689 	push	af
   0F94 33                 6690 	inc	sp
                           6691 ; genIpush
   0F95 79                 6692 	ld	a,c
   0F96 F5                 6693 	push	af
   0F97 33                 6694 	inc	sp
                           6695 ; genIpush
   0F98 78                 6696 	ld	a,b
   0F99 F5                 6697 	push	af
   0F9A 33                 6698 	inc	sp
                           6699 ; genCall
   0F9B CD 00 00           6700 	call	_set_bkg_tiles
   0F9E E8 06              6701 	lda	sp,6(sp)
                           6702 ;	mGBDisplayFunctions.c 47
                           6703 ; genGoto
   0FA0 C3 F4 11           6704 	jp	00137$
                           6705 ;	mGBDisplayFunctions.c 52
                           6706 ; genLabel
   0FA3                    6707 00123$:
                           6708 ; genLabel
   0FA3                    6709 00122$:
                           6710 ; genLabel
   0FA3                    6711 00121$:
                           6712 ; genLabel
   0FA3                    6713 00120$:
                           6714 ; genLeftShift
                           6715 ; AOP_STK for 
   0FA3 F8 0B              6716 	lda	hl,11(sp)
   0FA5 7E                 6717 	ld	a,(hl)
   0FA6 87                 6718 	add	a,a
   0FA7 4F                 6719 	ld	c,a
                           6720 ; genPlus
                           6721 ; AOP_STK for _updateDisplayValue_sloc2_1_0
   0FA8 3E ED              6722 	ld	a,#<_panmap
   0FAA 81                 6723 	add	a,c
   0FAB F8 00              6724 	lda	hl,0(sp)
   0FAD 77                 6725 	ld	(hl),a ; 3
   0FAE 3E 31              6726 	ld	a,#>_panmap
   0FB0 CE 00              6727 	adc	a,#0x00
   0FB2 23                 6728 	inc	hl
   0FB3 77                 6729 	ld	(hl),a ; 3
                           6730 ; genIpush
   0FB4 3E 03              6731 	ld	a,#0x03
   0FB6 F5                 6732 	push	af
   0FB7 33                 6733 	inc	sp
                           6734 ; genIpush
                           6735 ; AOP_STK for 
   0FB8 F8 0B              6736 	lda	hl,11(sp)
   0FBA 7E                 6737 	ld	a,(hl)
   0FBB F5                 6738 	push	af
   0FBC 33                 6739 	inc	sp
                           6740 ; genCall
   0FBD CD 00 00           6741 	call	__muluchar
   0FC0 4B                 6742 	ld	c,e
   0FC1 E8 02              6743 	lda	sp,2(sp)
                           6744 ; genPlus
                           6745 ; AOP_STK for _updateDisplayValue_sloc1_1_0
   0FC3 3E 8D              6746 	ld	a,#<_tableData
   0FC5 81                 6747 	add	a,c
   0FC6 F8 02              6748 	lda	hl,2(sp)
   0FC8 77                 6749 	ld	(hl),a ; 3
   0FC9 3E 31              6750 	ld	a,#>_tableData
   0FCB CE 00              6751 	adc	a,#0x00
   0FCD 23                 6752 	inc	hl
   0FCE 77                 6753 	ld	(hl),a ; 3
                           6754 ; genPlus
                           6755 ; AOP_STK for _updateDisplayValue_sloc1_1_0
                           6756 ; genPlusIncr
   0FCF 2B                 6757 	dec	hl
   0FD0 5E                 6758 	ld	e,(hl)
   0FD1 23                 6759 	inc	hl
   0FD2 56                 6760 	ld	d,(hl)
   0FD3 13                 6761 	inc	de
                           6762 ; genPointerGet
   0FD4 1A                 6763 	ld	a,(de)
   0FD5 4F                 6764 	ld	c,a
                           6765 ; genPointerGet
                           6766 ; AOP_STK for _updateDisplayValue_sloc1_1_0
   0FD6 2B                 6767 	dec	hl
   0FD7 5E                 6768 	ld	e,(hl)
   0FD8 23                 6769 	inc	hl
   0FD9 56                 6770 	ld	d,(hl)
   0FDA 1A                 6771 	ld	a,(de)
   0FDB 47                 6772 	ld	b,a
                           6773 ; genIpush
                           6774 ; AOP_STK for _updateDisplayValue_sloc2_1_0
   0FDC F8 00              6775 	lda	hl,0(sp)
   0FDE 2A                 6776 	ld	a,(hl+)
   0FDF 66                 6777 	ld	h,(hl)
   0FE0 6F                 6778 	ld	l,a
   0FE1 E5                 6779 	push	hl
                           6780 ; genIpush
   0FE2 3E 01              6781 	ld	a,#0x01
   0FE4 F5                 6782 	push	af
   0FE5 33                 6783 	inc	sp
                           6784 ; genIpush
   0FE6 3E 02              6785 	ld	a,#0x02
   0FE8 F5                 6786 	push	af
   0FE9 33                 6787 	inc	sp
                           6788 ; genIpush
   0FEA 79                 6789 	ld	a,c
   0FEB F5                 6790 	push	af
   0FEC 33                 6791 	inc	sp
                           6792 ; genIpush
   0FED 78                 6793 	ld	a,b
   0FEE F5                 6794 	push	af
   0FEF 33                 6795 	inc	sp
                           6796 ; genCall
   0FF0 CD 00 00           6797 	call	_set_bkg_tiles
   0FF3 E8 06              6798 	lda	sp,6(sp)
                           6799 ;	mGBDisplayFunctions.c 53
                           6800 ; genGoto
   0FF5 C3 F4 11           6801 	jp	00137$
                           6802 ;	mGBDisplayFunctions.c 62
                           6803 ; genLabel
   0FF8                    6804 00127$:
                           6805 ;	mGBDisplayFunctions.c 55
                           6806 ; genCmpGt
                           6807 ; AOP_STK for 
   0FF8 AF                 6808 	xor	a,a
   0FF9 3E 07              6809 	ld	a,#0x07
   0FFB F8 0B              6810 	lda	hl,11(sp)
   0FFD 9E                 6811 	sbc	a,(hl) ; 2
   0FFE D2 54 10           6812 	jp	nc,00125$
                           6813 ;	mGBDisplayFunctions.c 56
                           6814 ; genMinus
                           6815 ; AOP_STK for 
   1001 7E                 6816 	ld	a,(hl)
   1002 C6 F9              6817 	add	a,#0xF9
   1004 4F                 6818 	ld	c,a
                           6819 ; genAssign (pointer)
                           6820 ; AOP_STK for _updateDisplayValue_sloc0_1_0
   1005 F8 04              6821 	lda	hl,4(sp)
   1007 5E                 6822 	ld	e,(hl)
   1008 23                 6823 	inc	hl
   1009 56                 6824 	ld	d,(hl)
   100A 79                 6825 	ld	a,c
   100B 12                 6826 	ld	(de),a
                           6827 ;	mGBDisplayFunctions.c 57
                           6828 ; genAssign (pointer)
   100C 11 59 01           6829 	ld	de,#_bkg + 0
   100F 3E 30              6830 	ld	a,#0x30
   1011 12                 6831 	ld	(de),a
                           6832 ;	mGBDisplayFunctions.c 58
                           6833 ; genIpush
   1012 3E 03              6834 	ld	a,#0x03
   1014 F5                 6835 	push	af
   1015 33                 6836 	inc	sp
                           6837 ; genIpush
                           6838 ; AOP_STK for 
   1016 F8 0B              6839 	lda	hl,11(sp)
   1018 7E                 6840 	ld	a,(hl)
   1019 F5                 6841 	push	af
   101A 33                 6842 	inc	sp
                           6843 ; genCall
   101B CD 00 00           6844 	call	__muluchar
   101E 4B                 6845 	ld	c,e
   101F E8 02              6846 	lda	sp,2(sp)
                           6847 ; genPlus
                           6848 ; AOP_STK for _updateDisplayValue_sloc2_1_0
   1021 3E 8D              6849 	ld	a,#<_tableData
   1023 81                 6850 	add	a,c
   1024 F8 00              6851 	lda	hl,0(sp)
   1026 77                 6852 	ld	(hl),a ; 3
   1027 3E 31              6853 	ld	a,#>_tableData
   1029 CE 00              6854 	adc	a,#0x00
   102B 23                 6855 	inc	hl
   102C 77                 6856 	ld	(hl),a ; 3
                           6857 ; genPlus
                           6858 ; AOP_STK for _updateDisplayValue_sloc2_1_0
                           6859 ; genPlusIncr
   102D 2B                 6860 	dec	hl
   102E 5E                 6861 	ld	e,(hl)
   102F 23                 6862 	inc	hl
   1030 56                 6863 	ld	d,(hl)
   1031 13                 6864 	inc	de
                           6865 ; genPointerGet
   1032 1A                 6866 	ld	a,(de)
   1033 4F                 6867 	ld	c,a
                           6868 ; genPointerGet
                           6869 ; AOP_STK for _updateDisplayValue_sloc2_1_0
   1034 2B                 6870 	dec	hl
   1035 5E                 6871 	ld	e,(hl)
   1036 23                 6872 	inc	hl
   1037 56                 6873 	ld	d,(hl)
   1038 1A                 6874 	ld	a,(de)
   1039 47                 6875 	ld	b,a
                           6876 ; genIpush
   103A 21 59 01           6877 	ld	hl,#_bkg + 0
   103D E5                 6878 	push	hl
                           6879 ; genIpush
   103E 3E 01              6880 	ld	a,#0x01
   1040 F5                 6881 	push	af
   1041 33                 6882 	inc	sp
                           6883 ; genIpush
   1042 3E 02              6884 	ld	a,#0x02
   1044 F5                 6885 	push	af
   1045 33                 6886 	inc	sp
                           6887 ; genIpush
   1046 79                 6888 	ld	a,c
   1047 F5                 6889 	push	af
   1048 33                 6890 	inc	sp
                           6891 ; genIpush
   1049 78                 6892 	ld	a,b
   104A F5                 6893 	push	af
   104B 33                 6894 	inc	sp
                           6895 ; genCall
   104C CD 00 00           6896 	call	_set_bkg_tiles
   104F E8 06              6897 	lda	sp,6(sp)
                           6898 ; genGoto
   1051 C3 F4 11           6899 	jp	00137$
                           6900 ; genLabel
   1054                    6901 00125$:
                           6902 ;	mGBDisplayFunctions.c 60
                           6903 ; genPlus
                           6904 ; AOP_STK for 
                           6905 ; genPlusIncr
   1054 F8 0B              6906 	lda	hl,11(sp)
   1056 7E                 6907 	ld	a,(hl)
   1057 C6 27              6908 	add	a,#0x27
   1059 4F                 6909 	ld	c,a
                           6910 ; genAssign (pointer)
   105A 11 59 01           6911 	ld	de,#_bkg + 0
   105D 79                 6912 	ld	a,c
   105E 12                 6913 	ld	(de),a
                           6914 ;	mGBDisplayFunctions.c 61
                           6915 ; genIpush
   105F 3E 03              6916 	ld	a,#0x03
   1061 F5                 6917 	push	af
   1062 33                 6918 	inc	sp
                           6919 ; genIpush
                           6920 ; AOP_STK for 
   1063 2B                 6921 	dec	hl
   1064 7E                 6922 	ld	a,(hl)
   1065 F5                 6923 	push	af
   1066 33                 6924 	inc	sp
                           6925 ; genCall
   1067 CD 00 00           6926 	call	__muluchar
   106A 4B                 6927 	ld	c,e
   106B E8 02              6928 	lda	sp,2(sp)
                           6929 ; genPlus
                           6930 ; AOP_STK for _updateDisplayValue_sloc2_1_0
   106D 3E 8D              6931 	ld	a,#<_tableData
   106F 81                 6932 	add	a,c
   1070 F8 00              6933 	lda	hl,0(sp)
   1072 77                 6934 	ld	(hl),a ; 3
   1073 3E 31              6935 	ld	a,#>_tableData
   1075 CE 00              6936 	adc	a,#0x00
   1077 23                 6937 	inc	hl
   1078 77                 6938 	ld	(hl),a ; 3
                           6939 ; genPlus
                           6940 ; AOP_STK for _updateDisplayValue_sloc2_1_0
                           6941 ; genPlusIncr
   1079 2B                 6942 	dec	hl
   107A 5E                 6943 	ld	e,(hl)
   107B 23                 6944 	inc	hl
   107C 56                 6945 	ld	d,(hl)
   107D 13                 6946 	inc	de
                           6947 ; genPointerGet
   107E 1A                 6948 	ld	a,(de)
   107F 4F                 6949 	ld	c,a
                           6950 ; genPointerGet
                           6951 ; AOP_STK for _updateDisplayValue_sloc2_1_0
   1080 2B                 6952 	dec	hl
   1081 5E                 6953 	ld	e,(hl)
   1082 23                 6954 	inc	hl
   1083 56                 6955 	ld	d,(hl)
   1084 1A                 6956 	ld	a,(de)
   1085 47                 6957 	ld	b,a
                           6958 ; genIpush
   1086 21 59 01           6959 	ld	hl,#_bkg + 0
   1089 E5                 6960 	push	hl
                           6961 ; genIpush
   108A 3E 01              6962 	ld	a,#0x01
   108C F5                 6963 	push	af
   108D 33                 6964 	inc	sp
                           6965 ; genIpush
   108E 3E 02              6966 	ld	a,#0x02
   1090 F5                 6967 	push	af
   1091 33                 6968 	inc	sp
                           6969 ; genIpush
   1092 79                 6970 	ld	a,c
   1093 F5                 6971 	push	af
   1094 33                 6972 	inc	sp
                           6973 ; genIpush
   1095 78                 6974 	ld	a,b
   1096 F5                 6975 	push	af
   1097 33                 6976 	inc	sp
                           6977 ; genCall
   1098 CD 00 00           6978 	call	_set_bkg_tiles
   109B E8 06              6979 	lda	sp,6(sp)
                           6980 ;	mGBDisplayFunctions.c 63
                           6981 ; genGoto
   109D C3 F4 11           6982 	jp	00137$
                           6983 ;	mGBDisplayFunctions.c 65
                           6984 ; genLabel
   10A0                    6985 00128$:
                           6986 ; genRightShift
                           6987 ; AOP_STK for 
                           6988 ; shift right 	result 1, left 1
   10A0 F8 0B              6989 	lda	hl,11(sp)
   10A2 4E                 6990 	ld	c,(hl)
   10A3 CB 39              6991 	srl	c
   10A5 CB 39              6992 	srl	c
   10A7 CB 39              6993 	srl	c
   10A9 CB 39              6994 	srl	c
                           6995 ; genPlus
                           6996 ; genPlusIncr
   10AB 0C                 6997 	inc	c
                           6998 ; genAssign (pointer)
   10AC 11 59 01           6999 	ld	de,#_bkg + 0
   10AF 79                 7000 	ld	a,c
   10B0 12                 7001 	ld	(de),a
                           7002 ;	mGBDisplayFunctions.c 66
                           7003 ; genAnd
                           7004 ; AOP_STK for 
   10B1 7E                 7005 	ld	a,(hl)
   10B2 E6 0F              7006 	and	a,#0x0F
   10B4 4F                 7007 	ld	c,a
                           7008 ; genPlus
                           7009 ; genPlusIncr
   10B5 0C                 7010 	inc	c
                           7011 ; genAssign (pointer)
                           7012 ; AOP_STK for _updateDisplayValue_sloc0_1_0
   10B6 F8 04              7013 	lda	hl,4(sp)
   10B8 5E                 7014 	ld	e,(hl)
   10B9 23                 7015 	inc	hl
   10BA 56                 7016 	ld	d,(hl)
   10BB 79                 7017 	ld	a,c
   10BC 12                 7018 	ld	(de),a
                           7019 ;	mGBDisplayFunctions.c 67
                           7020 ; genIpush
   10BD 3E 03              7021 	ld	a,#0x03
   10BF F5                 7022 	push	af
   10C0 33                 7023 	inc	sp
                           7024 ; genIpush
                           7025 ; AOP_STK for 
   10C1 F8 0B              7026 	lda	hl,11(sp)
   10C3 7E                 7027 	ld	a,(hl)
   10C4 F5                 7028 	push	af
   10C5 33                 7029 	inc	sp
                           7030 ; genCall
   10C6 CD 00 00           7031 	call	__muluchar
   10C9 4B                 7032 	ld	c,e
   10CA E8 02              7033 	lda	sp,2(sp)
                           7034 ; genPlus
                           7035 ; AOP_STK for _updateDisplayValue_sloc2_1_0
   10CC 3E 8D              7036 	ld	a,#<_tableData
   10CE 81                 7037 	add	a,c
   10CF F8 00              7038 	lda	hl,0(sp)
   10D1 77                 7039 	ld	(hl),a ; 3
   10D2 3E 31              7040 	ld	a,#>_tableData
   10D4 CE 00              7041 	adc	a,#0x00
   10D6 23                 7042 	inc	hl
   10D7 77                 7043 	ld	(hl),a ; 3
                           7044 ; genPlus
                           7045 ; AOP_STK for _updateDisplayValue_sloc2_1_0
                           7046 ; genPlusIncr
   10D8 2B                 7047 	dec	hl
   10D9 5E                 7048 	ld	e,(hl)
   10DA 23                 7049 	inc	hl
   10DB 56                 7050 	ld	d,(hl)
   10DC 13                 7051 	inc	de
                           7052 ; genPointerGet
   10DD 1A                 7053 	ld	a,(de)
   10DE 4F                 7054 	ld	c,a
                           7055 ; genPointerGet
                           7056 ; AOP_STK for _updateDisplayValue_sloc2_1_0
   10DF 2B                 7057 	dec	hl
   10E0 5E                 7058 	ld	e,(hl)
   10E1 23                 7059 	inc	hl
   10E2 56                 7060 	ld	d,(hl)
   10E3 1A                 7061 	ld	a,(de)
   10E4 47                 7062 	ld	b,a
                           7063 ; genIpush
   10E5 21 59 01           7064 	ld	hl,#_bkg + 0
   10E8 E5                 7065 	push	hl
                           7066 ; genIpush
   10E9 3E 01              7067 	ld	a,#0x01
   10EB F5                 7068 	push	af
   10EC 33                 7069 	inc	sp
                           7070 ; genIpush
   10ED 3E 02              7071 	ld	a,#0x02
   10EF F5                 7072 	push	af
   10F0 33                 7073 	inc	sp
                           7074 ; genIpush
   10F1 79                 7075 	ld	a,c
   10F2 F5                 7076 	push	af
   10F3 33                 7077 	inc	sp
                           7078 ; genIpush
   10F4 78                 7079 	ld	a,b
   10F5 F5                 7080 	push	af
   10F6 33                 7081 	inc	sp
                           7082 ; genCall
   10F7 CD 00 00           7083 	call	_set_bkg_tiles
   10FA E8 06              7084 	lda	sp,6(sp)
                           7085 ;	mGBDisplayFunctions.c 68
                           7086 ; genGoto
   10FC C3 F4 11           7087 	jp	00137$
                           7088 ;	mGBDisplayFunctions.c 70
                           7089 ; genLabel
   10FF                    7090 00129$:
                           7091 ; genRightShift
                           7092 ; AOP_STK for 
                           7093 ; shift right 	result 1, left 1
   10FF F8 0B              7094 	lda	hl,11(sp)
   1101 4E                 7095 	ld	c,(hl)
   1102 CB 39              7096 	srl	c
   1104 CB 39              7097 	srl	c
   1106 CB 39              7098 	srl	c
   1108 CB 39              7099 	srl	c
                           7100 ; genPlus
                           7101 ; genPlusIncr
   110A 0C                 7102 	inc	c
                           7103 ; genAssign (pointer)
   110B 11 59 01           7104 	ld	de,#_bkg + 0
   110E 79                 7105 	ld	a,c
   110F 12                 7106 	ld	(de),a
                           7107 ;	mGBDisplayFunctions.c 71
                           7108 ; genAnd
                           7109 ; AOP_STK for 
   1110 7E                 7110 	ld	a,(hl)
   1111 E6 0F              7111 	and	a,#0x0F
   1113 4F                 7112 	ld	c,a
                           7113 ; genPlus
                           7114 ; genPlusIncr
   1114 0C                 7115 	inc	c
                           7116 ; genAssign (pointer)
                           7117 ; AOP_STK for _updateDisplayValue_sloc0_1_0
   1115 F8 04              7118 	lda	hl,4(sp)
   1117 5E                 7119 	ld	e,(hl)
   1118 23                 7120 	inc	hl
   1119 56                 7121 	ld	d,(hl)
   111A 79                 7122 	ld	a,c
   111B 12                 7123 	ld	(de),a
                           7124 ;	mGBDisplayFunctions.c 72
                           7125 ; genIpush
   111C 3E 03              7126 	ld	a,#0x03
   111E F5                 7127 	push	af
   111F 33                 7128 	inc	sp
                           7129 ; genIpush
                           7130 ; AOP_STK for 
   1120 F8 0B              7131 	lda	hl,11(sp)
   1122 7E                 7132 	ld	a,(hl)
   1123 F5                 7133 	push	af
   1124 33                 7134 	inc	sp
                           7135 ; genCall
   1125 CD 00 00           7136 	call	__muluchar
   1128 4B                 7137 	ld	c,e
   1129 E8 02              7138 	lda	sp,2(sp)
                           7139 ; genPlus
                           7140 ; AOP_STK for _updateDisplayValue_sloc2_1_0
   112B 3E 8D              7141 	ld	a,#<_tableData
   112D 81                 7142 	add	a,c
   112E F8 00              7143 	lda	hl,0(sp)
   1130 77                 7144 	ld	(hl),a ; 3
   1131 3E 31              7145 	ld	a,#>_tableData
   1133 CE 00              7146 	adc	a,#0x00
   1135 23                 7147 	inc	hl
   1136 77                 7148 	ld	(hl),a ; 3
                           7149 ; genPlus
                           7150 ; AOP_STK for _updateDisplayValue_sloc2_1_0
                           7151 ; genPlusIncr
   1137 2B                 7152 	dec	hl
   1138 5E                 7153 	ld	e,(hl)
   1139 23                 7154 	inc	hl
   113A 56                 7155 	ld	d,(hl)
   113B 13                 7156 	inc	de
                           7157 ; genPointerGet
   113C 1A                 7158 	ld	a,(de)
   113D 4F                 7159 	ld	c,a
                           7160 ; genPointerGet
                           7161 ; AOP_STK for _updateDisplayValue_sloc2_1_0
   113E 2B                 7162 	dec	hl
   113F 5E                 7163 	ld	e,(hl)
   1140 23                 7164 	inc	hl
   1141 56                 7165 	ld	d,(hl)
   1142 1A                 7166 	ld	a,(de)
   1143 47                 7167 	ld	b,a
                           7168 ; genIpush
   1144 21 59 01           7169 	ld	hl,#_bkg + 0
   1147 E5                 7170 	push	hl
                           7171 ; genIpush
   1148 3E 01              7172 	ld	a,#0x01
   114A F5                 7173 	push	af
   114B 33                 7174 	inc	sp
                           7175 ; genIpush
   114C 3E 02              7176 	ld	a,#0x02
   114E F5                 7177 	push	af
   114F 33                 7178 	inc	sp
                           7179 ; genIpush
   1150 79                 7180 	ld	a,c
   1151 F5                 7181 	push	af
   1152 33                 7182 	inc	sp
                           7183 ; genIpush
   1153 78                 7184 	ld	a,b
   1154 F5                 7185 	push	af
   1155 33                 7186 	inc	sp
                           7187 ; genCall
   1156 CD 00 00           7188 	call	_set_bkg_tiles
   1159 E8 06              7189 	lda	sp,6(sp)
                           7190 ;	mGBDisplayFunctions.c 73
                           7191 ; genGoto
   115B C3 F4 11           7192 	jp	00137$
                           7193 ;	mGBDisplayFunctions.c 75
                           7194 ; genLabel
   115E                    7195 00130$:
                           7196 ; genPlus
                           7197 ; AOP_STK for 
                           7198 ; genPlusIncr
   115E F8 0B              7199 	lda	hl,11(sp)
   1160 7E                 7200 	ld	a,(hl)
   1161 C6 01              7201 	add	a,#0x01
   1163 4F                 7202 	ld	c,a
                           7203 ; genAssign (pointer)
   1164 11 59 01           7204 	ld	de,#_bkg + 0
   1167 79                 7205 	ld	a,c
   1168 12                 7206 	ld	(de),a
                           7207 ; genIpush
   1169 3E 03              7208 	ld	a,#0x03
   116B F5                 7209 	push	af
   116C 33                 7210 	inc	sp
                           7211 ; genIpush
                           7212 ; AOP_STK for 
   116D 2B                 7213 	dec	hl
   116E 7E                 7214 	ld	a,(hl)
   116F F5                 7215 	push	af
   1170 33                 7216 	inc	sp
                           7217 ; genCall
   1171 CD 00 00           7218 	call	__muluchar
   1174 4B                 7219 	ld	c,e
   1175 E8 02              7220 	lda	sp,2(sp)
                           7221 ; genPlus
                           7222 ; AOP_STK for _updateDisplayValue_sloc2_1_0
   1177 3E 8D              7223 	ld	a,#<_tableData
   1179 81                 7224 	add	a,c
   117A F8 00              7225 	lda	hl,0(sp)
   117C 77                 7226 	ld	(hl),a ; 3
   117D 3E 31              7227 	ld	a,#>_tableData
   117F CE 00              7228 	adc	a,#0x00
   1181 23                 7229 	inc	hl
   1182 77                 7230 	ld	(hl),a ; 3
                           7231 ; genPlus
                           7232 ; AOP_STK for _updateDisplayValue_sloc2_1_0
                           7233 ; genPlusIncr
   1183 2B                 7234 	dec	hl
   1184 5E                 7235 	ld	e,(hl)
   1185 23                 7236 	inc	hl
   1186 56                 7237 	ld	d,(hl)
   1187 13                 7238 	inc	de
                           7239 ; genPointerGet
   1188 1A                 7240 	ld	a,(de)
   1189 4F                 7241 	ld	c,a
                           7242 ; genPointerGet
                           7243 ; AOP_STK for _updateDisplayValue_sloc2_1_0
   118A 2B                 7244 	dec	hl
   118B 5E                 7245 	ld	e,(hl)
   118C 23                 7246 	inc	hl
   118D 56                 7247 	ld	d,(hl)
   118E 1A                 7248 	ld	a,(de)
   118F 47                 7249 	ld	b,a
                           7250 ; genIpush
   1190 21 59 01           7251 	ld	hl,#_bkg + 0
   1193 E5                 7252 	push	hl
                           7253 ; genIpush
   1194 3E 01              7254 	ld	a,#0x01
   1196 F5                 7255 	push	af
   1197 33                 7256 	inc	sp
                           7257 ; genIpush
   1198 3E 02              7258 	ld	a,#0x02
   119A F5                 7259 	push	af
   119B 33                 7260 	inc	sp
                           7261 ; genIpush
   119C 79                 7262 	ld	a,c
   119D F5                 7263 	push	af
   119E 33                 7264 	inc	sp
                           7265 ; genIpush
   119F 78                 7266 	ld	a,b
   11A0 F5                 7267 	push	af
   11A1 33                 7268 	inc	sp
                           7269 ; genCall
   11A2 CD 00 00           7270 	call	_set_bkg_tiles
   11A5 E8 06              7271 	lda	sp,6(sp)
                           7272 ;	mGBDisplayFunctions.c 76
                           7273 ; genGoto
   11A7 C3 F4 11           7274 	jp	00137$
                           7275 ;	mGBDisplayFunctions.c 81
                           7276 ; genLabel
   11AA                    7277 00134$:
                           7278 ; genLabel
   11AA                    7279 00133$:
                           7280 ; genLabel
   11AA                    7281 00132$:
                           7282 ; genLabel
   11AA                    7283 00131$:
                           7284 ; genAnd
                           7285 ; AOP_STK for 
   11AA F8 0B              7286 	lda	hl,11(sp)
   11AC 7E                 7287 	ld	a,(hl)
   11AD E6 0F              7288 	and	a,#0x0F
   11AF 4F                 7289 	ld	c,a
                           7290 ; genPlus
                           7291 ; genPlusIncr
   11B0 0C                 7292 	inc	c
                           7293 ; genAssign (pointer)
   11B1 11 59 01           7294 	ld	de,#_bkg + 0
   11B4 79                 7295 	ld	a,c
   11B5 12                 7296 	ld	(de),a
                           7297 ;	mGBDisplayFunctions.c 82
                           7298 ; genIpush
   11B6 3E 03              7299 	ld	a,#0x03
   11B8 F5                 7300 	push	af
   11B9 33                 7301 	inc	sp
                           7302 ; genIpush
                           7303 ; AOP_STK for 
   11BA 2B                 7304 	dec	hl
   11BB 7E                 7305 	ld	a,(hl)
   11BC F5                 7306 	push	af
   11BD 33                 7307 	inc	sp
                           7308 ; genCall
   11BE CD 00 00           7309 	call	__muluchar
   11C1 4B                 7310 	ld	c,e
   11C2 E8 02              7311 	lda	sp,2(sp)
                           7312 ; genPlus
                           7313 ; AOP_STK for _updateDisplayValue_sloc2_1_0
   11C4 3E 8D              7314 	ld	a,#<_tableData
   11C6 81                 7315 	add	a,c
   11C7 F8 00              7316 	lda	hl,0(sp)
   11C9 77                 7317 	ld	(hl),a ; 3
   11CA 3E 31              7318 	ld	a,#>_tableData
   11CC CE 00              7319 	adc	a,#0x00
   11CE 23                 7320 	inc	hl
   11CF 77                 7321 	ld	(hl),a ; 3
                           7322 ; genPlus
                           7323 ; AOP_STK for _updateDisplayValue_sloc2_1_0
                           7324 ; genPlusIncr
   11D0 2B                 7325 	dec	hl
   11D1 5E                 7326 	ld	e,(hl)
   11D2 23                 7327 	inc	hl
   11D3 56                 7328 	ld	d,(hl)
   11D4 13                 7329 	inc	de
                           7330 ; genPointerGet
   11D5 1A                 7331 	ld	a,(de)
   11D6 4F                 7332 	ld	c,a
                           7333 ; genPointerGet
                           7334 ; AOP_STK for _updateDisplayValue_sloc2_1_0
   11D7 2B                 7335 	dec	hl
   11D8 5E                 7336 	ld	e,(hl)
   11D9 23                 7337 	inc	hl
   11DA 56                 7338 	ld	d,(hl)
   11DB 1A                 7339 	ld	a,(de)
   11DC 47                 7340 	ld	b,a
                           7341 ; genIpush
   11DD 21 59 01           7342 	ld	hl,#_bkg + 0
   11E0 E5                 7343 	push	hl
                           7344 ; genIpush
   11E1 3E 01              7345 	ld	a,#0x01
   11E3 F5                 7346 	push	af
   11E4 33                 7347 	inc	sp
                           7348 ; genIpush
   11E5 3E 02              7349 	ld	a,#0x02
   11E7 F5                 7350 	push	af
   11E8 33                 7351 	inc	sp
                           7352 ; genIpush
   11E9 79                 7353 	ld	a,c
   11EA F5                 7354 	push	af
   11EB 33                 7355 	inc	sp
                           7356 ; genIpush
   11EC 78                 7357 	ld	a,b
   11ED F5                 7358 	push	af
   11EE 33                 7359 	inc	sp
                           7360 ; genCall
   11EF CD 00 00           7361 	call	_set_bkg_tiles
   11F2 E8 06              7362 	lda	sp,6(sp)
                           7363 ;	mGBDisplayFunctions.c 86
                           7364 ; genLabel
   11F4                    7365 00137$:
                           7366 ; genEndFunction
   11F4 E8 06              7367 	lda	sp,6(sp)
   11F6 C1                 7368 	pop bc
   11F7 C9                 7369 	ret
   11F8                    7370 ___updateDisplayValue_end:
                           7371 ;	mGBDisplayFunctions.c 89
                           7372 ; genLabel
                           7373 ; genFunction
                           7374 ;	---------------------------------
                           7375 ; Function updateDisplaySynth
                           7376 ; ---------------------------------
   11F8                    7377 ___updateDisplaySynth_start:
   11F8                    7378 _updateDisplaySynth:
   11F8 C5                 7379 	push	bc
   11F9 E8 FE              7380 	lda sp,-2(sp)
                           7381 ;	mGBDisplayFunctions.c 92
                           7382 ; genAssign
                           7383 ; AOP_HL for _i
   11FB 21 32 01           7384 	ld	hl,#_i + 0
   11FE 36 00              7385 	ld	(hl),#0x00
                           7386 ; genLabel
   1200                    7387 00103$:
                           7388 ; genCmpEq
                           7389 ; AOP_HL for _i
   1200 21 32 01           7390 	ld	hl,#_i + 0
   1203 7E                 7391 	ld	a,(hl) ; 2
   1204 FE 09              7392 	cp	a,#0x09
                           7393 ; Rule 5
   1206 CA 78 12           7394 	jp	z,00107$
   1209                    7395 00112$:
                           7396 ;	mGBDisplayFunctions.c 93
                           7397 ; genIpush
   1209 3E 09              7398 	ld	a,#0x09
   120B F5                 7399 	push	af
   120C 33                 7400 	inc	sp
                           7401 ; genIpush
                           7402 ; AOP_HL for _updateDisplaySynthCounter
   120D 21 05 00           7403 	ld	hl,#_updateDisplaySynthCounter + 0
   1210 7E                 7404 	ld	a,(hl)
   1211 F5                 7405 	push	af
   1212 33                 7406 	inc	sp
                           7407 ; genCall
   1213 CD 00 00           7408 	call	__muluchar
   1216 4B                 7409 	ld	c,e
   1217 E8 02              7410 	lda	sp,2(sp)
                           7411 ; genPlus
                           7412 ; AOP_STK for _updateDisplaySynth_sloc0_1_0
   1219 3E 69              7413 	ld	a,#<_tableCursorLookup
   121B 81                 7414 	add	a,c
   121C F8 00              7415 	lda	hl,0(sp)
   121E 77                 7416 	ld	(hl),a ; 3
   121F 3E 31              7417 	ld	a,#>_tableCursorLookup
   1221 CE 00              7418 	adc	a,#0x00
   1223 23                 7419 	inc	hl
   1224 77                 7420 	ld	(hl),a ; 3
                           7421 ; genAssign
                           7422 ; AOP_HL for _i
   1225 21 32 01           7423 	ld	hl,#_i + 0
   1228 4E                 7424 	ld	c,(hl)
                           7425 ; genPlus
                           7426 ; AOP_STK for _updateDisplaySynth_sloc0_1_0
   1229 F8 00              7427 	lda	hl,0(sp)
   122B 7E                 7428 	ld	a,(hl)
   122C 81                 7429 	add	a,c
   122D 5F                 7430 	ld	e,a
   122E 23                 7431 	inc	hl
   122F 7E                 7432 	ld	a,(hl)
   1230 CE 00              7433 	adc	a,#0x00
   1232 57                 7434 	ld	d,a
                           7435 ; genPointerGet
   1233 1A                 7436 	ld	a,(de)
   1234 4F                 7437 	ld	c,a
                           7438 ; genCmpEq
   1235 79                 7439 	ld	a,c ; 2
   1236 FE FF              7440 	cp	a,#0xFF
                           7441 ; Rule 5
   1238 CA 71 12           7442 	jp	z,00105$
   123B                    7443 00113$:
                           7444 ;	mGBDisplayFunctions.c 94
                           7445 ; genAssign
                           7446 ; AOP_HL for _i
   123B 21 32 01           7447 	ld	hl,#_i + 0
   123E 4E                 7448 	ld	c,(hl)
                           7449 ; genPlus
                           7450 ; AOP_STK for _updateDisplaySynth_sloc0_1_0
   123F F8 00              7451 	lda	hl,0(sp)
   1241 7E                 7452 	ld	a,(hl)
   1242 81                 7453 	add	a,c
   1243 5F                 7454 	ld	e,a
   1244 23                 7455 	inc	hl
   1245 7E                 7456 	ld	a,(hl)
   1246 CE 00              7457 	adc	a,#0x00
   1248 57                 7458 	ld	d,a
                           7459 ; genPointerGet
   1249 1A                 7460 	ld	a,(de)
   124A 4F                 7461 	ld	c,a
                           7462 ; genPlus
   124B 3E CF              7463 	ld	a,#<_dataSet
   124D 81                 7464 	add	a,c
   124E 5F                 7465 	ld	e,a
   124F 3E 01              7466 	ld	a,#>_dataSet
   1251 CE 00              7467 	adc	a,#0x00
   1253 57                 7468 	ld	d,a
                           7469 ; genPointerGet
   1254 1A                 7470 	ld	a,(de)
   1255 4F                 7471 	ld	c,a
                           7472 ; genAssign
                           7473 ; AOP_HL for _i
   1256 21 32 01           7474 	ld	hl,#_i + 0
   1259 46                 7475 	ld	b,(hl)
                           7476 ; genPlus
                           7477 ; AOP_STK for _updateDisplaySynth_sloc0_1_0
   125A F8 00              7478 	lda	hl,0(sp)
   125C 7E                 7479 	ld	a,(hl)
   125D 80                 7480 	add	a,b
   125E 5F                 7481 	ld	e,a
   125F 23                 7482 	inc	hl
   1260 7E                 7483 	ld	a,(hl)
   1261 CE 00              7484 	adc	a,#0x00
   1263 57                 7485 	ld	d,a
                           7486 ; genPointerGet
   1264 1A                 7487 	ld	a,(de)
   1265 47                 7488 	ld	b,a
                           7489 ; genIpush
   1266 79                 7490 	ld	a,c
   1267 F5                 7491 	push	af
   1268 33                 7492 	inc	sp
                           7493 ; genIpush
   1269 78                 7494 	ld	a,b
   126A F5                 7495 	push	af
   126B 33                 7496 	inc	sp
                           7497 ; genCall
   126C CD 36 0D           7498 	call	_updateDisplayValue
   126F E8 02              7499 	lda	sp,2(sp)
                           7500 ; genLabel
   1271                    7501 00105$:
                           7502 ;	mGBDisplayFunctions.c 92
                           7503 ; genPlus
                           7504 ; AOP_HL for _i
                           7505 ; genPlusIncr
   1271 21 32 01           7506 	ld	hl,#_i + 0
   1274 34                 7507 	inc	(hl)
                           7508 ; genGoto
   1275 C3 00 12           7509 	jp	00103$
                           7510 ; genLabel
   1278                    7511 00107$:
                           7512 ; genEndFunction
   1278 E8 02              7513 	lda	sp,2(sp)
   127A C1                 7514 	pop bc
   127B C9                 7515 	ret
   127C                    7516 ___updateDisplaySynth_end:
                           7517 ;	mGBDisplayFunctions.c 99
                           7518 ; genLabel
                           7519 ; genFunction
                           7520 ;	---------------------------------
                           7521 ; Function updateDisplay
                           7522 ; ---------------------------------
   127C                    7523 ___updateDisplay_start:
   127C                    7524 _updateDisplay:
   127C C5                 7525 	push	bc
   127D E8 F2              7526 	lda sp,-14(sp)
                           7527 ;	mGBDisplayFunctions.c 102
                           7528 ; genAssign
                           7529 ; AOP_HL for _j
   127F 21 34 01           7530 	ld	hl,#_j + 0
   1282 36 00              7531 	ld	(hl),#0x00
                           7532 ; genLabel
   1284                    7533 00107$:
                           7534 ; genCmpEq
                           7535 ; AOP_HL for _j
   1284 21 34 01           7536 	ld	hl,#_j + 0
   1287 7E                 7537 	ld	a,(hl) ; 2
   1288 FE 04              7538 	cp	a,#0x04
                           7539 ; Rule 5
   128A CA 6D 13           7540 	jp	z,00111$
   128D                    7541 00118$:
                           7542 ;	mGBDisplayFunctions.c 103
                           7543 ; genAssign
                           7544 ; AOP_HL for _i
   128D 21 32 01           7545 	ld	hl,#_i + 0
   1290 36 00              7546 	ld	(hl),#0x00
                           7547 ; genLabel
   1292                    7548 00103$:
                           7549 ; genCmpEq
                           7550 ; AOP_HL for _i
                           7551 ; AOP_STK for _updateDisplay_sloc0_1_0
   1292 21 32 01           7552 	ld	hl,#_i + 0
   1295 7E                 7553 	ld	a,(hl) ; 2
   1296 FE 09              7554 	cp	a,#0x09
   1298 C2 9F 12           7555 	jp	nz,00119$
   129B 3E 01              7556 	ld	a,#0x01
   129D 18 01              7557 	jr	00120$
   129F                    7558 00119$:
   129F AF                 7559 	xor	a,a
   12A0                    7560 00120$:
   12A0 F8 0D              7561 	lda	hl,13(sp)
   12A2 77                 7562 	ld	(hl),a ; 3
                           7563 ; genIfx
                           7564 ; AOP_STK for _updateDisplay_sloc0_1_0
                           7565 ; Removed redundent or a,a
   12A3 AF                 7566 	xor	a,a
   12A4 B6                 7567 	or	a,(hl)
   12A5 C2 66 13           7568 	jp	nz,00109$
                           7569 ;	mGBDisplayFunctions.c 104
                           7570 ; genIpush
   12A8 3E 09              7571 	ld	a,#0x09
   12AA F5                 7572 	push	af
   12AB 33                 7573 	inc	sp
                           7574 ; genIpush
                           7575 ; AOP_HL for _j
   12AC 21 34 01           7576 	ld	hl,#_j + 0
   12AF 7E                 7577 	ld	a,(hl)
   12B0 F5                 7578 	push	af
   12B1 33                 7579 	inc	sp
                           7580 ; genCall
   12B2 CD 00 00           7581 	call	__muluchar
                           7582 ; AOP_STK for _updateDisplay_sloc3_1_0
   12B5 F8 0B              7583 	lda	hl,11(sp)
   12B7 73                 7584 	ld	(hl),e ; 3
   12B8 E8 02              7585 	lda	sp,2(sp)
                           7586 ; genPlus
                           7587 ; AOP_STK for _updateDisplay_sloc3_1_0
                           7588 ; AOP_STK for _updateDisplay_sloc1_1_0
   12BA 3E 69              7589 	ld	a,#<_tableCursorLookup
   12BC 86                 7590 	add	a,(hl)
   12BD 23                 7591 	inc	hl
   12BE 23                 7592 	inc	hl
   12BF 77                 7593 	ld	(hl),a ; 3
   12C0 3E 31              7594 	ld	a,#>_tableCursorLookup
   12C2 CE 00              7595 	adc	a,#0x00
   12C4 23                 7596 	inc	hl
   12C5 77                 7597 	ld	(hl),a ; 3
                           7598 ; genAssign
                           7599 ; AOP_HL for _i
                           7600 ; AOP_STK for _updateDisplay_sloc2_1_0
   12C6 21 32 01           7601 	ld	hl,#_i + 0
   12C9 7E                 7602 	ld	a,(hl)
   12CA F8 0A              7603 	lda	hl,10(sp)
   12CC 77                 7604 	ld	(hl),a ; 3
                           7605 ; genPlus
                           7606 ; AOP_STK for _updateDisplay_sloc1_1_0
                           7607 ; AOP_STK for _updateDisplay_sloc2_1_0
   12CD 23                 7608 	inc	hl
   12CE 7E                 7609 	ld	a,(hl)
   12CF 2B                 7610 	dec	hl
   12D0 86                 7611 	add	a,(hl)
   12D1 5F                 7612 	ld	e,a
   12D2 23                 7613 	inc	hl
   12D3 23                 7614 	inc	hl
   12D4 7E                 7615 	ld	a,(hl)
   12D5 CE 00              7616 	adc	a,#0x00
   12D7 57                 7617 	ld	d,a
                           7618 ; genPointerGet
                           7619 ; AOP_STK for _updateDisplay_sloc12_1_0
   12D8 1A                 7620 	ld	a,(de)
   12D9 F8 00              7621 	lda	hl,0(sp)
   12DB 77                 7622 	ld	(hl),a ; 3
                           7623 ; genCmpEq
                           7624 ; AOP_STK for _updateDisplay_sloc12_1_0
                           7625 ; AOP_STK for _updateDisplay_sloc4_1_0
   12DC 7E                 7626 	ld	a,(hl) ; 2
   12DD FE FF              7627 	cp	a,#0xFF
   12DF C2 E6 12           7628 	jp	nz,00121$
   12E2 3E 01              7629 	ld	a,#0x01
   12E4 18 01              7630 	jr	00122$
   12E6                    7631 00121$:
   12E6 AF                 7632 	xor	a,a
   12E7                    7633 00122$:
   12E7 F8 08              7634 	lda	hl,8(sp)
   12E9 77                 7635 	ld	(hl),a ; 3
                           7636 ; genIfx
                           7637 ; AOP_STK for _updateDisplay_sloc4_1_0
                           7638 ; Removed redundent or a,a
   12EA AF                 7639 	xor	a,a
   12EB B6                 7640 	or	a,(hl)
   12EC C2 5A 13           7641 	jp	nz,00105$
                           7642 ;	mGBDisplayFunctions.c 106
                           7643 ; genAssign
                           7644 ; AOP_HL for _i
                           7645 ; AOP_STK for _updateDisplay_sloc5_1_0
   12EF 21 32 01           7646 	ld	hl,#_i + 0
   12F2 7E                 7647 	ld	a,(hl)
   12F3 F8 07              7648 	lda	hl,7(sp)
   12F5 77                 7649 	ld	(hl),a ; 3
                           7650 ; genPlus
                           7651 ; AOP_STK for _updateDisplay_sloc1_1_0
                           7652 ; AOP_STK for _updateDisplay_sloc5_1_0
   12F6 F8 0B              7653 	lda	hl,11(sp)
   12F8 7E                 7654 	ld	a,(hl)
   12F9 F8 07              7655 	lda	hl,7(sp)
   12FB 86                 7656 	add	a,(hl)
   12FC 5F                 7657 	ld	e,a
   12FD F8 0C              7658 	lda	hl,12(sp)
   12FF 7E                 7659 	ld	a,(hl)
   1300 CE 00              7660 	adc	a,#0x00
   1302 57                 7661 	ld	d,a
                           7662 ; genPointerGet
                           7663 ; AOP_STK for _updateDisplay_sloc6_1_0
   1303 1A                 7664 	ld	a,(de)
   1304 F8 06              7665 	lda	hl,6(sp)
   1306 77                 7666 	ld	(hl),a ; 3
                           7667 ; genPlus
                           7668 ; AOP_STK for _updateDisplay_sloc6_1_0
   1307 3E CF              7669 	ld	a,#<_dataSet
   1309 86                 7670 	add	a,(hl)
   130A 5F                 7671 	ld	e,a
   130B 3E 01              7672 	ld	a,#>_dataSet
   130D CE 00              7673 	adc	a,#0x00
   130F 57                 7674 	ld	d,a
                           7675 ; genPointerGet
                           7676 ; AOP_STK for _updateDisplay_sloc7_1_0
   1310 1A                 7677 	ld	a,(de)
   1311 2B                 7678 	dec	hl
   1312 77                 7679 	ld	(hl),a ; 3
                           7680 ; genAssign
                           7681 ; AOP_HL for _i
                           7682 ; AOP_STK for _updateDisplay_sloc8_1_0
   1313 21 32 01           7683 	ld	hl,#_i + 0
   1316 7E                 7684 	ld	a,(hl)
   1317 F8 04              7685 	lda	hl,4(sp)
   1319 77                 7686 	ld	(hl),a ; 3
                           7687 ; genPlus
                           7688 ; AOP_STK for _updateDisplay_sloc1_1_0
                           7689 ; AOP_STK for _updateDisplay_sloc8_1_0
   131A F8 0B              7690 	lda	hl,11(sp)
   131C 7E                 7691 	ld	a,(hl)
   131D F8 04              7692 	lda	hl,4(sp)
   131F 86                 7693 	add	a,(hl)
   1320 5F                 7694 	ld	e,a
   1321 F8 0C              7695 	lda	hl,12(sp)
   1323 7E                 7696 	ld	a,(hl)
   1324 CE 00              7697 	adc	a,#0x00
   1326 57                 7698 	ld	d,a
                           7699 ; genPointerGet
                           7700 ; AOP_STK for _updateDisplay_sloc9_1_0
   1327 1A                 7701 	ld	a,(de)
   1328 F8 03              7702 	lda	hl,3(sp)
   132A 77                 7703 	ld	(hl),a ; 3
                           7704 ; genIpush
                           7705 ; AOP_STK for _updateDisplay_sloc7_1_0
   132B 23                 7706 	inc	hl
   132C 23                 7707 	inc	hl
   132D 7E                 7708 	ld	a,(hl)
   132E F5                 7709 	push	af
   132F 33                 7710 	inc	sp
                           7711 ; genIpush
                           7712 ; AOP_STK for _updateDisplay_sloc9_1_0
   1330 2B                 7713 	dec	hl
   1331 2B                 7714 	dec	hl
   1332 7E                 7715 	ld	a,(hl)
   1333 F5                 7716 	push	af
   1334 33                 7717 	inc	sp
                           7718 ; genCall
   1335 CD 36 0D           7719 	call	_updateDisplayValue
   1338 E8 02              7720 	lda	sp,2(sp)
                           7721 ;	mGBDisplayFunctions.c 107
                           7722 ; genAssign
                           7723 ; AOP_HL for _i
                           7724 ; AOP_STK for _updateDisplay_sloc10_1_0
   133A 21 32 01           7725 	ld	hl,#_i + 0
   133D 7E                 7726 	ld	a,(hl)
   133E F8 02              7727 	lda	hl,2(sp)
   1340 77                 7728 	ld	(hl),a ; 3
                           7729 ; genPlus
                           7730 ; AOP_STK for _updateDisplay_sloc1_1_0
                           7731 ; AOP_STK for _updateDisplay_sloc10_1_0
   1341 F8 0B              7732 	lda	hl,11(sp)
   1343 7E                 7733 	ld	a,(hl)
   1344 F8 02              7734 	lda	hl,2(sp)
   1346 86                 7735 	add	a,(hl)
   1347 5F                 7736 	ld	e,a
   1348 F8 0C              7737 	lda	hl,12(sp)
   134A 7E                 7738 	ld	a,(hl)
   134B CE 00              7739 	adc	a,#0x00
   134D 57                 7740 	ld	d,a
                           7741 ; genPointerGet
                           7742 ; AOP_STK for _updateDisplay_sloc11_1_0
   134E 1A                 7743 	ld	a,(de)
   134F F8 01              7744 	lda	hl,1(sp)
   1351 77                 7745 	ld	(hl),a ; 3
                           7746 ; genIpush
                           7747 ; AOP_STK for _updateDisplay_sloc11_1_0
   1352 7E                 7748 	ld	a,(hl)
   1353 F5                 7749 	push	af
   1354 33                 7750 	inc	sp
                           7751 ; genCall
   1355 CD 71 07           7752 	call	_updateValueSynth
   1358 E8 01              7753 	lda	sp,1(sp)
                           7754 ; genLabel
   135A                    7755 00105$:
                           7756 ;	mGBDisplayFunctions.c 103
                           7757 ; genPlus
                           7758 ; AOP_HL for _i
                           7759 ; genPlusIncr
   135A 21 32 01           7760 	ld	hl,#_i + 0
   135D 7E                 7761 	ld	a,(hl)
   135E C6 01              7762 	add	a,#0x01
   1360 47                 7763 	ld	b,a
                           7764 ; genAssign
   1361 48                 7765 	ld	c,b
                           7766 ; genAssign
                           7767 ; AOP_HL for _i
   1362 71                 7768 	ld	(hl),c
                           7769 ; genGoto
   1363 C3 92 12           7770 	jp	00103$
                           7771 ; genLabel
   1366                    7772 00109$:
                           7773 ;	mGBDisplayFunctions.c 102
                           7774 ; genPlus
                           7775 ; AOP_HL for _j
                           7776 ; genPlusIncr
   1366 21 34 01           7777 	ld	hl,#_j + 0
   1369 34                 7778 	inc	(hl)
                           7779 ; genGoto
   136A C3 84 12           7780 	jp	00107$
                           7781 ; genLabel
   136D                    7782 00111$:
                           7783 ; genEndFunction
   136D E8 0E              7784 	lda	sp,14(sp)
   136F C1                 7785 	pop bc
   1370 C9                 7786 	ret
   1371                    7787 ___updateDisplay_end:
                           7788 ;	mGBDisplayFunctions.c 113
                           7789 ; genLabel
                           7790 ; genFunction
                           7791 ;	---------------------------------
                           7792 ; Function setCursor
                           7793 ; ---------------------------------
   1371                    7794 ___setCursor_start:
   1371                    7795 _setCursor:
   1371 C5                 7796 	push	bc
   1372 E8 FD              7797 	lda sp,-3(sp)
                           7798 ;	mGBDisplayFunctions.c 115
                           7799 ; genCmpEq
                           7800 ; AOP_HL for _cursorColumnLast
                           7801 ; AOP_HL for _cursorColumn
   1374 21 72 01           7802 	ld	hl,#_cursorColumn + 0
   1377 7E                 7803 	ld	a,(hl)
   1378 21 87 01           7804 	ld	hl,#_cursorColumnLast + 0
   137B BE                 7805 	cp	(hl) ; 5
   137C 20 03              7806 	jr	nz,00153$
   137E C3 CB 13           7807 	jp	00108$
   1381                    7808 00153$:
                           7809 ;	mGBDisplayFunctions.c 116
                           7810 ; genCmpGt
                           7811 ; AOP_HL for _cursorColumn
   1381 AF                 7812 	xor	a,a
   1382 3E F0              7813 	ld	a,#0xF0
   1384 21 72 01           7814 	ld	hl,#_cursorColumn + 0
   1387 9E                 7815 	sbc	a,(hl) ; 2
   1388 D2 8D 13           7816 	jp	nc,00102$
                           7817 ; genAssign
                           7818 ; AOP_HL for _cursorColumn
   138B 36 03              7819 	ld	(hl),#0x03
                           7820 ; genLabel
   138D                    7821 00102$:
                           7822 ;	mGBDisplayFunctions.c 117
                           7823 ; genCmpGt
                           7824 ; AOP_HL for _cursorColumn
   138D AF                 7825 	xor	a,a
   138E 3E 03              7826 	ld	a,#0x03
   1390 21 72 01           7827 	ld	hl,#_cursorColumn + 0
   1393 9E                 7828 	sbc	a,(hl) ; 2
   1394 D2 99 13           7829 	jp	nc,00104$
                           7830 ; genAssign
                           7831 ; AOP_HL for _cursorColumn
   1397 36 00              7832 	ld	(hl),#0x00
                           7833 ; genLabel
   1399                    7834 00104$:
                           7835 ;	mGBDisplayFunctions.c 118
                           7836 ; genAssign
                           7837 ; AOP_HL for _cursorColumn
   1399 21 72 01           7838 	ld	hl,#_cursorColumn + 0
   139C 4E                 7839 	ld	c,(hl)
                           7840 ; genPlus
   139D 3E 6E              7841 	ld	a,#<_cursorEnable
   139F 81                 7842 	add	a,c
   13A0 5F                 7843 	ld	e,a
   13A1 3E 01              7844 	ld	a,#>_cursorEnable
   13A3 CE 00              7845 	adc	a,#0x00
   13A5 57                 7846 	ld	d,a
                           7847 ; genAssign (pointer)
   13A6 3E 01              7848 	ld	a,#0x01
   13A8 12                 7849 	ld	(de),a
                           7850 ;	mGBDisplayFunctions.c 119
                           7851 ; genPlus
                           7852 ; genPlusIncr
   13A9 11 3D 01           7853 	ld	de,#_joyState + 6
                           7854 ; genPointerGet
   13AC 1A                 7855 	ld	a,(de)
   13AD 4F                 7856 	ld	c,a
                           7857 ; genIfx
                           7858 ; Removed redundent or a,a
   13AE AF                 7859 	xor	a,a
   13AF B1                 7860 	or	a,c
   13B0 C2 C3 13           7861 	jp	nz,00106$
                           7862 ;	mGBDisplayFunctions.c 120
                           7863 ; genAssign
                           7864 ; AOP_HL for _cursorColumnLast
   13B3 21 87 01           7865 	ld	hl,#_cursorColumnLast + 0
   13B6 4E                 7866 	ld	c,(hl)
                           7867 ; genPlus
   13B7 3E 6E              7868 	ld	a,#<_cursorEnable
   13B9 81                 7869 	add	a,c
   13BA 5F                 7870 	ld	e,a
   13BB 3E 01              7871 	ld	a,#>_cursorEnable
   13BD CE 00              7872 	adc	a,#0x00
   13BF 57                 7873 	ld	d,a
                           7874 ; genAssign (pointer)
   13C0 3E 00              7875 	ld	a,#0x00
   13C2 12                 7876 	ld	(de),a
                           7877 ; genLabel
   13C3                    7878 00106$:
                           7879 ;	mGBDisplayFunctions.c 124
                           7880 ; genAssign
                           7881 ; AOP_HL for _cursorColumn
                           7882 ; AOP_HL for _cursorColumnLast
   13C3 21 72 01           7883 	ld	hl,#_cursorColumn + 0
   13C6 7E                 7884 	ld	a,(hl)
   13C7 21 87 01           7885 	ld	hl,#_cursorColumnLast + 0
   13CA 77                 7886 	ld	(hl),a
                           7887 ; genLabel
   13CB                    7888 00108$:
                           7889 ;	mGBDisplayFunctions.c 127
                           7890 ; genAssign
                           7891 ; AOP_HL for _j
   13CB 21 34 01           7892 	ld	hl,#_j + 0
   13CE 36 00              7893 	ld	(hl),#0x00
                           7894 ; genPlus
                           7895 ; AOP_STK for _setCursor_sloc1_1_0
                           7896 ; genPlusIncr
   13D0 3E 37              7897 	ld	a,#<_joyState
   13D2 C6 06              7898 	add	a,#0x06
   13D4 F8 00              7899 	lda	hl,0(sp)
   13D6 77                 7900 	ld	(hl),a ; 3
   13D7 3E 01              7901 	ld	a,#>_joyState
   13D9 CE 00              7902 	adc	a,#0x00
   13DB 23                 7903 	inc	hl
   13DC 77                 7904 	ld	(hl),a ; 3
                           7905 ; genLabel
   13DD                    7906 00126$:
                           7907 ; genCmpEq
                           7908 ; AOP_HL for _j
   13DD 21 34 01           7909 	ld	hl,#_j + 0
   13E0 7E                 7910 	ld	a,(hl) ; 2
   13E1 FE 04              7911 	cp	a,#0x04
                           7912 ; Rule 5
   13E3 CA 0E 15           7913 	jp	z,00129$
   13E6                    7914 00154$:
                           7915 ;	mGBDisplayFunctions.c 128
                           7916 ; genIfx
                           7917 ; AOP_HL for _shiftSelect
   13E6 AF                 7918 	xor	a,a
   13E7 21 89 01           7919 	ld	hl,#_shiftSelect + 0
   13EA B6                 7920 	or	a,(hl)
   13EB B7                 7921 	or	a,a
   13EC CA 19 14           7922 	jp	z,00110$
                           7923 ; genPointerGet
                           7924 ; AOP_STK for _setCursor_sloc1_1_0
                           7925 ; AOP_STK for _setCursor_sloc0_1_0
   13EF F8 00              7926 	lda	hl,0(sp)
   13F1 5E                 7927 	ld	e,(hl)
   13F2 23                 7928 	inc	hl
   13F3 56                 7929 	ld	d,(hl)
   13F4 1A                 7930 	ld	a,(de)
   13F5 23                 7931 	inc	hl
   13F6 77                 7932 	ld	(hl),a ; 3
                           7933 ; genIfx
                           7934 ; AOP_STK for _setCursor_sloc0_1_0
                           7935 ; Removed redundent or a,a
   13F7 AF                 7936 	xor	a,a
   13F8 B6                 7937 	or	a,(hl)
   13F9 C2 19 14           7938 	jp	nz,00110$
                           7939 ; genCmpEq
                           7940 ; AOP_HL for _cursorColumn
                           7941 ; AOP_HL for _j
   13FC 21 34 01           7942 	ld	hl,#_j + 0
   13FF 7E                 7943 	ld	a,(hl)
   1400 21 72 01           7944 	ld	hl,#_cursorColumn + 0
   1403 BE                 7945 	cp	(hl) ; 5
   1404 20 03              7946 	jr	nz,00155$
   1406 C3 19 14           7947 	jp	00110$
   1409                    7948 00155$:
                           7949 ;	mGBDisplayFunctions.c 129
                           7950 ; genAssign
                           7951 ; AOP_HL for _j
   1409 21 34 01           7952 	ld	hl,#_j + 0
   140C 4E                 7953 	ld	c,(hl)
                           7954 ; genPlus
   140D 3E 6E              7955 	ld	a,#<_cursorEnable
   140F 81                 7956 	add	a,c
   1410 5F                 7957 	ld	e,a
   1411 3E 01              7958 	ld	a,#>_cursorEnable
   1413 CE 00              7959 	adc	a,#0x00
   1415 57                 7960 	ld	d,a
                           7961 ; genAssign (pointer)
   1416 3E 00              7962 	ld	a,#0x00
   1418 12                 7963 	ld	(de),a
                           7964 ; genLabel
   1419                    7965 00110$:
                           7966 ;	mGBDisplayFunctions.c 131
                           7967 ; genAssign
                           7968 ; AOP_HL for _j
   1419 21 34 01           7969 	ld	hl,#_j + 0
   141C 4E                 7970 	ld	c,(hl)
                           7971 ; genPlus
   141D 3E 6E              7972 	ld	a,#<_cursorEnable
   141F 81                 7973 	add	a,c
   1420 5F                 7974 	ld	e,a
   1421 3E 01              7975 	ld	a,#>_cursorEnable
   1423 CE 00              7976 	adc	a,#0x00
   1425 57                 7977 	ld	d,a
                           7978 ; genPointerGet
   1426 1A                 7979 	ld	a,(de)
   1427 4F                 7980 	ld	c,a
                           7981 ; genIfx
                           7982 ; Removed redundent or a,a
   1428 AF                 7983 	xor	a,a
   1429 B1                 7984 	or	a,c
   142A CA 07 15           7985 	jp	z,00128$
                           7986 ;	mGBDisplayFunctions.c 132
                           7987 ; genAssign
                           7988 ; AOP_HL for _j
   142D 4E                 7989 	ld	c,(hl)
                           7990 ; genPlus
   142E 3E 73              7991 	ld	a,#<_cursorRow
   1430 81                 7992 	add	a,c
   1431 5F                 7993 	ld	e,a
   1432 3E 01              7994 	ld	a,#>_cursorRow
   1434 CE 00              7995 	adc	a,#0x00
   1436 57                 7996 	ld	d,a
                           7997 ; genPointerGet
   1437 1A                 7998 	ld	a,(de)
   1438 4F                 7999 	ld	c,a
                           8000 ; genCmpGt
   1439 AF                 8001 	xor	a,a
   143A 3E F0              8002 	ld	a,#0xF0
   143C 99                 8003 	sbc	a,c ; 2
   143D D2 4D 14           8004 	jp	nc,00114$
                           8005 ; genAssign
                           8006 ; AOP_HL for _j
   1440 4E                 8007 	ld	c,(hl)
                           8008 ; genPlus
   1441 3E 73              8009 	ld	a,#<_cursorRow
   1443 81                 8010 	add	a,c
   1444 5F                 8011 	ld	e,a
   1445 3E 01              8012 	ld	a,#>_cursorRow
   1447 CE 00              8013 	adc	a,#0x00
   1449 57                 8014 	ld	d,a
                           8015 ; genAssign (pointer)
   144A 3E 08              8016 	ld	a,#0x08
   144C 12                 8017 	ld	(de),a
                           8018 ; genLabel
   144D                    8019 00114$:
                           8020 ;	mGBDisplayFunctions.c 133
                           8021 ; genAssign
                           8022 ; AOP_HL for _j
   144D 21 34 01           8023 	ld	hl,#_j + 0
   1450 4E                 8024 	ld	c,(hl)
                           8025 ; genPlus
   1451 3E 73              8026 	ld	a,#<_cursorRow
   1453 81                 8027 	add	a,c
   1454 5F                 8028 	ld	e,a
   1455 3E 01              8029 	ld	a,#>_cursorRow
   1457 CE 00              8030 	adc	a,#0x00
   1459 57                 8031 	ld	d,a
                           8032 ; genPointerGet
   145A 1A                 8033 	ld	a,(de)
   145B 4F                 8034 	ld	c,a
                           8035 ; genCmpGt
   145C AF                 8036 	xor	a,a
   145D 3E 08              8037 	ld	a,#0x08
   145F 99                 8038 	sbc	a,c ; 2
   1460 D2 70 14           8039 	jp	nc,00116$
                           8040 ; genAssign
                           8041 ; AOP_HL for _j
   1463 4E                 8042 	ld	c,(hl)
                           8043 ; genPlus
   1464 3E 73              8044 	ld	a,#<_cursorRow
   1466 81                 8045 	add	a,c
   1467 5F                 8046 	ld	e,a
   1468 3E 01              8047 	ld	a,#>_cursorRow
   146A CE 00              8048 	adc	a,#0x00
   146C 57                 8049 	ld	d,a
                           8050 ; genAssign (pointer)
   146D 3E 00              8051 	ld	a,#0x00
   146F 12                 8052 	ld	(de),a
                           8053 ; genLabel
   1470                    8054 00116$:
                           8055 ;	mGBDisplayFunctions.c 134
                           8056 ; genPointerGet
   1470 11 7B 01           8057 	ld	de,#_cursorBigStartY + 0
   1473 1A                 8058 	ld	a,(de)
   1474 4F                 8059 	ld	c,a
                           8060 ; genAssign
                           8061 ; AOP_HL for _cursorColumn
   1475 21 72 01           8062 	ld	hl,#_cursorColumn + 0
   1478 46                 8063 	ld	b,(hl)
                           8064 ; genPlus
   1479 3E 77              8065 	ld	a,#<_cursorBigStartX
   147B 80                 8066 	add	a,b
   147C 5F                 8067 	ld	e,a
   147D 3E 01              8068 	ld	a,#>_cursorBigStartX
   147F CE 00              8069 	adc	a,#0x00
   1481 57                 8070 	ld	d,a
                           8071 ; genPointerGet
   1482 1A                 8072 	ld	a,(de)
   1483 47                 8073 	ld	b,a
                           8074 ; genIpush
   1484 79                 8075 	ld	a,c
   1485 F5                 8076 	push	af
   1486 33                 8077 	inc	sp
                           8078 ; genIpush
   1487 78                 8079 	ld	a,b
   1488 F5                 8080 	push	af
   1489 33                 8081 	inc	sp
                           8082 ; genIpush
   148A 3E 1A              8083 	ld	a,#0x1A
   148C F5                 8084 	push	af
   148D 33                 8085 	inc	sp
                           8086 ; genCall
   148E CD 00 00           8087 	call	_move_sprite
   1491 E8 03              8088 	lda	sp,3(sp)
                           8089 ;	mGBDisplayFunctions.c 135
                           8090 ; genAssign
                           8091 ; AOP_HL for _j
   1493 21 34 01           8092 	ld	hl,#_j + 0
   1496 4E                 8093 	ld	c,(hl)
                           8094 ; genPlus
   1497 3E 73              8095 	ld	a,#<_cursorRow
   1499 81                 8096 	add	a,c
   149A 5F                 8097 	ld	e,a
   149B 3E 01              8098 	ld	a,#>_cursorRow
   149D CE 00              8099 	adc	a,#0x00
   149F 57                 8100 	ld	d,a
                           8101 ; genPointerGet
   14A0 1A                 8102 	ld	a,(de)
   14A1 4F                 8103 	ld	c,a
                           8104 ; genAssign
                           8105 ; AOP_HL for _SCREEN_YSPACE
   14A2 21 5E 31           8106 	ld	hl,#_SCREEN_YSPACE + 0
   14A5 46                 8107 	ld	b,(hl)
                           8108 ; genIpush
   14A6 78                 8109 	ld	a,b
   14A7 F5                 8110 	push	af
   14A8 33                 8111 	inc	sp
                           8112 ; genIpush
   14A9 79                 8113 	ld	a,c
   14AA F5                 8114 	push	af
   14AB 33                 8115 	inc	sp
                           8116 ; genCall
   14AC CD 00 00           8117 	call	__muluchar
   14AF 4B                 8118 	ld	c,e
   14B0 E8 02              8119 	lda	sp,2(sp)
                           8120 ; genAssign
                           8121 ; AOP_HL for _SCREEN_PSTARTY
   14B2 21 60 31           8122 	ld	hl,#_SCREEN_PSTARTY + 0
   14B5 7E                 8123 	ld	a,(hl)
                           8124 ; genPlus
   14B6 81                 8125 	add	a,c
   14B7 4F                 8126 	ld	c,a
                           8127 ; genAssign
                           8128 ; AOP_HL for _SCREEN_YO
   14B8 21 5C 31           8129 	ld	hl,#_SCREEN_YO + 0
   14BB 7E                 8130 	ld	a,(hl)
                           8131 ; genPlus
   14BC 81                 8132 	add	a,c
   14BD 4F                 8133 	ld	c,a
                           8134 ; genAssign
                           8135 ; AOP_HL for _j
   14BE 21 34 01           8136 	ld	hl,#_j + 0
   14C1 46                 8137 	ld	b,(hl)
                           8138 ; genPlus
   14C2 3E 7F              8139 	ld	a,#<_cursorStartX
   14C4 80                 8140 	add	a,b
   14C5 5F                 8141 	ld	e,a
   14C6 3E 01              8142 	ld	a,#>_cursorStartX
   14C8 CE 00              8143 	adc	a,#0x00
   14CA 57                 8144 	ld	d,a
                           8145 ; genPointerGet
                           8146 ; AOP_STK for _setCursor_sloc0_1_0
   14CB 1A                 8147 	ld	a,(de)
   14CC F8 02              8148 	lda	hl,2(sp)
   14CE 77                 8149 	ld	(hl),a ; 3
                           8150 ; genPlus
                           8151 ; AOP_HL for _j
                           8152 ; genPlusIncr
   14CF 21 34 01           8153 	ld	hl,#_j + 0
   14D2 7E                 8154 	ld	a,(hl)
   14D3 C6 1B              8155 	add	a,#0x1B
   14D5 47                 8156 	ld	b,a
                           8157 ; genIpush
   14D6 79                 8158 	ld	a,c
   14D7 F5                 8159 	push	af
   14D8 33                 8160 	inc	sp
                           8161 ; genIpush
                           8162 ; AOP_STK for _setCursor_sloc0_1_0
   14D9 F8 03              8163 	lda	hl,3(sp)
   14DB 7E                 8164 	ld	a,(hl)
   14DC F5                 8165 	push	af
   14DD 33                 8166 	inc	sp
                           8167 ; genIpush
   14DE 78                 8168 	ld	a,b
   14DF F5                 8169 	push	af
   14E0 33                 8170 	inc	sp
                           8171 ; genCall
   14E1 CD 00 00           8172 	call	_move_sprite
   14E4 E8 03              8173 	lda	sp,3(sp)
                           8174 ;	mGBDisplayFunctions.c 136
                           8175 ; genCmpEq
                           8176 ; AOP_HL for _j
                           8177 ; AOP_HL for _cursorColumn
   14E6 21 72 01           8178 	ld	hl,#_cursorColumn + 0
   14E9 7E                 8179 	ld	a,(hl)
   14EA 21 34 01           8180 	ld	hl,#_j + 0
   14ED BE                 8181 	cp	(hl) ; 5
   14EE 20 02              8182 	jr	nz,00156$
   14F0 18 03              8183 	jr	00157$
   14F2                    8184 00156$:
   14F2 C3 07 15           8185 	jp	00128$
   14F5                    8186 00157$:
                           8187 ; genAssign
                           8188 ; AOP_HL for _j
   14F5 21 34 01           8189 	ld	hl,#_j + 0
   14F8 4E                 8190 	ld	c,(hl)
                           8191 ; genPlus
   14F9 3E 73              8192 	ld	a,#<_cursorRow
   14FB 81                 8193 	add	a,c
   14FC 5F                 8194 	ld	e,a
   14FD 3E 01              8195 	ld	a,#>_cursorRow
   14FF CE 00              8196 	adc	a,#0x00
   1501 57                 8197 	ld	d,a
                           8198 ; genPointerGet
                           8199 ; AOP_HL for _cursorRowMain
   1502 1A                 8200 	ld	a,(de)
   1503 21 88 01           8201 	ld	hl,#_cursorRowMain + 0
   1506 77                 8202 	ld	(hl),a
                           8203 ; genLabel
   1507                    8204 00128$:
                           8205 ;	mGBDisplayFunctions.c 127
                           8206 ; genPlus
                           8207 ; AOP_HL for _j
                           8208 ; genPlusIncr
   1507 21 34 01           8209 	ld	hl,#_j + 0
   150A 34                 8210 	inc	(hl)
                           8211 ; genGoto
   150B C3 DD 13           8212 	jp	00126$
                           8213 ; genLabel
   150E                    8214 00129$:
                           8215 ;	mGBDisplayFunctions.c 139
                           8216 ; genAssign
                           8217 ; AOP_HL for _j
   150E 21 34 01           8218 	ld	hl,#_j + 0
   1511 36 00              8219 	ld	(hl),#0x00
                           8220 ; genLabel
   1513                    8221 00130$:
                           8222 ; genCmpEq
                           8223 ; AOP_HL for _j
   1513 21 34 01           8224 	ld	hl,#_j + 0
   1516 7E                 8225 	ld	a,(hl) ; 2
   1517 FE 04              8226 	cp	a,#0x04
                           8227 ; Rule 5
   1519 CA 5D 15           8228 	jp	z,00133$
   151C                    8229 00158$:
                           8230 ;	mGBDisplayFunctions.c 140
                           8231 ; genAssign
                           8232 ; AOP_HL for _j
   151C 21 34 01           8233 	ld	hl,#_j + 0
   151F 4E                 8234 	ld	c,(hl)
                           8235 ; genPlus
   1520 3E 6E              8236 	ld	a,#<_cursorEnable
   1522 81                 8237 	add	a,c
   1523 5F                 8238 	ld	e,a
   1524 3E 01              8239 	ld	a,#>_cursorEnable
   1526 CE 00              8240 	adc	a,#0x00
   1528 57                 8241 	ld	d,a
                           8242 ; genPointerGet
   1529 1A                 8243 	ld	a,(de)
   152A 4F                 8244 	ld	c,a
                           8245 ; genIfx
                           8246 ; Removed redundent or a,a
   152B AF                 8247 	xor	a,a
   152C B1                 8248 	or	a,c
   152D C2 56 15           8249 	jp	nz,00132$
                           8250 ;	mGBDisplayFunctions.c 141
                           8251 ; genAssign
                           8252 ; AOP_HL for _j
   1530 4E                 8253 	ld	c,(hl)
                           8254 ; genPlus
   1531 3E 73              8255 	ld	a,#<_cursorRow
   1533 81                 8256 	add	a,c
   1534 5F                 8257 	ld	e,a
   1535 3E 01              8258 	ld	a,#>_cursorRow
   1537 CE 00              8259 	adc	a,#0x00
   1539 57                 8260 	ld	d,a
                           8261 ; genAssign (pointer)
                           8262 ; AOP_HL for _cursorRowMain
   153A 21 88 01           8263 	ld	hl,#_cursorRowMain + 0
   153D 7E                 8264 	ld	a,(hl)
   153E 12                 8265 	ld	(de),a
                           8266 ;	mGBDisplayFunctions.c 142
                           8267 ; genPlus
                           8268 ; AOP_HL for _j
                           8269 ; genPlusIncr
   153F 21 34 01           8270 	ld	hl,#_j + 0
   1542 7E                 8271 	ld	a,(hl)
   1543 C6 1B              8272 	add	a,#0x1B
   1545 4F                 8273 	ld	c,a
                           8274 ; genIpush
   1546 3E 00              8275 	ld	a,#0x00
   1548 F5                 8276 	push	af
   1549 33                 8277 	inc	sp
                           8278 ; genIpush
   154A 3E 00              8279 	ld	a,#0x00
   154C F5                 8280 	push	af
   154D 33                 8281 	inc	sp
                           8282 ; genIpush
   154E 79                 8283 	ld	a,c
   154F F5                 8284 	push	af
   1550 33                 8285 	inc	sp
                           8286 ; genCall
   1551 CD 00 00           8287 	call	_move_sprite
   1554 E8 03              8288 	lda	sp,3(sp)
                           8289 ; genLabel
   1556                    8290 00132$:
                           8291 ;	mGBDisplayFunctions.c 139
                           8292 ; genPlus
                           8293 ; AOP_HL for _j
                           8294 ; genPlusIncr
   1556 21 34 01           8295 	ld	hl,#_j + 0
   1559 34                 8296 	inc	(hl)
                           8297 ; genGoto
   155A C3 13 15           8298 	jp	00130$
                           8299 ; genLabel
   155D                    8300 00133$:
                           8301 ;	mGBDisplayFunctions.c 145
                           8302 ; genPointerGet
                           8303 ; AOP_STK for _setCursor_sloc1_1_0
   155D F8 00              8304 	lda	hl,0(sp)
   155F 5E                 8305 	ld	e,(hl)
   1560 23                 8306 	inc	hl
   1561 56                 8307 	ld	d,(hl)
   1562 1A                 8308 	ld	a,(de)
   1563 4F                 8309 	ld	c,a
                           8310 ; genIfx
                           8311 ; Removed redundent or a,a
   1564 AF                 8312 	xor	a,a
   1565 B1                 8313 	or	a,c
   1566 C2 71 15           8314 	jp	nz,00124$
                           8315 ;	mGBDisplayFunctions.c 146
                           8316 ; genAssign
                           8317 ; AOP_HL for _shiftSelect
   1569 21 89 01           8318 	ld	hl,#_shiftSelect + 0
   156C 36 00              8319 	ld	(hl),#0x00
                           8320 ; genGoto
   156E C3 76 15           8321 	jp	00125$
                           8322 ; genLabel
   1571                    8323 00124$:
                           8324 ;	mGBDisplayFunctions.c 148
                           8325 ; genAssign
                           8326 ; AOP_HL for _shiftSelect
   1571 21 89 01           8327 	ld	hl,#_shiftSelect + 0
   1574 36 01              8328 	ld	(hl),#0x01
                           8329 ; genLabel
   1576                    8330 00125$:
                           8331 ;	mGBDisplayFunctions.c 150
                           8332 ; genCall
   1576 CD D4 0C           8333 	call	_printhelp
                           8334 ; genLabel
   1579                    8335 00134$:
                           8336 ; genEndFunction
   1579 E8 03              8337 	lda	sp,3(sp)
   157B C1                 8338 	pop bc
   157C C9                 8339 	ret
   157D                    8340 ___setCursor_end:
                           8341 ;	mGBDisplayFunctions.c 153
                           8342 ; genLabel
                           8343 ; genFunction
                           8344 ;	---------------------------------
                           8345 ; Function hideCursor
                           8346 ; ---------------------------------
   157D                    8347 ___hideCursor_start:
   157D                    8348 _hideCursor:
   157D C5                 8349 	push	bc
                           8350 ;	mGBDisplayFunctions.c 155
                           8351 ; genAssign
                           8352 ; AOP_HL for _j
   157E 21 34 01           8353 	ld	hl,#_j + 0
   1581 36 00              8354 	ld	(hl),#0x00
                           8355 ; genLabel
   1583                    8356 00101$:
                           8357 ; genCmpEq
                           8358 ; AOP_HL for _j
   1583 21 34 01           8359 	ld	hl,#_j + 0
   1586 7E                 8360 	ld	a,(hl) ; 2
   1587 FE 04              8361 	cp	a,#0x04
                           8362 ; Rule 5
   1589 CA AA 15           8363 	jp	z,00104$
   158C                    8364 00109$:
                           8365 ;	mGBDisplayFunctions.c 156
                           8366 ; genPlus
                           8367 ; AOP_HL for _j
                           8368 ; genPlusIncr
   158C 21 34 01           8369 	ld	hl,#_j + 0
   158F 7E                 8370 	ld	a,(hl)
   1590 C6 1B              8371 	add	a,#0x1B
   1592 4F                 8372 	ld	c,a
                           8373 ; genIpush
   1593 3E 00              8374 	ld	a,#0x00
   1595 F5                 8375 	push	af
   1596 33                 8376 	inc	sp
                           8377 ; genIpush
   1597 3E 00              8378 	ld	a,#0x00
   1599 F5                 8379 	push	af
   159A 33                 8380 	inc	sp
                           8381 ; genIpush
   159B 79                 8382 	ld	a,c
   159C F5                 8383 	push	af
   159D 33                 8384 	inc	sp
                           8385 ; genCall
   159E CD 00 00           8386 	call	_move_sprite
   15A1 E8 03              8387 	lda	sp,3(sp)
                           8388 ;	mGBDisplayFunctions.c 155
                           8389 ; genPlus
                           8390 ; AOP_HL for _j
                           8391 ; genPlusIncr
   15A3 21 34 01           8392 	ld	hl,#_j + 0
   15A6 34                 8393 	inc	(hl)
                           8394 ; genGoto
   15A7 C3 83 15           8395 	jp	00101$
                           8396 ; genLabel
   15AA                    8397 00104$:
                           8398 ;	mGBDisplayFunctions.c 158
                           8399 ; genIpush
   15AA 3E 00              8400 	ld	a,#0x00
   15AC F5                 8401 	push	af
   15AD 33                 8402 	inc	sp
                           8403 ; genIpush
   15AE 3E 00              8404 	ld	a,#0x00
   15B0 F5                 8405 	push	af
   15B1 33                 8406 	inc	sp
                           8407 ; genIpush
   15B2 3E 1A              8408 	ld	a,#0x1A
   15B4 F5                 8409 	push	af
   15B5 33                 8410 	inc	sp
                           8411 ; genCall
   15B6 CD 00 00           8412 	call	_move_sprite
   15B9 E8 03              8413 	lda	sp,3(sp)
                           8414 ; genLabel
   15BB                    8415 00105$:
                           8416 ; genEndFunction
   15BB C1                 8417 	pop	bc
   15BC C9                 8418 	ret
   15BD                    8419 ___hideCursor_end:
                           8420 ;	mGBDisplayFunctions.c 161
                           8421 ; genLabel
                           8422 ; genFunction
                           8423 ;	---------------------------------
                           8424 ; Function showCursor
                           8425 ; ---------------------------------
   15BD                    8426 ___showCursor_start:
   15BD                    8427 _showCursor:
   15BD C5                 8428 	push	bc
                           8429 ;	mGBDisplayFunctions.c 163
                           8430 ; genCall
   15BE CD 71 13           8431 	call	_setCursor
                           8432 ; genLabel
   15C1                    8433 00101$:
                           8434 ; genEndFunction
   15C1 C1                 8435 	pop	bc
   15C2 C9                 8436 	ret
   15C3                    8437 ___showCursor_end:
                           8438 ;	mGBDisplayFunctions.c 166
                           8439 ; genLabel
                           8440 ; genFunction
                           8441 ;	---------------------------------
                           8442 ; Function setPlayMarker
                           8443 ; ---------------------------------
   15C3                    8444 ___setPlayMarker_start:
   15C3                    8445 _setPlayMarker:
   15C3 C5                 8446 	push	bc
   15C4 E8 F8              8447 	lda sp,-8(sp)
                           8448 ;	mGBDisplayFunctions.c 168
                           8449 ; genAssign
                           8450 ; AOP_HL for _j
   15C6 21 34 01           8451 	ld	hl,#_j + 0
   15C9 36 00              8452 	ld	(hl),#0x00
                           8453 ; genPlus
                           8454 ; AOP_STK for _setPlayMarker_sloc0_1_0
                           8455 ; genPlusIncr
   15CB 3E 9F              8456 	ld	a,#<_noteStatus
   15CD C6 06              8457 	add	a,#0x06
   15CF F8 06              8458 	lda	hl,6(sp)
   15D1 77                 8459 	ld	(hl),a ; 3
   15D2 3E 00              8460 	ld	a,#>_noteStatus
   15D4 CE 00              8461 	adc	a,#0x00
   15D6 23                 8462 	inc	hl
   15D7 77                 8463 	ld	(hl),a ; 3
                           8464 ; genPlus
                           8465 ; AOP_STK for _setPlayMarker_sloc1_1_0
                           8466 ; genPlusIncr
   15D8 3E 9F              8467 	ld	a,#<_noteStatus
   15DA C6 04              8468 	add	a,#0x04
   15DC F8 04              8469 	lda	hl,4(sp)
   15DE 77                 8470 	ld	(hl),a ; 3
   15DF 3E 00              8471 	ld	a,#>_noteStatus
   15E1 CE 00              8472 	adc	a,#0x00
   15E3 23                 8473 	inc	hl
   15E4 77                 8474 	ld	(hl),a ; 3
                           8475 ; genPlus
                           8476 ; AOP_STK for _setPlayMarker_sloc2_1_0
                           8477 ; genPlusIncr
   15E5 3E 9F              8478 	ld	a,#<_noteStatus
   15E7 C6 02              8479 	add	a,#0x02
   15E9 F8 02              8480 	lda	hl,2(sp)
   15EB 77                 8481 	ld	(hl),a ; 3
   15EC 3E 00              8482 	ld	a,#>_noteStatus
   15EE CE 00              8483 	adc	a,#0x00
   15F0 23                 8484 	inc	hl
   15F1 77                 8485 	ld	(hl),a ; 3
                           8486 ; genLabel
   15F2                    8487 00110$:
                           8488 ; genCmpEq
                           8489 ; AOP_HL for _j
   15F2 21 34 01           8490 	ld	hl,#_j + 0
   15F5 7E                 8491 	ld	a,(hl) ; 2
   15F6 FE 04              8492 	cp	a,#0x04
                           8493 ; Rule 5
   15F8 CA 14 17           8494 	jp	z,00114$
   15FB                    8495 00121$:
                           8496 ;	mGBDisplayFunctions.c 169
                           8497 ; genIfx
                           8498 ; AOP_HL for _j
   15FB AF                 8499 	xor	a,a
   15FC 21 34 01           8500 	ld	hl,#_j + 0
   15FF B6                 8501 	or	a,(hl)
   1600 B7                 8502 	or	a,a
   1601 C2 2E 16           8503 	jp	nz,00108$
                           8504 ;	mGBDisplayFunctions.c 170
                           8505 ; genLeftShift
                           8506 ; AOP_HL for _j
   1604 7E                 8507 	ld	a,(hl)
   1605 87                 8508 	add	a,a
   1606 87                 8509 	add	a,a
   1607 4F                 8510 	ld	c,a
                           8511 ; genPlus
                           8512 ; AOP_STK for _setPlayMarker_sloc3_1_0
   1608 3E F9              8513 	ld	a,#<_markerMapTiles
   160A 81                 8514 	add	a,c
   160B F8 00              8515 	lda	hl,0(sp)
   160D 77                 8516 	ld	(hl),a ; 3
   160E 3E 31              8517 	ld	a,#>_markerMapTiles
   1610 CE 00              8518 	adc	a,#0x00
   1612 23                 8519 	inc	hl
   1613 77                 8520 	ld	(hl),a ; 3
                           8521 ; genPointerGet
   1614 11 9F 00           8522 	ld	de,#_noteStatus + 0
   1617 1A                 8523 	ld	a,(de)
   1618 4F                 8524 	ld	c,a
                           8525 ; genPlus
                           8526 ; genPlusIncr
   1619 0C                 8527 	inc	c
   161A 0C                 8528 	inc	c
                           8529 ; genPlus
                           8530 ; AOP_STK for _setPlayMarker_sloc3_1_0
   161B 2B                 8531 	dec	hl
   161C 7E                 8532 	ld	a,(hl)
   161D 81                 8533 	add	a,c
   161E 5F                 8534 	ld	e,a
   161F 23                 8535 	inc	hl
   1620 7E                 8536 	ld	a,(hl)
   1621 CE 00              8537 	adc	a,#0x00
   1623 57                 8538 	ld	d,a
                           8539 ; genPointerGet
   1624 1A                 8540 	ld	a,(de)
   1625 4F                 8541 	ld	c,a
                           8542 ; genAssign (pointer)
   1626 11 59 01           8543 	ld	de,#_bkg + 0
   1629 79                 8544 	ld	a,c
   162A 12                 8545 	ld	(de),a
                           8546 ; genGoto
   162B C3 D6 16           8547 	jp	00109$
                           8548 ; genLabel
   162E                    8549 00108$:
                           8550 ;	mGBDisplayFunctions.c 171
                           8551 ; genCmpEq
                           8552 ; AOP_HL for _j
   162E 21 34 01           8553 	ld	hl,#_j + 0
   1631 7E                 8554 	ld	a,(hl) ; 2
   1632 FE 01              8555 	cp	a,#0x01
   1634 C2 39 16           8556 	jp	nz,00122$
   1637 18 03              8557 	jr	00123$
   1639                    8558 00122$:
   1639 C3 6B 16           8559 	jp	00105$
   163C                    8560 00123$:
                           8561 ;	mGBDisplayFunctions.c 172
                           8562 ; genLeftShift
                           8563 ; AOP_HL for _j
   163C 21 34 01           8564 	ld	hl,#_j + 0
   163F 7E                 8565 	ld	a,(hl)
   1640 87                 8566 	add	a,a
   1641 87                 8567 	add	a,a
   1642 4F                 8568 	ld	c,a
                           8569 ; genPlus
                           8570 ; AOP_STK for _setPlayMarker_sloc3_1_0
   1643 3E F9              8571 	ld	a,#<_markerMapTiles
   1645 81                 8572 	add	a,c
   1646 F8 00              8573 	lda	hl,0(sp)
   1648 77                 8574 	ld	(hl),a ; 3
   1649 3E 31              8575 	ld	a,#>_markerMapTiles
   164B CE 00              8576 	adc	a,#0x00
   164D 23                 8577 	inc	hl
   164E 77                 8578 	ld	(hl),a ; 3
                           8579 ; genPointerGet
                           8580 ; AOP_STK for _setPlayMarker_sloc2_1_0
   164F 23                 8581 	inc	hl
   1650 5E                 8582 	ld	e,(hl)
   1651 23                 8583 	inc	hl
   1652 56                 8584 	ld	d,(hl)
   1653 1A                 8585 	ld	a,(de)
   1654 4F                 8586 	ld	c,a
                           8587 ; genPlus
                           8588 ; genPlusIncr
   1655 0C                 8589 	inc	c
   1656 0C                 8590 	inc	c
                           8591 ; genPlus
                           8592 ; AOP_STK for _setPlayMarker_sloc3_1_0
   1657 F8 00              8593 	lda	hl,0(sp)
   1659 7E                 8594 	ld	a,(hl)
   165A 81                 8595 	add	a,c
   165B 5F                 8596 	ld	e,a
   165C 23                 8597 	inc	hl
   165D 7E                 8598 	ld	a,(hl)
   165E CE 00              8599 	adc	a,#0x00
   1660 57                 8600 	ld	d,a
                           8601 ; genPointerGet
   1661 1A                 8602 	ld	a,(de)
   1662 4F                 8603 	ld	c,a
                           8604 ; genAssign (pointer)
   1663 11 59 01           8605 	ld	de,#_bkg + 0
   1666 79                 8606 	ld	a,c
   1667 12                 8607 	ld	(de),a
                           8608 ; genGoto
   1668 C3 D6 16           8609 	jp	00109$
                           8610 ; genLabel
   166B                    8611 00105$:
                           8612 ;	mGBDisplayFunctions.c 173
                           8613 ; genCmpEq
                           8614 ; AOP_HL for _j
   166B 21 34 01           8615 	ld	hl,#_j + 0
   166E 7E                 8616 	ld	a,(hl) ; 2
   166F FE 02              8617 	cp	a,#0x02
   1671 C2 76 16           8618 	jp	nz,00124$
   1674 18 03              8619 	jr	00125$
   1676                    8620 00124$:
   1676 C3 A9 16           8621 	jp	00102$
   1679                    8622 00125$:
                           8623 ;	mGBDisplayFunctions.c 174
                           8624 ; genLeftShift
                           8625 ; AOP_HL for _j
   1679 21 34 01           8626 	ld	hl,#_j + 0
   167C 7E                 8627 	ld	a,(hl)
   167D 87                 8628 	add	a,a
   167E 87                 8629 	add	a,a
   167F 4F                 8630 	ld	c,a
                           8631 ; genPlus
                           8632 ; AOP_STK for _setPlayMarker_sloc3_1_0
   1680 3E F9              8633 	ld	a,#<_markerMapTiles
   1682 81                 8634 	add	a,c
   1683 F8 00              8635 	lda	hl,0(sp)
   1685 77                 8636 	ld	(hl),a ; 3
   1686 3E 31              8637 	ld	a,#>_markerMapTiles
   1688 CE 00              8638 	adc	a,#0x00
   168A 23                 8639 	inc	hl
   168B 77                 8640 	ld	(hl),a ; 3
                           8641 ; genPointerGet
                           8642 ; AOP_STK for _setPlayMarker_sloc1_1_0
   168C F8 04              8643 	lda	hl,4(sp)
   168E 5E                 8644 	ld	e,(hl)
   168F 23                 8645 	inc	hl
   1690 56                 8646 	ld	d,(hl)
   1691 1A                 8647 	ld	a,(de)
   1692 4F                 8648 	ld	c,a
                           8649 ; genPlus
                           8650 ; genPlusIncr
   1693 0C                 8651 	inc	c
   1694 0C                 8652 	inc	c
                           8653 ; genPlus
                           8654 ; AOP_STK for _setPlayMarker_sloc3_1_0
   1695 F8 00              8655 	lda	hl,0(sp)
   1697 7E                 8656 	ld	a,(hl)
   1698 81                 8657 	add	a,c
   1699 5F                 8658 	ld	e,a
   169A 23                 8659 	inc	hl
   169B 7E                 8660 	ld	a,(hl)
   169C CE 00              8661 	adc	a,#0x00
   169E 57                 8662 	ld	d,a
                           8663 ; genPointerGet
   169F 1A                 8664 	ld	a,(de)
   16A0 4F                 8665 	ld	c,a
                           8666 ; genAssign (pointer)
   16A1 11 59 01           8667 	ld	de,#_bkg + 0
   16A4 79                 8668 	ld	a,c
   16A5 12                 8669 	ld	(de),a
                           8670 ; genGoto
   16A6 C3 D6 16           8671 	jp	00109$
                           8672 ; genLabel
   16A9                    8673 00102$:
                           8674 ;	mGBDisplayFunctions.c 176
                           8675 ; genLeftShift
                           8676 ; AOP_HL for _j
   16A9 21 34 01           8677 	ld	hl,#_j + 0
   16AC 7E                 8678 	ld	a,(hl)
   16AD 87                 8679 	add	a,a
   16AE 87                 8680 	add	a,a
   16AF 4F                 8681 	ld	c,a
                           8682 ; genPlus
                           8683 ; AOP_STK for _setPlayMarker_sloc3_1_0
   16B0 3E F9              8684 	ld	a,#<_markerMapTiles
   16B2 81                 8685 	add	a,c
   16B3 F8 00              8686 	lda	hl,0(sp)
   16B5 77                 8687 	ld	(hl),a ; 3
   16B6 3E 31              8688 	ld	a,#>_markerMapTiles
   16B8 CE 00              8689 	adc	a,#0x00
   16BA 23                 8690 	inc	hl
   16BB 77                 8691 	ld	(hl),a ; 3
                           8692 ; genPointerGet
                           8693 ; AOP_STK for _setPlayMarker_sloc0_1_0
   16BC F8 06              8694 	lda	hl,6(sp)
   16BE 5E                 8695 	ld	e,(hl)
   16BF 23                 8696 	inc	hl
   16C0 56                 8697 	ld	d,(hl)
   16C1 1A                 8698 	ld	a,(de)
   16C2 4F                 8699 	ld	c,a
                           8700 ; genPlus
                           8701 ; genPlusIncr
   16C3 0C                 8702 	inc	c
   16C4 0C                 8703 	inc	c
                           8704 ; genPlus
                           8705 ; AOP_STK for _setPlayMarker_sloc3_1_0
   16C5 F8 00              8706 	lda	hl,0(sp)
   16C7 7E                 8707 	ld	a,(hl)
   16C8 81                 8708 	add	a,c
   16C9 5F                 8709 	ld	e,a
   16CA 23                 8710 	inc	hl
   16CB 7E                 8711 	ld	a,(hl)
   16CC CE 00              8712 	adc	a,#0x00
   16CE 57                 8713 	ld	d,a
                           8714 ; genPointerGet
   16CF 1A                 8715 	ld	a,(de)
   16D0 4F                 8716 	ld	c,a
                           8717 ; genAssign (pointer)
   16D1 11 59 01           8718 	ld	de,#_bkg + 0
   16D4 79                 8719 	ld	a,c
   16D5 12                 8720 	ld	(de),a
                           8721 ; genLabel
   16D6                    8722 00109$:
                           8723 ;	mGBDisplayFunctions.c 178
                           8724 ; genLeftShift
                           8725 ; AOP_HL for _j
   16D6 21 34 01           8726 	ld	hl,#_j + 0
   16D9 7E                 8727 	ld	a,(hl)
   16DA 87                 8728 	add	a,a
   16DB 87                 8729 	add	a,a
   16DC 4F                 8730 	ld	c,a
                           8731 ; genPlus
                           8732 ; AOP_STK for _setPlayMarker_sloc3_1_0
   16DD 3E F9              8733 	ld	a,#<_markerMapTiles
   16DF 81                 8734 	add	a,c
   16E0 F8 00              8735 	lda	hl,0(sp)
   16E2 77                 8736 	ld	(hl),a ; 3
   16E3 3E 31              8737 	ld	a,#>_markerMapTiles
   16E5 CE 00              8738 	adc	a,#0x00
   16E7 23                 8739 	inc	hl
   16E8 77                 8740 	ld	(hl),a ; 3
                           8741 ; genPlus
                           8742 ; AOP_STK for _setPlayMarker_sloc3_1_0
                           8743 ; genPlusIncr
   16E9 2B                 8744 	dec	hl
   16EA 5E                 8745 	ld	e,(hl)
   16EB 23                 8746 	inc	hl
   16EC 56                 8747 	ld	d,(hl)
   16ED 13                 8748 	inc	de
                           8749 ; genPointerGet
   16EE 1A                 8750 	ld	a,(de)
   16EF 4F                 8751 	ld	c,a
                           8752 ; genPointerGet
                           8753 ; AOP_STK for _setPlayMarker_sloc3_1_0
   16F0 2B                 8754 	dec	hl
   16F1 5E                 8755 	ld	e,(hl)
   16F2 23                 8756 	inc	hl
   16F3 56                 8757 	ld	d,(hl)
   16F4 1A                 8758 	ld	a,(de)
   16F5 47                 8759 	ld	b,a
                           8760 ; genIpush
   16F6 21 59 01           8761 	ld	hl,#_bkg + 0
   16F9 E5                 8762 	push	hl
                           8763 ; genIpush
   16FA 3E 01              8764 	ld	a,#0x01
   16FC F5                 8765 	push	af
   16FD 33                 8766 	inc	sp
                           8767 ; genIpush
   16FE 3E 01              8768 	ld	a,#0x01
   1700 F5                 8769 	push	af
   1701 33                 8770 	inc	sp
                           8771 ; genIpush
   1702 79                 8772 	ld	a,c
   1703 F5                 8773 	push	af
   1704 33                 8774 	inc	sp
                           8775 ; genIpush
   1705 78                 8776 	ld	a,b
   1706 F5                 8777 	push	af
   1707 33                 8778 	inc	sp
                           8779 ; genCall
   1708 CD 00 00           8780 	call	_set_bkg_tiles
   170B E8 06              8781 	lda	sp,6(sp)
                           8782 ;	mGBDisplayFunctions.c 168
                           8783 ; genPlus
                           8784 ; AOP_HL for _j
                           8785 ; genPlusIncr
   170D 21 34 01           8786 	ld	hl,#_j + 0
   1710 34                 8787 	inc	(hl)
                           8788 ; genGoto
   1711 C3 F2 15           8789 	jp	00110$
                           8790 ; genLabel
   1714                    8791 00114$:
                           8792 ; genEndFunction
   1714 E8 08              8793 	lda	sp,8(sp)
   1716 C1                 8794 	pop bc
   1717 C9                 8795 	ret
   1718                    8796 ___setPlayMarker_end:
                           8797 ;	mGBDisplayFunctions.c 182
                           8798 ; genLabel
                           8799 ; genFunction
                           8800 ;	---------------------------------
                           8801 ; Function cls2
                           8802 ; ---------------------------------
   1718                    8803 ___cls2_start:
   1718                    8804 _cls2:
   1718 C5                 8805 	push	bc
                           8806 ;	mGBDisplayFunctions.c 184
                           8807 ; genAssign
                           8808 ; AOP_HL for _j
   1719 21 34 01           8809 	ld	hl,#_j + 0
   171C 36 00              8810 	ld	(hl),#0x00
                           8811 ; genLabel
   171E                    8812 00101$:
                           8813 ; genCmpEq
                           8814 ; AOP_HL for _j
   171E 21 34 01           8815 	ld	hl,#_j + 0
   1721 7E                 8816 	ld	a,(hl) ; 2
   1722 FE 14              8817 	cp	a,#0x14
                           8818 ; Rule 5
   1724 CA 3B 17           8819 	jp	z,00104$
   1727                    8820 00115$:
                           8821 ; genAssign
                           8822 ; AOP_HL for _j
   1727 21 34 01           8823 	ld	hl,#_j + 0
   172A 4E                 8824 	ld	c,(hl)
                           8825 ; genPlus
   172B 3E 59              8826 	ld	a,#<_bkg
   172D 81                 8827 	add	a,c
   172E 5F                 8828 	ld	e,a
   172F 3E 01              8829 	ld	a,#>_bkg
   1731 CE 00              8830 	adc	a,#0x00
   1733 57                 8831 	ld	d,a
                           8832 ; genAssign (pointer)
   1734 3E 00              8833 	ld	a,#0x00
   1736 12                 8834 	ld	(de),a
                           8835 ; genPlus
                           8836 ; AOP_HL for _j
                           8837 ; genPlusIncr
   1737 34                 8838 	inc	(hl)
                           8839 ; genGoto
   1738 C3 1E 17           8840 	jp	00101$
                           8841 ; genLabel
   173B                    8842 00104$:
                           8843 ;	mGBDisplayFunctions.c 185
                           8844 ; genAssign
                           8845 ; AOP_HL for _j
   173B 21 34 01           8846 	ld	hl,#_j + 0
   173E 36 00              8847 	ld	(hl),#0x00
                           8848 ; genLabel
   1740                    8849 00105$:
                           8850 ; genCmpEq
                           8851 ; AOP_HL for _j
   1740 21 34 01           8852 	ld	hl,#_j + 0
   1743 7E                 8853 	ld	a,(hl) ; 2
   1744 FE 12              8854 	cp	a,#0x12
                           8855 ; Rule 5
   1746 CA 6B 17           8856 	jp	z,00109$
   1749                    8857 00116$:
                           8858 ;	mGBDisplayFunctions.c 186
                           8859 ; genIpush
   1749 21 59 01           8860 	ld	hl,#_bkg + 0
   174C E5                 8861 	push	hl
                           8862 ; genIpush
   174D 3E 01              8863 	ld	a,#0x01
   174F F5                 8864 	push	af
   1750 33                 8865 	inc	sp
                           8866 ; genIpush
   1751 3E 14              8867 	ld	a,#0x14
   1753 F5                 8868 	push	af
   1754 33                 8869 	inc	sp
                           8870 ; genIpush
                           8871 ; AOP_HL for _j
   1755 21 34 01           8872 	ld	hl,#_j + 0
   1758 7E                 8873 	ld	a,(hl)
   1759 F5                 8874 	push	af
   175A 33                 8875 	inc	sp
                           8876 ; genIpush
   175B 3E 00              8877 	ld	a,#0x00
   175D F5                 8878 	push	af
   175E 33                 8879 	inc	sp
                           8880 ; genCall
   175F CD 00 00           8881 	call	_set_bkg_tiles
   1762 E8 06              8882 	lda	sp,6(sp)
                           8883 ;	mGBDisplayFunctions.c 185
                           8884 ; genPlus
                           8885 ; AOP_HL for _j
                           8886 ; genPlusIncr
   1764 21 34 01           8887 	ld	hl,#_j + 0
   1767 34                 8888 	inc	(hl)
                           8889 ; genGoto
   1768 C3 40 17           8890 	jp	00105$
                           8891 ; genLabel
   176B                    8892 00109$:
                           8893 ; genEndFunction
   176B C1                 8894 	pop	bc
   176C C9                 8895 	ret
   176D                    8896 ___cls2_end:
                           8897 ;	mGBDisplayFunctions.c 190
                           8898 ; genLabel
                           8899 ; genFunction
                           8900 ;	---------------------------------
                           8901 ; Function showSampleScreen
                           8902 ; ---------------------------------
   176D                    8903 ___showSampleScreen_start:
   176D                    8904 _showSampleScreen:
   176D C5                 8905 	push	bc
                           8906 ;	mGBDisplayFunctions.c 192
                           8907 ; genCall
   176E CD 7D 15           8908 	call	_hideCursor
                           8909 ;	mGBDisplayFunctions.c 193
                           8910 ; genCall
   1771 CD 18 17           8911 	call	_cls2
                           8912 ;	mGBDisplayFunctions.c 194
                           8913 ; genAssign
                           8914 ; AOP_HL for _currentScreen
   1774 21 EB 01           8915 	ld	hl,#_currentScreen + 0
   1777 36 01              8916 	ld	(hl),#0x01
                           8917 ; genLabel
   1779                    8918 00101$:
                           8919 ; genEndFunction
   1779 C1                 8920 	pop	bc
   177A C9                 8921 	ret
   177B                    8922 ___showSampleScreen_end:
                           8923 ;	mGBDisplayFunctions.c 197
                           8924 ; genLabel
                           8925 ; genFunction
                           8926 ;	---------------------------------
                           8927 ; Function showMainScreen
                           8928 ; ---------------------------------
   177B                    8929 ___showMainScreen_start:
   177B                    8930 _showMainScreen:
   177B C5                 8931 	push	bc
   177C E8 FC              8932 	lda sp,-4(sp)
                           8933 ;	mGBDisplayFunctions.c 199
                           8934 ; genCall
   177E CD 18 17           8935 	call	_cls2
                           8936 ;	mGBDisplayFunctions.c 200
                           8937 ; genAssign
                           8938 ; AOP_HL for _currentScreen
   1781 21 EB 01           8939 	ld	hl,#_currentScreen + 0
   1784 36 01              8940 	ld	(hl),#0x01
                           8941 ;	mGBDisplayFunctions.c 201
                           8942 ; genAssign (pointer)
   1786 11 59 01           8943 	ld	de,#_bkg + 0
   1789 3E 42              8944 	ld	a,#0x42
   178B 12                 8945 	ld	(de),a
                           8946 ; genIpush
   178C 21 59 01           8947 	ld	hl,#_bkg + 0
   178F E5                 8948 	push	hl
                           8949 ; genIpush
   1790 3E 01              8950 	ld	a,#0x01
   1792 F5                 8951 	push	af
   1793 33                 8952 	inc	sp
                           8953 ; genIpush
   1794 3E 01              8954 	ld	a,#0x01
   1796 F5                 8955 	push	af
   1797 33                 8956 	inc	sp
                           8957 ; genIpush
   1798 3E 02              8958 	ld	a,#0x02
   179A F5                 8959 	push	af
   179B 33                 8960 	inc	sp
                           8961 ; genIpush
   179C 3E 03              8962 	ld	a,#0x03
   179E F5                 8963 	push	af
   179F 33                 8964 	inc	sp
                           8965 ; genCall
   17A0 CD 00 00           8966 	call	_set_bkg_tiles
   17A3 E8 06              8967 	lda	sp,6(sp)
                           8968 ;	mGBDisplayFunctions.c 202
                           8969 ; genAssign (pointer)
   17A5 11 59 01           8970 	ld	de,#_bkg + 0
   17A8 3E 43              8971 	ld	a,#0x43
   17AA 12                 8972 	ld	(de),a
                           8973 ; genIpush
   17AB 21 59 01           8974 	ld	hl,#_bkg + 0
   17AE E5                 8975 	push	hl
                           8976 ; genIpush
   17AF 3E 01              8977 	ld	a,#0x01
   17B1 F5                 8978 	push	af
   17B2 33                 8979 	inc	sp
                           8980 ; genIpush
   17B3 3E 01              8981 	ld	a,#0x01
   17B5 F5                 8982 	push	af
   17B6 33                 8983 	inc	sp
                           8984 ; genIpush
   17B7 3E 02              8985 	ld	a,#0x02
   17B9 F5                 8986 	push	af
   17BA 33                 8987 	inc	sp
                           8988 ; genIpush
   17BB 3E 07              8989 	ld	a,#0x07
   17BD F5                 8990 	push	af
   17BE 33                 8991 	inc	sp
                           8992 ; genCall
   17BF CD 00 00           8993 	call	_set_bkg_tiles
   17C2 E8 06              8994 	lda	sp,6(sp)
                           8995 ;	mGBDisplayFunctions.c 203
                           8996 ; genAssign (pointer)
   17C4 11 59 01           8997 	ld	de,#_bkg + 0
   17C7 3E 44              8998 	ld	a,#0x44
   17C9 12                 8999 	ld	(de),a
                           9000 ; genIpush
   17CA 21 59 01           9001 	ld	hl,#_bkg + 0
   17CD E5                 9002 	push	hl
                           9003 ; genIpush
   17CE 3E 01              9004 	ld	a,#0x01
   17D0 F5                 9005 	push	af
   17D1 33                 9006 	inc	sp
                           9007 ; genIpush
   17D2 3E 01              9008 	ld	a,#0x01
   17D4 F5                 9009 	push	af
   17D5 33                 9010 	inc	sp
                           9011 ; genIpush
   17D6 3E 02              9012 	ld	a,#0x02
   17D8 F5                 9013 	push	af
   17D9 33                 9014 	inc	sp
                           9015 ; genIpush
   17DA 3E 0B              9016 	ld	a,#0x0B
   17DC F5                 9017 	push	af
   17DD 33                 9018 	inc	sp
                           9019 ; genCall
   17DE CD 00 00           9020 	call	_set_bkg_tiles
   17E1 E8 06              9021 	lda	sp,6(sp)
                           9022 ;	mGBDisplayFunctions.c 204
                           9023 ; genAssign (pointer)
   17E3 11 59 01           9024 	ld	de,#_bkg + 0
   17E6 3E 45              9025 	ld	a,#0x45
   17E8 12                 9026 	ld	(de),a
                           9027 ; genIpush
   17E9 21 59 01           9028 	ld	hl,#_bkg + 0
   17EC E5                 9029 	push	hl
                           9030 ; genIpush
   17ED 3E 01              9031 	ld	a,#0x01
   17EF F5                 9032 	push	af
   17F0 33                 9033 	inc	sp
                           9034 ; genIpush
   17F1 3E 01              9035 	ld	a,#0x01
   17F3 F5                 9036 	push	af
   17F4 33                 9037 	inc	sp
                           9038 ; genIpush
   17F5 3E 02              9039 	ld	a,#0x02
   17F7 F5                 9040 	push	af
   17F8 33                 9041 	inc	sp
                           9042 ; genIpush
   17F9 3E 0F              9043 	ld	a,#0x0F
   17FB F5                 9044 	push	af
   17FC 33                 9045 	inc	sp
                           9046 ; genCall
   17FD CD 00 00           9047 	call	_set_bkg_tiles
   1800 E8 06              9048 	lda	sp,6(sp)
                           9049 ;	mGBDisplayFunctions.c 206
                           9050 ; genAssign
                           9051 ; AOP_HL for _j
   1802 21 34 01           9052 	ld	hl,#_j + 0
   1805 36 00              9053 	ld	(hl),#0x00
                           9054 ; genPlus
                           9055 ; AOP_STK for _showMainScreen_sloc0_1_0
                           9056 ; genPlusIncr
   1807 3E 59              9057 	ld	a,#<_bkg
   1809 C6 01              9058 	add	a,#0x01
   180B F8 02              9059 	lda	hl,2(sp)
   180D 77                 9060 	ld	(hl),a ; 3
   180E 3E 01              9061 	ld	a,#>_bkg
   1810 CE 00              9062 	adc	a,#0x00
   1812 23                 9063 	inc	hl
   1813 77                 9064 	ld	(hl),a ; 3
                           9065 ; genLabel
   1814                    9066 00101$:
                           9067 ; genCmpEq
                           9068 ; AOP_HL for _j
   1814 21 34 01           9069 	ld	hl,#_j + 0
   1817 7E                 9070 	ld	a,(hl) ; 2
   1818 FE 1C              9071 	cp	a,#0x1C
                           9072 ; Rule 5
   181A CA 72 18           9073 	jp	z,00104$
   181D                    9074 00109$:
                           9075 ;	mGBDisplayFunctions.c 207
                           9076 ; genAssign (pointer)
                           9077 ; AOP_STK for _showMainScreen_sloc0_1_0
   181D F8 02              9078 	lda	hl,2(sp)
   181F 5E                 9079 	ld	e,(hl)
   1820 23                 9080 	inc	hl
   1821 56                 9081 	ld	d,(hl)
   1822 3E 01              9082 	ld	a,#0x01
   1824 12                 9083 	ld	(de),a
                           9084 ; genAssign (pointer)
   1825 11 59 01           9085 	ld	de,#_bkg + 0
   1828 3E 01              9086 	ld	a,#0x01
   182A 12                 9087 	ld	(de),a
                           9088 ;	mGBDisplayFunctions.c 208
                           9089 ; genIpush
   182B 3E 03              9090 	ld	a,#0x03
   182D F5                 9091 	push	af
   182E 33                 9092 	inc	sp
                           9093 ; genIpush
                           9094 ; AOP_HL for _j
   182F 21 34 01           9095 	ld	hl,#_j + 0
   1832 7E                 9096 	ld	a,(hl)
   1833 F5                 9097 	push	af
   1834 33                 9098 	inc	sp
                           9099 ; genCall
   1835 CD 00 00           9100 	call	__muluchar
   1838 4B                 9101 	ld	c,e
   1839 E8 02              9102 	lda	sp,2(sp)
                           9103 ; genPlus
                           9104 ; AOP_STK for _showMainScreen_sloc1_1_0
   183B 3E 8D              9105 	ld	a,#<_tableData
   183D 81                 9106 	add	a,c
   183E F8 00              9107 	lda	hl,0(sp)
   1840 77                 9108 	ld	(hl),a ; 3
   1841 3E 31              9109 	ld	a,#>_tableData
   1843 CE 00              9110 	adc	a,#0x00
   1845 23                 9111 	inc	hl
   1846 77                 9112 	ld	(hl),a ; 3
                           9113 ; genPlus
                           9114 ; AOP_STK for _showMainScreen_sloc1_1_0
                           9115 ; genPlusIncr
   1847 2B                 9116 	dec	hl
   1848 5E                 9117 	ld	e,(hl)
   1849 23                 9118 	inc	hl
   184A 56                 9119 	ld	d,(hl)
   184B 13                 9120 	inc	de
                           9121 ; genPointerGet
   184C 1A                 9122 	ld	a,(de)
   184D 4F                 9123 	ld	c,a
                           9124 ; genPointerGet
                           9125 ; AOP_STK for _showMainScreen_sloc1_1_0
   184E 2B                 9126 	dec	hl
   184F 5E                 9127 	ld	e,(hl)
   1850 23                 9128 	inc	hl
   1851 56                 9129 	ld	d,(hl)
   1852 1A                 9130 	ld	a,(de)
   1853 47                 9131 	ld	b,a
                           9132 ; genIpush
   1854 21 59 01           9133 	ld	hl,#_bkg + 0
   1857 E5                 9134 	push	hl
                           9135 ; genIpush
   1858 3E 01              9136 	ld	a,#0x01
   185A F5                 9137 	push	af
   185B 33                 9138 	inc	sp
                           9139 ; genIpush
   185C 3E 02              9140 	ld	a,#0x02
   185E F5                 9141 	push	af
   185F 33                 9142 	inc	sp
                           9143 ; genIpush
   1860 79                 9144 	ld	a,c
   1861 F5                 9145 	push	af
   1862 33                 9146 	inc	sp
                           9147 ; genIpush
   1863 78                 9148 	ld	a,b
   1864 F5                 9149 	push	af
   1865 33                 9150 	inc	sp
                           9151 ; genCall
   1866 CD 00 00           9152 	call	_set_bkg_tiles
   1869 E8 06              9153 	lda	sp,6(sp)
                           9154 ;	mGBDisplayFunctions.c 206
                           9155 ; genPlus
                           9156 ; AOP_HL for _j
                           9157 ; genPlusIncr
   186B 21 34 01           9158 	ld	hl,#_j + 0
   186E 34                 9159 	inc	(hl)
                           9160 ; genGoto
   186F C3 14 18           9161 	jp	00101$
                           9162 ; genLabel
   1872                    9163 00104$:
                           9164 ;	mGBDisplayFunctions.c 211
                           9165 ; genCall
   1872 CD 7C 12           9166 	call	_updateDisplay
                           9167 ;	mGBDisplayFunctions.c 212
                           9168 ; genCall
   1875 CD BD 15           9169 	call	_showCursor
                           9170 ; genLabel
   1878                    9171 00105$:
                           9172 ; genEndFunction
   1878 E8 04              9173 	lda	sp,4(sp)
   187A C1                 9174 	pop bc
   187B C9                 9175 	ret
   187C                    9176 ___showMainScreen_end:
                           9177 ;	mGBDisplayFunctions.c 215
                           9178 ; genLabel
                           9179 ; genFunction
                           9180 ;	---------------------------------
                           9181 ; Function showSplashScreen
                           9182 ; ---------------------------------
   187C                    9183 ___showSplashScreen_start:
   187C                    9184 _showSplashScreen:
   187C C5                 9185 	push	bc
                           9186 ;	mGBDisplayFunctions.c 217
                           9187 ; genCall
   187D CD 7D 15           9188 	call	_hideCursor
                           9189 ;	mGBDisplayFunctions.c 218
                           9190 ; genCall
   1880 CD 18 17           9191 	call	_cls2
                           9192 ;	mGBDisplayFunctions.c 219
                           9193 ; genIpush
   1883 21 33 31           9194 	ld	hl,#_logo + 0
   1886 E5                 9195 	push	hl
                           9196 ; genIpush
   1887 3E 02              9197 	ld	a,#0x02
   1889 F5                 9198 	push	af
   188A 33                 9199 	inc	sp
                           9200 ; genIpush
   188B 3E 08              9201 	ld	a,#0x08
   188D F5                 9202 	push	af
   188E 33                 9203 	inc	sp
                           9204 ; genIpush
   188F 3E 07              9205 	ld	a,#0x07
   1891 F5                 9206 	push	af
   1892 33                 9207 	inc	sp
                           9208 ; genIpush
   1893 3E 06              9209 	ld	a,#0x06
   1895 F5                 9210 	push	af
   1896 33                 9211 	inc	sp
                           9212 ; genCall
   1897 CD 00 00           9213 	call	_set_bkg_tiles
   189A E8 06              9214 	lda	sp,6(sp)
                           9215 ; genLabel
   189C                    9216 00101$:
                           9217 ; genEndFunction
   189C C1                 9218 	pop	bc
   189D C9                 9219 	ret
   189E                    9220 ___showSplashScreen_end:
                           9221 ;	mGBDisplayFunctions.c 222
                           9222 ; genLabel
                           9223 ; genFunction
                           9224 ;	---------------------------------
                           9225 ; Function toggleScreen
                           9226 ; ---------------------------------
   189E                    9227 ___toggleScreen_start:
   189E                    9228 _toggleScreen:
   189E C5                 9229 	push	bc
                           9230 ;	mGBDisplayFunctions.c 224
                           9231 ; genCmpEq
                           9232 ; AOP_HL for _currentScreen
   189F 21 EB 01           9233 	ld	hl,#_currentScreen + 0
   18A2 7E                 9234 	ld	a,(hl)
   18A3 B7                 9235 	or	a,a
   18A4 C2 A9 18           9236 	jp	nz,00107$
   18A7 18 03              9237 	jr	00108$
   18A9                    9238 00107$:
   18A9 C3 B8 18           9239 	jp	00102$
   18AC                    9240 00108$:
                           9241 ;	mGBDisplayFunctions.c 225
                           9242 ; genOr
                           9243 ; AOP_SFR for _LCDC_REG
                           9244 ; Type res[4] = l[4]&r[1]
                           9245 ; Size res[1] = l[1]&r[1]
   18AC F0 00              9246 	ldh	a,(_LCDC_REG+0) ; x
   18AE F6 80              9247 	or	a,#0x80
   18B0 E0 00              9248 	ldh	(_LCDC_REG+0),a
                           9249 ;	mGBDisplayFunctions.c 226
                           9250 ; genCall
   18B2 CD 7B 17           9251 	call	_showMainScreen
                           9252 ; genGoto
   18B5 C3 C0 18           9253 	jp	00104$
                           9254 ; genLabel
   18B8                    9255 00102$:
                           9256 ;	mGBDisplayFunctions.c 228
                           9257 ; genAssign
                           9258 ; AOP_HL for _currentScreen
   18B8 21 EB 01           9259 	ld	hl,#_currentScreen + 0
   18BB 36 00              9260 	ld	(hl),#0x00
                           9261 ;	mGBDisplayFunctions.c 229
                           9262 ; genCall
   18BD CD 00 00           9263 	call	_display_off
                           9264 ; genLabel
   18C0                    9265 00104$:
                           9266 ; genEndFunction
   18C0 C1                 9267 	pop	bc
   18C1 C9                 9268 	ret
   18C2                    9269 ___toggleScreen_end:
                           9270 ;	mGBDisplayFunctions.c 233
                           9271 ; genLabel
                           9272 ; genFunction
                           9273 ;	---------------------------------
                           9274 ; Function displaySetup
                           9275 ; ---------------------------------
   18C2                    9276 ___displaySetup_start:
   18C2                    9277 _displaySetup:
   18C2 C5                 9278 	push	bc
   18C3 E8 FD              9279 	lda sp,-3(sp)
                           9280 ;	mGBDisplayFunctions.c 235
                           9281 ; genCall
   18C5 CD 00 00           9282 	call	_display_off
                           9283 ;	mGBDisplayFunctions.c 236
                           9284 ; genIpush
   18C8 21 43 31           9285 	ld	hl,#_bgpalette + 0
   18CB E5                 9286 	push	hl
                           9287 ; genIpush
   18CC 3E 01              9288 	ld	a,#0x01
   18CE F5                 9289 	push	af
   18CF 33                 9290 	inc	sp
                           9291 ; genIpush
   18D0 3E 00              9292 	ld	a,#0x00
   18D2 F5                 9293 	push	af
   18D3 33                 9294 	inc	sp
                           9295 ; genCall
   18D4 CD 00 00           9296 	call	_set_bkg_palette
   18D7 E8 04              9297 	lda	sp,4(sp)
                           9298 ;	mGBDisplayFunctions.c 239
                           9299 ; genIpush
   18D9 21 8B 2A           9300 	ld	hl,#_data_font + 0
   18DC E5                 9301 	push	hl
                           9302 ; genIpush
   18DD 3E 5C              9303 	ld	a,#0x5C
   18DF F5                 9304 	push	af
   18E0 33                 9305 	inc	sp
                           9306 ; genIpush
   18E1 3E 00              9307 	ld	a,#0x00
   18E3 F5                 9308 	push	af
   18E4 33                 9309 	inc	sp
                           9310 ; genCall
   18E5 CD 00 00           9311 	call	_set_bkg_data
   18E8 E8 04              9312 	lda	sp,4(sp)
                           9313 ;	mGBDisplayFunctions.c 242
                           9314 ; genIpush
   18EA 21 4B 31           9315 	ld	hl,#_spritepalette + 0
   18ED E5                 9316 	push	hl
                           9317 ; genIpush
   18EE 3E 02              9318 	ld	a,#0x02
   18F0 F5                 9319 	push	af
   18F1 33                 9320 	inc	sp
                           9321 ; genIpush
   18F2 3E 00              9322 	ld	a,#0x00
   18F4 F5                 9323 	push	af
   18F5 33                 9324 	inc	sp
                           9325 ; genCall
   18F6 CD 00 00           9326 	call	_set_sprite_palette
   18F9 E8 04              9327 	lda	sp,4(sp)
                           9328 ;	mGBDisplayFunctions.c 244
                           9329 ; genAssign
                           9330 ; AOP_HL for _j
   18FB 21 34 01           9331 	ld	hl,#_j + 0
   18FE 36 00              9332 	ld	(hl),#0x00
                           9333 ; genLabel
   1900                    9334 00101$:
                           9335 ; genCmpEq
                           9336 ; AOP_HL for _j
   1900 21 34 01           9337 	ld	hl,#_j + 0
   1903 7E                 9338 	ld	a,(hl) ; 2
   1904 FE 04              9339 	cp	a,#0x04
                           9340 ; Rule 5
   1906 CA B8 19           9341 	jp	z,00104$
   1909                    9342 00127$:
                           9343 ;	mGBDisplayFunctions.c 245
                           9344 ; genAssign
                           9345 ; AOP_HL for _j
   1909 21 34 01           9346 	ld	hl,#_j + 0
   190C 4E                 9347 	ld	c,(hl)
                           9348 ; genPlus
                           9349 ; AOP_STK for _displaySetup_sloc0_1_0
   190D 3E 77              9350 	ld	a,#<_cursorBigStartX
   190F 81                 9351 	add	a,c
   1910 F8 01              9352 	lda	hl,1(sp)
   1912 77                 9353 	ld	(hl),a ; 3
   1913 3E 01              9354 	ld	a,#>_cursorBigStartX
   1915 CE 00              9355 	adc	a,#0x00
   1917 23                 9356 	inc	hl
   1918 77                 9357 	ld	(hl),a ; 3
                           9358 ; genAssign
                           9359 ; AOP_HL for _SCREEN_PSTARTX
   1919 21 5F 31           9360 	ld	hl,#_SCREEN_PSTARTX + 0
   191C 4E                 9361 	ld	c,(hl)
                           9362 ; genAssign
                           9363 ; AOP_HL for _SCREEN_XO
   191D 21 5B 31           9364 	ld	hl,#_SCREEN_XO + 0
   1920 7E                 9365 	ld	a,(hl)
                           9366 ; genPlus
   1921 81                 9367 	add	a,c
   1922 4F                 9368 	ld	c,a
                           9369 ; genAssign
                           9370 ; AOP_HL for _SCREEN_XSPACE
   1923 21 5D 31           9371 	ld	hl,#_SCREEN_XSPACE + 0
   1926 46                 9372 	ld	b,(hl)
                           9373 ; genIpush
   1927 78                 9374 	ld	a,b
   1928 F5                 9375 	push	af
   1929 33                 9376 	inc	sp
                           9377 ; genIpush
                           9378 ; AOP_HL for _j
   192A 21 34 01           9379 	ld	hl,#_j + 0
   192D 7E                 9380 	ld	a,(hl)
   192E F5                 9381 	push	af
   192F 33                 9382 	inc	sp
                           9383 ; genCall
   1930 CD 00 00           9384 	call	__muluchar
   1933 43                 9385 	ld	b,e
   1934 E8 02              9386 	lda	sp,2(sp)
                           9387 ; genPlus
                           9388 ; AOP_STK for _displaySetup_sloc1_1_0
   1936 79                 9389 	ld	a,c
   1937 80                 9390 	add	a,b
   1938 F8 00              9391 	lda	hl,0(sp)
   193A 77                 9392 	ld	(hl),a ; 3
                           9393 ; genMinus
                           9394 ; AOP_STK for _displaySetup_sloc1_1_0
   193B 7E                 9395 	ld	a,(hl)
   193C C6 FF              9396 	add	a,#0xFF
   193E 47                 9397 	ld	b,a
                           9398 ; genAssign (pointer)
                           9399 ; AOP_STK for _displaySetup_sloc0_1_0
   193F 23                 9400 	inc	hl
   1940 5E                 9401 	ld	e,(hl)
   1941 23                 9402 	inc	hl
   1942 56                 9403 	ld	d,(hl)
   1943 78                 9404 	ld	a,b
   1944 12                 9405 	ld	(de),a
                           9406 ;	mGBDisplayFunctions.c 246
                           9407 ; genAssign
                           9408 ; AOP_HL for _j
   1945 21 34 01           9409 	ld	hl,#_j + 0
   1948 46                 9410 	ld	b,(hl)
                           9411 ; genPlus
                           9412 ; AOP_STK for _displaySetup_sloc0_1_0
   1949 3E 7B              9413 	ld	a,#<_cursorBigStartY
   194B 80                 9414 	add	a,b
   194C F8 01              9415 	lda	hl,1(sp)
   194E 77                 9416 	ld	(hl),a ; 3
   194F 3E 01              9417 	ld	a,#>_cursorBigStartY
   1951 CE 00              9418 	adc	a,#0x00
   1953 23                 9419 	inc	hl
   1954 77                 9420 	ld	(hl),a ; 3
                           9421 ; genAssign
                           9422 ; AOP_HL for _SCREEN_PSTARTY
   1955 21 60 31           9423 	ld	hl,#_SCREEN_PSTARTY + 0
   1958 4E                 9424 	ld	c,(hl)
                           9425 ; genAssign
                           9426 ; AOP_HL for _SCREEN_YO
   1959 21 5C 31           9427 	ld	hl,#_SCREEN_YO + 0
   195C 7E                 9428 	ld	a,(hl)
                           9429 ; genPlus
   195D 81                 9430 	add	a,c
   195E 4F                 9431 	ld	c,a
                           9432 ; genMinus
   195F 79                 9433 	ld	a,c
   1960 C6 F8              9434 	add	a,#0xF8
   1962 47                 9435 	ld	b,a
                           9436 ; genAssign (pointer)
                           9437 ; AOP_STK for _displaySetup_sloc0_1_0
   1963 F8 01              9438 	lda	hl,1(sp)
   1965 5E                 9439 	ld	e,(hl)
   1966 23                 9440 	inc	hl
   1967 56                 9441 	ld	d,(hl)
   1968 78                 9442 	ld	a,b
   1969 12                 9443 	ld	(de),a
                           9444 ;	mGBDisplayFunctions.c 247
                           9445 ; genAssign
                           9446 ; AOP_HL for _j
   196A 21 34 01           9447 	ld	hl,#_j + 0
   196D 46                 9448 	ld	b,(hl)
                           9449 ; genPlus
   196E 3E 7F              9450 	ld	a,#<_cursorStartX
   1970 80                 9451 	add	a,b
   1971 5F                 9452 	ld	e,a
   1972 3E 01              9453 	ld	a,#>_cursorStartX
   1974 CE 00              9454 	adc	a,#0x00
   1976 57                 9455 	ld	d,a
                           9456 ; genMinus
                           9457 ; AOP_STK for _displaySetup_sloc1_1_0
   1977 F8 00              9458 	lda	hl,0(sp)
   1979 7E                 9459 	ld	a,(hl)
   197A C6 F8              9460 	add	a,#0xF8
   197C 47                 9461 	ld	b,a
                           9462 ; genAssign (pointer)
   197D 78                 9463 	ld	a,b
   197E 12                 9464 	ld	(de),a
                           9465 ;	mGBDisplayFunctions.c 248
                           9466 ; genAssign
                           9467 ; AOP_HL for _j
   197F 21 34 01           9468 	ld	hl,#_j + 0
   1982 46                 9469 	ld	b,(hl)
                           9470 ; genPlus
   1983 3E 83              9471 	ld	a,#<_cursorStartY
   1985 80                 9472 	add	a,b
   1986 5F                 9473 	ld	e,a
   1987 3E 01              9474 	ld	a,#>_cursorStartY
   1989 CE 00              9475 	adc	a,#0x00
   198B 57                 9476 	ld	d,a
                           9477 ; genAssign (pointer)
   198C 79                 9478 	ld	a,c
   198D 12                 9479 	ld	(de),a
                           9480 ;	mGBDisplayFunctions.c 249
                           9481 ; genAssign
                           9482 ; AOP_HL for _j
   198E 4E                 9483 	ld	c,(hl)
                           9484 ; genPlus
                           9485 ; AOP_STK for _displaySetup_sloc0_1_0
   198F 3E 73              9486 	ld	a,#<_cursorRow
   1991 81                 9487 	add	a,c
   1992 F8 01              9488 	lda	hl,1(sp)
   1994 77                 9489 	ld	(hl),a ; 3
   1995 3E 01              9490 	ld	a,#>_cursorRow
   1997 CE 00              9491 	adc	a,#0x00
   1999 23                 9492 	inc	hl
   199A 77                 9493 	ld	(hl),a ; 3
                           9494 ; genAssign
                           9495 ; AOP_HL for _j
   199B 21 34 01           9496 	ld	hl,#_j + 0
   199E 4E                 9497 	ld	c,(hl)
                           9498 ; genPlus
   199F 3E 83              9499 	ld	a,#<_cursorStartY
   19A1 81                 9500 	add	a,c
   19A2 5F                 9501 	ld	e,a
   19A3 3E 01              9502 	ld	a,#>_cursorStartY
   19A5 CE 00              9503 	adc	a,#0x00
   19A7 57                 9504 	ld	d,a
                           9505 ; genPointerGet
   19A8 1A                 9506 	ld	a,(de)
   19A9 4F                 9507 	ld	c,a
                           9508 ; genAssign (pointer)
                           9509 ; AOP_STK for _displaySetup_sloc0_1_0
   19AA F8 01              9510 	lda	hl,1(sp)
   19AC 5E                 9511 	ld	e,(hl)
   19AD 23                 9512 	inc	hl
   19AE 56                 9513 	ld	d,(hl)
   19AF 79                 9514 	ld	a,c
   19B0 12                 9515 	ld	(de),a
                           9516 ;	mGBDisplayFunctions.c 244
                           9517 ; genPlus
                           9518 ; AOP_HL for _j
                           9519 ; genPlusIncr
   19B1 21 34 01           9520 	ld	hl,#_j + 0
   19B4 34                 9521 	inc	(hl)
                           9522 ; genGoto
   19B5 C3 00 19           9523 	jp	00101$
                           9524 ; genLabel
   19B8                    9525 00104$:
                           9526 ;	mGBDisplayFunctions.c 252
                           9527 ; genAnd
                           9528 ; AOP_SFR for _LCDC_REG
   19B8 F0 00              9529 	ldh	a,(_LCDC_REG+0) ; x
   19BA E6 FB              9530 	and	a,#0xFB
   19BC E0 00              9531 	ldh	(_LCDC_REG+0),a
                           9532 ;	mGBDisplayFunctions.c 254
                           9533 ; genIpush
   19BE 21 6B 2A           9534 	ld	hl,#_data_barrow + 0
   19C1 E5                 9535 	push	hl
                           9536 ; genIpush
   19C2 3E 01              9537 	ld	a,#0x01
   19C4 F5                 9538 	push	af
   19C5 33                 9539 	inc	sp
                           9540 ; genIpush
   19C6 3E 80              9541 	ld	a,#0x80
   19C8 F5                 9542 	push	af
   19C9 33                 9543 	inc	sp
                           9544 ; genCall
   19CA CD 00 00           9545 	call	_set_sprite_data
   19CD E8 04              9546 	lda	sp,4(sp)
                           9547 ;	mGBDisplayFunctions.c 255
                           9548 ; genIpush
   19CF 21 7B 2A           9549 	ld	hl,#_data_larrow + 0
   19D2 E5                 9550 	push	hl
                           9551 ; genIpush
   19D3 3E 01              9552 	ld	a,#0x01
   19D5 F5                 9553 	push	af
   19D6 33                 9554 	inc	sp
                           9555 ; genIpush
   19D7 3E 79              9556 	ld	a,#0x79
   19D9 F5                 9557 	push	af
   19DA 33                 9558 	inc	sp
                           9559 ; genCall
   19DB CD 00 00           9560 	call	_set_sprite_data
   19DE E8 04              9561 	lda	sp,4(sp)
                           9562 ;	mGBDisplayFunctions.c 258
                           9563 ; genIpush
   19E0 3E 80              9564 	ld	a,#0x80
   19E2 F5                 9565 	push	af
   19E3 33                 9566 	inc	sp
                           9567 ; genIpush
   19E4 3E 1A              9568 	ld	a,#0x1A
   19E6 F5                 9569 	push	af
   19E7 33                 9570 	inc	sp
                           9571 ; genCall
   19E8 CD 00 00           9572 	call	_set_sprite_tile
   19EB E8 02              9573 	lda	sp,2(sp)
                           9574 ;	mGBDisplayFunctions.c 259
                           9575 ; genAssign
                           9576 ; AOP_HL for _j
   19ED 21 34 01           9577 	ld	hl,#_j + 0
   19F0 36 00              9578 	ld	(hl),#0x00
                           9579 ; genLabel
   19F2                    9580 00105$:
                           9581 ; genCmpEq
                           9582 ; AOP_HL for _j
   19F2 21 34 01           9583 	ld	hl,#_j + 0
   19F5 7E                 9584 	ld	a,(hl) ; 2
   19F6 FE 04              9585 	cp	a,#0x04
                           9586 ; Rule 5
   19F8 CA 15 1A           9587 	jp	z,00108$
   19FB                    9588 00128$:
                           9589 ; genPlus
                           9590 ; AOP_HL for _j
                           9591 ; genPlusIncr
   19FB 21 34 01           9592 	ld	hl,#_j + 0
   19FE 7E                 9593 	ld	a,(hl)
   19FF C6 1B              9594 	add	a,#0x1B
   1A01 4F                 9595 	ld	c,a
                           9596 ; genIpush
   1A02 3E 79              9597 	ld	a,#0x79
   1A04 F5                 9598 	push	af
   1A05 33                 9599 	inc	sp
                           9600 ; genIpush
   1A06 79                 9601 	ld	a,c
   1A07 F5                 9602 	push	af
   1A08 33                 9603 	inc	sp
                           9604 ; genCall
   1A09 CD 00 00           9605 	call	_set_sprite_tile
   1A0C E8 02              9606 	lda	sp,2(sp)
                           9607 ; genPlus
                           9608 ; AOP_HL for _j
                           9609 ; genPlusIncr
   1A0E 21 34 01           9610 	ld	hl,#_j + 0
   1A11 34                 9611 	inc	(hl)
                           9612 ; genGoto
   1A12 C3 F2 19           9613 	jp	00105$
                           9614 ; genLabel
   1A15                    9615 00108$:
                           9616 ;	mGBDisplayFunctions.c 261
                           9617 ; genAssign
                           9618 ; AOP_HL for _j
   1A15 21 34 01           9619 	ld	hl,#_j + 0
   1A18 36 00              9620 	ld	(hl),#0x00
                           9621 ; genLabel
   1A1A                    9622 00109$:
                           9623 ; genCmpEq
                           9624 ; AOP_HL for _j
   1A1A 21 34 01           9625 	ld	hl,#_j + 0
   1A1D 7E                 9626 	ld	a,(hl) ; 2
   1A1E FE 04              9627 	cp	a,#0x04
                           9628 ; Rule 5
   1A20 CA 3D 1A           9629 	jp	z,00112$
   1A23                    9630 00129$:
                           9631 ; genPlus
                           9632 ; AOP_HL for _j
                           9633 ; genPlusIncr
   1A23 21 34 01           9634 	ld	hl,#_j + 0
   1A26 7E                 9635 	ld	a,(hl)
   1A27 C6 1A              9636 	add	a,#0x1A
   1A29 4F                 9637 	ld	c,a
                           9638 ; genIpush
   1A2A 3E 01              9639 	ld	a,#0x01
   1A2C F5                 9640 	push	af
   1A2D 33                 9641 	inc	sp
                           9642 ; genIpush
   1A2E 79                 9643 	ld	a,c
   1A2F F5                 9644 	push	af
   1A30 33                 9645 	inc	sp
                           9646 ; genCall
   1A31 CD 00 00           9647 	call	_set_sprite_prop
   1A34 E8 02              9648 	lda	sp,2(sp)
                           9649 ; genPlus
                           9650 ; AOP_HL for _j
                           9651 ; genPlusIncr
   1A36 21 34 01           9652 	ld	hl,#_j + 0
   1A39 34                 9653 	inc	(hl)
                           9654 ; genGoto
   1A3A C3 1A 1A           9655 	jp	00109$
                           9656 ; genLabel
   1A3D                    9657 00112$:
                           9658 ;	mGBDisplayFunctions.c 262
                           9659 ; genAssign
                           9660 ; AOP_HL for _j
   1A3D 21 34 01           9661 	ld	hl,#_j + 0
   1A40 36 00              9662 	ld	(hl),#0x00
                           9663 ; genLabel
   1A42                    9664 00113$:
                           9665 ; genCmpEq
                           9666 ; AOP_HL for _j
   1A42 21 34 01           9667 	ld	hl,#_j + 0
   1A45 7E                 9668 	ld	a,(hl) ; 2
   1A46 FE 04              9669 	cp	a,#0x04
                           9670 ; Rule 5
   1A48 CA 65 1A           9671 	jp	z,00116$
   1A4B                    9672 00130$:
                           9673 ; genPlus
                           9674 ; AOP_HL for _j
                           9675 ; genPlusIncr
   1A4B 21 34 01           9676 	ld	hl,#_j + 0
   1A4E 7E                 9677 	ld	a,(hl)
   1A4F C6 1B              9678 	add	a,#0x1B
   1A51 4F                 9679 	ld	c,a
                           9680 ; genIpush
   1A52 3E 01              9681 	ld	a,#0x01
   1A54 F5                 9682 	push	af
   1A55 33                 9683 	inc	sp
                           9684 ; genIpush
   1A56 79                 9685 	ld	a,c
   1A57 F5                 9686 	push	af
   1A58 33                 9687 	inc	sp
                           9688 ; genCall
   1A59 CD 00 00           9689 	call	_set_sprite_prop
   1A5C E8 02              9690 	lda	sp,2(sp)
                           9691 ; genPlus
                           9692 ; AOP_HL for _j
                           9693 ; genPlusIncr
   1A5E 21 34 01           9694 	ld	hl,#_j + 0
   1A61 34                 9695 	inc	(hl)
                           9696 ; genGoto
   1A62 C3 42 1A           9697 	jp	00113$
                           9698 ; genLabel
   1A65                    9699 00116$:
                           9700 ;	mGBDisplayFunctions.c 264
                           9701 ; genOr
                           9702 ; AOP_SFR for _LCDC_REG
                           9703 ; Type res[4] = l[4]&r[1]
                           9704 ; Size res[1] = l[1]&r[1]
   1A65 F0 00              9705 	ldh	a,(_LCDC_REG+0) ; x
   1A67 F6 80              9706 	or	a,#0x80
   1A69 E0 00              9707 	ldh	(_LCDC_REG+0),a
                           9708 ; genLabel
   1A6B                    9709 00117$:
                           9710 ; genEndFunction
   1A6B E8 03              9711 	lda	sp,3(sp)
   1A6D C1                 9712 	pop bc
   1A6E C9                 9713 	ret
   1A6F                    9714 ___displaySetup_end:
                           9715 ;	mGBMemoryFunctions.c 2
                           9716 ; genLabel
                           9717 ; genFunction
                           9718 ;	---------------------------------
                           9719 ; Function saveDataSet
                           9720 ; ---------------------------------
   1A6F                    9721 ___saveDataSet_start:
   1A6F                    9722 _saveDataSet:
   1A6F C5                 9723 	push	bc
   1A70 E8 FC              9724 	lda sp,-4(sp)
                           9725 ;	mGBMemoryFunctions.c 4
                           9726 ; genAssign
   1A72 11 00 00           9727 	ld	de,#0x0000
                           9728 ; genAssign (pointer)
   1A75 3E 0A              9729 	ld	a,#0x0A
   1A77 12                 9730 	ld	(de),a
                           9731 ;	mGBMemoryFunctions.c 5
                           9732 ; genPlus
                           9733 ; AOP_STK for 
                           9734 ; AOP_HL for _x
                           9735 ; genPlusIncr
   1A78 F8 08              9736 	lda	hl,8(sp)
   1A7A 7E                 9737 	ld	a,(hl)
   1A7B C6 18              9738 	add	a,#0x18
   1A7D 21 33 01           9739 	ld	hl,#_x + 0
   1A80 77                 9740 	ld	(hl),a
                           9741 ;	mGBMemoryFunctions.c 6
                           9742 ; genAssign
                           9743 ; AOP_HL for _x
   1A81 4E                 9744 	ld	c,(hl)
                           9745 ; genPlus
   1A82 3E CF              9746 	ld	a,#<_dataSet
   1A84 81                 9747 	add	a,c
   1A85 5F                 9748 	ld	e,a
   1A86 3E 01              9749 	ld	a,#>_dataSet
   1A88 CE 00              9750 	adc	a,#0x00
   1A8A 57                 9751 	ld	d,a
                           9752 ; genPointerGet
   1A8B 1A                 9753 	ld	a,(de)
   1A8C 4F                 9754 	ld	c,a
                           9755 ; genLeftShift
                           9756 ; AOP_HL for _x
   1A8D 79                 9757 	ld	a,c
   1A8E CB 17              9758 	rl	a
   1A90 CB 17              9759 	rl	a
   1A92 CB 17              9760 	rl	a
   1A94 E6 F8              9761 	and	a,#0xF8
   1A96 77                 9762 	ld	(hl),a
                           9763 ;	mGBMemoryFunctions.c 7
                           9764 ; genAssign
                           9765 ; AOP_HL for _i
   1A97 21 32 01           9766 	ld	hl,#_i + 0
   1A9A 36 00              9767 	ld	(hl),#0x00
                           9768 ;	mGBMemoryFunctions.c 8
                           9769 ; genCmpGt
                           9770 ; AOP_STK for 
   1A9C AF                 9771 	xor	a,a
   1A9D 3E 03              9772 	ld	a,#0x03
   1A9F F8 08              9773 	lda	hl,8(sp)
   1AA1 9E                 9774 	sbc	a,(hl) ; 2
   1AA2 DA FD 1B           9775 	jp	c,00105$
                           9776 ; genJumpTab
                           9777 ; AOP_STK for 
   1AA5 5E                 9778 	ld	e,(hl)
   1AA6 16 00              9779 	ld	d,#0x00
   1AA8 21 AF 1A           9780 	ld	hl,#00133$
   1AAB 19                 9781 	add	hl,de
   1AAC 19                 9782 	add	hl,de
   1AAD 19                 9783 	add	hl,de
   1AAE E9                 9784 	jp	(hl)
   1AAF                    9785 00133$:
   1AAF C3 BB 1A           9786 	jp	00101$
   1AB2 C3 FF 1A           9787 	jp	00102$
   1AB5 C3 4B 1B           9788 	jp	00103$
   1AB8 C3 A4 1B           9789 	jp	00104$
                           9790 ;	mGBMemoryFunctions.c 13
                           9791 ; genLabel
   1ABB                    9792 00101$:
                           9793 ;	mGBMemoryFunctions.c 10
                           9794 ; genAssign
                           9795 ; AOP_HL for _j
   1ABB 21 34 01           9796 	ld	hl,#_j + 0
   1ABE 36 00              9797 	ld	(hl),#0x00
                           9798 ; genLabel
   1AC0                    9799 00106$:
                           9800 ; genCmpEq
                           9801 ; AOP_HL for _j
   1AC0 21 34 01           9802 	ld	hl,#_j + 0
   1AC3 7E                 9803 	ld	a,(hl) ; 2
   1AC4 FE 07              9804 	cp	a,#0x07
                           9805 ; Rule 5
   1AC6 CA FD 1B           9806 	jp	z,00105$
   1AC9                    9807 00134$:
                           9808 ;	mGBMemoryFunctions.c 11
                           9809 ; genPlus
                           9810 ; AOP_HL for _x
                           9811 ; AOP_HL for _i
   1AC9 21 33 01           9812 	ld	hl,#_x + 0
   1ACC 7E                 9813 	ld	a,(hl)
   1ACD 21 32 01           9814 	ld	hl,#_i + 0
   1AD0 86                 9815 	add	a,(hl)
   1AD1 4F                 9816 	ld	c,a
                           9817 ; genPlus
                           9818 ; AOP_STK for _saveDataSet_sloc0_1_0
   1AD2 3E 00              9819 	ld	a,#<_saveData
   1AD4 81                 9820 	add	a,c
   1AD5 F8 02              9821 	lda	hl,2(sp)
   1AD7 77                 9822 	ld	(hl),a ; 3
   1AD8 3E 00              9823 	ld	a,#>_saveData
   1ADA CE 00              9824 	adc	a,#0x00
   1ADC 23                 9825 	inc	hl
   1ADD 77                 9826 	ld	(hl),a ; 3
                           9827 ; genAssign
                           9828 ; AOP_HL for _j
   1ADE 21 34 01           9829 	ld	hl,#_j + 0
   1AE1 4E                 9830 	ld	c,(hl)
                           9831 ; genPlus
   1AE2 3E CF              9832 	ld	a,#<_dataSet
   1AE4 81                 9833 	add	a,c
   1AE5 5F                 9834 	ld	e,a
   1AE6 3E 01              9835 	ld	a,#>_dataSet
   1AE8 CE 00              9836 	adc	a,#0x00
   1AEA 57                 9837 	ld	d,a
                           9838 ; genPointerGet
   1AEB 1A                 9839 	ld	a,(de)
   1AEC 4F                 9840 	ld	c,a
                           9841 ; genAssign (pointer)
                           9842 ; AOP_STK for _saveDataSet_sloc0_1_0
   1AED F8 02              9843 	lda	hl,2(sp)
   1AEF 5E                 9844 	ld	e,(hl)
   1AF0 23                 9845 	inc	hl
   1AF1 56                 9846 	ld	d,(hl)
   1AF2 79                 9847 	ld	a,c
   1AF3 12                 9848 	ld	(de),a
                           9849 ;	mGBMemoryFunctions.c 12
                           9850 ; genPlus
                           9851 ; AOP_HL for _i
                           9852 ; genPlusIncr
   1AF4 21 32 01           9853 	ld	hl,#_i + 0
   1AF7 34                 9854 	inc	(hl)
                           9855 ;	mGBMemoryFunctions.c 10
                           9856 ; genPlus
                           9857 ; AOP_HL for _j
                           9858 ; genPlusIncr
   1AF8 21 34 01           9859 	ld	hl,#_j + 0
   1AFB 34                 9860 	inc	(hl)
                           9861 ; genGoto
   1AFC C3 C0 1A           9862 	jp	00106$
                           9863 ;	mGBMemoryFunctions.c 19
                           9864 ; genLabel
   1AFF                    9865 00102$:
                           9866 ;	mGBMemoryFunctions.c 16
                           9867 ; genAssign
                           9868 ; AOP_HL for _j
   1AFF 21 34 01           9869 	ld	hl,#_j + 0
   1B02 36 07              9870 	ld	(hl),#0x07
                           9871 ; genPlus
                           9872 ; AOP_HL for _x
                           9873 ; AOP_STK for _saveDataSet_sloc0_1_0
                           9874 ; genPlusIncr
   1B04 21 33 01           9875 	ld	hl,#_x + 0
   1B07 7E                 9876 	ld	a,(hl)
   1B08 C6 80              9877 	add	a,#0x80
   1B0A F8 02              9878 	lda	hl,2(sp)
   1B0C 77                 9879 	ld	(hl),a ; 3
                           9880 ; genLabel
   1B0D                    9881 00110$:
                           9882 ; genCmpEq
                           9883 ; AOP_HL for _j
   1B0D 21 34 01           9884 	ld	hl,#_j + 0
   1B10 7E                 9885 	ld	a,(hl) ; 2
   1B11 FE 0D              9886 	cp	a,#0x0D
                           9887 ; Rule 5
   1B13 CA FD 1B           9888 	jp	z,00105$
   1B16                    9889 00135$:
                           9890 ;	mGBMemoryFunctions.c 17
                           9891 ; genPlus
                           9892 ; AOP_STK for _saveDataSet_sloc0_1_0
                           9893 ; AOP_HL for _i
   1B16 F8 02              9894 	lda	hl,2(sp)
   1B18 7E                 9895 	ld	a,(hl)
   1B19 21 32 01           9896 	ld	hl,#_i + 0
   1B1C 86                 9897 	add	a,(hl)
   1B1D 47                 9898 	ld	b,a
                           9899 ; genPlus
                           9900 ; AOP_STK for _saveDataSet_sloc1_1_0
   1B1E 3E 00              9901 	ld	a,#<_saveData
   1B20 80                 9902 	add	a,b
   1B21 F8 00              9903 	lda	hl,0(sp)
   1B23 77                 9904 	ld	(hl),a ; 3
   1B24 3E 00              9905 	ld	a,#>_saveData
   1B26 CE 00              9906 	adc	a,#0x00
   1B28 23                 9907 	inc	hl
   1B29 77                 9908 	ld	(hl),a ; 3
                           9909 ; genAssign
                           9910 ; AOP_HL for _j
   1B2A 21 34 01           9911 	ld	hl,#_j + 0
   1B2D 4E                 9912 	ld	c,(hl)
                           9913 ; genPlus
   1B2E 3E CF              9914 	ld	a,#<_dataSet
   1B30 81                 9915 	add	a,c
   1B31 5F                 9916 	ld	e,a
   1B32 3E 01              9917 	ld	a,#>_dataSet
   1B34 CE 00              9918 	adc	a,#0x00
   1B36 57                 9919 	ld	d,a
                           9920 ; genPointerGet
   1B37 1A                 9921 	ld	a,(de)
   1B38 4F                 9922 	ld	c,a
                           9923 ; genAssign (pointer)
                           9924 ; AOP_STK for _saveDataSet_sloc1_1_0
   1B39 F8 00              9925 	lda	hl,0(sp)
   1B3B 5E                 9926 	ld	e,(hl)
   1B3C 23                 9927 	inc	hl
   1B3D 56                 9928 	ld	d,(hl)
   1B3E 79                 9929 	ld	a,c
   1B3F 12                 9930 	ld	(de),a
                           9931 ;	mGBMemoryFunctions.c 18
                           9932 ; genPlus
                           9933 ; AOP_HL for _i
                           9934 ; genPlusIncr
   1B40 21 32 01           9935 	ld	hl,#_i + 0
   1B43 34                 9936 	inc	(hl)
                           9937 ;	mGBMemoryFunctions.c 16
                           9938 ; genPlus
                           9939 ; AOP_HL for _j
                           9940 ; genPlusIncr
   1B44 21 34 01           9941 	ld	hl,#_j + 0
   1B47 34                 9942 	inc	(hl)
                           9943 ; genGoto
   1B48 C3 0D 1B           9944 	jp	00110$
                           9945 ;	mGBMemoryFunctions.c 25
                           9946 ; genLabel
   1B4B                    9947 00103$:
                           9948 ;	mGBMemoryFunctions.c 22
                           9949 ; genAssign
                           9950 ; AOP_HL for _j
   1B4B 21 34 01           9951 	ld	hl,#_j + 0
   1B4E 36 0D              9952 	ld	(hl),#0x0D
                           9953 ; genLabel
   1B50                    9954 00114$:
                           9955 ; genCmpEq
                           9956 ; AOP_HL for _j
   1B50 21 34 01           9957 	ld	hl,#_j + 0
   1B53 7E                 9958 	ld	a,(hl) ; 2
   1B54 FE 14              9959 	cp	a,#0x14
                           9960 ; Rule 5
   1B56 CA FD 1B           9961 	jp	z,00105$
   1B59                    9962 00136$:
                           9963 ;	mGBMemoryFunctions.c 23
                           9964 ; genCast
                           9965 ; AOP_HL for _x
   1B59 21 33 01           9966 	ld	hl,#_x + 0
   1B5C 4E                 9967 	ld	c,(hl)
   1B5D 06 00              9968 	ld	b,#0x00
                           9969 ; genPlus
                           9970 ; AOP_STK for _saveDataSet_sloc1_1_0
                           9971 ; genPlusIncr
   1B5F 79                 9972 	ld	a,c
   1B60 C6 00              9973 	add	a,#0x00
   1B62 F8 00              9974 	lda	hl,0(sp)
   1B64 77                 9975 	ld	(hl),a ; 3
   1B65 78                 9976 	ld	a,b
   1B66 CE 01              9977 	adc	a,#0x01
   1B68 23                 9978 	inc	hl
   1B69 77                 9979 	ld	(hl),a ; 3
                           9980 ; genCast
                           9981 ; AOP_HL for _i
   1B6A 21 32 01           9982 	ld	hl,#_i + 0
   1B6D 4E                 9983 	ld	c,(hl)
   1B6E 06 00              9984 	ld	b,#0x00
                           9985 ; genPlus
                           9986 ; AOP_STK for _saveDataSet_sloc1_1_0
   1B70 F8 00              9987 	lda	hl,0(sp)
   1B72 7E                 9988 	ld	a,(hl)
   1B73 81                 9989 	add	a,c
   1B74 4F                 9990 	ld	c,a
   1B75 23                 9991 	inc	hl
   1B76 7E                 9992 	ld	a,(hl)
   1B77 88                 9993 	adc	a,b
   1B78 47                 9994 	ld	b,a
                           9995 ; genPlus
                           9996 ; AOP_STK for _saveDataSet_sloc1_1_0
   1B79 3E 00              9997 	ld	a,#<_saveData
   1B7B 81                 9998 	add	a,c
   1B7C 2B                 9999 	dec	hl
   1B7D 77                10000 	ld	(hl),a ; 3
   1B7E 3E 00             10001 	ld	a,#>_saveData
   1B80 88                10002 	adc	a,b
   1B81 23                10003 	inc	hl
   1B82 77                10004 	ld	(hl),a ; 3
                          10005 ; genAssign
                          10006 ; AOP_HL for _j
   1B83 21 34 01          10007 	ld	hl,#_j + 0
   1B86 4E                10008 	ld	c,(hl)
                          10009 ; genPlus
   1B87 3E CF             10010 	ld	a,#<_dataSet
   1B89 81                10011 	add	a,c
   1B8A 5F                10012 	ld	e,a
   1B8B 3E 01             10013 	ld	a,#>_dataSet
   1B8D CE 00             10014 	adc	a,#0x00
   1B8F 57                10015 	ld	d,a
                          10016 ; genPointerGet
   1B90 1A                10017 	ld	a,(de)
   1B91 4F                10018 	ld	c,a
                          10019 ; genAssign (pointer)
                          10020 ; AOP_STK for _saveDataSet_sloc1_1_0
   1B92 F8 00             10021 	lda	hl,0(sp)
   1B94 5E                10022 	ld	e,(hl)
   1B95 23                10023 	inc	hl
   1B96 56                10024 	ld	d,(hl)
   1B97 79                10025 	ld	a,c
   1B98 12                10026 	ld	(de),a
                          10027 ;	mGBMemoryFunctions.c 24
                          10028 ; genPlus
                          10029 ; AOP_HL for _i
                          10030 ; genPlusIncr
   1B99 21 32 01          10031 	ld	hl,#_i + 0
   1B9C 34                10032 	inc	(hl)
                          10033 ;	mGBMemoryFunctions.c 22
                          10034 ; genPlus
                          10035 ; AOP_HL for _j
                          10036 ; genPlusIncr
   1B9D 21 34 01          10037 	ld	hl,#_j + 0
   1BA0 34                10038 	inc	(hl)
                          10039 ; genGoto
   1BA1 C3 50 1B          10040 	jp	00114$
                          10041 ;	mGBMemoryFunctions.c 31
                          10042 ; genLabel
   1BA4                   10043 00104$:
                          10044 ;	mGBMemoryFunctions.c 28
                          10045 ; genAssign
                          10046 ; AOP_HL for _j
   1BA4 21 34 01          10047 	ld	hl,#_j + 0
   1BA7 36 14             10048 	ld	(hl),#0x14
                          10049 ; genLabel
   1BA9                   10050 00118$:
                          10051 ; genCmpEq
                          10052 ; AOP_HL for _j
   1BA9 21 34 01          10053 	ld	hl,#_j + 0
   1BAC 7E                10054 	ld	a,(hl) ; 2
   1BAD FE 18             10055 	cp	a,#0x18
                          10056 ; Rule 5
   1BAF CA FD 1B          10057 	jp	z,00105$
   1BB2                   10058 00137$:
                          10059 ;	mGBMemoryFunctions.c 29
                          10060 ; genCast
                          10061 ; AOP_HL for _x
   1BB2 21 33 01          10062 	ld	hl,#_x + 0
   1BB5 4E                10063 	ld	c,(hl)
   1BB6 06 00             10064 	ld	b,#0x00
                          10065 ; genPlus
                          10066 ; AOP_STK for _saveDataSet_sloc1_1_0
                          10067 ; genPlusIncr
   1BB8 79                10068 	ld	a,c
   1BB9 C6 80             10069 	add	a,#0x80
   1BBB F8 00             10070 	lda	hl,0(sp)
   1BBD 77                10071 	ld	(hl),a ; 3
   1BBE 78                10072 	ld	a,b
   1BBF CE 01             10073 	adc	a,#0x01
   1BC1 23                10074 	inc	hl
   1BC2 77                10075 	ld	(hl),a ; 3
                          10076 ; genCast
                          10077 ; AOP_HL for _i
   1BC3 21 32 01          10078 	ld	hl,#_i + 0
   1BC6 4E                10079 	ld	c,(hl)
   1BC7 06 00             10080 	ld	b,#0x00
                          10081 ; genPlus
                          10082 ; AOP_STK for _saveDataSet_sloc1_1_0
   1BC9 F8 00             10083 	lda	hl,0(sp)
   1BCB 7E                10084 	ld	a,(hl)
   1BCC 81                10085 	add	a,c
   1BCD 4F                10086 	ld	c,a
   1BCE 23                10087 	inc	hl
   1BCF 7E                10088 	ld	a,(hl)
   1BD0 88                10089 	adc	a,b
   1BD1 47                10090 	ld	b,a
                          10091 ; genPlus
                          10092 ; AOP_STK for _saveDataSet_sloc1_1_0
   1BD2 3E 00             10093 	ld	a,#<_saveData
   1BD4 81                10094 	add	a,c
   1BD5 2B                10095 	dec	hl
   1BD6 77                10096 	ld	(hl),a ; 3
   1BD7 3E 00             10097 	ld	a,#>_saveData
   1BD9 88                10098 	adc	a,b
   1BDA 23                10099 	inc	hl
   1BDB 77                10100 	ld	(hl),a ; 3
                          10101 ; genAssign
                          10102 ; AOP_HL for _j
   1BDC 21 34 01          10103 	ld	hl,#_j + 0
   1BDF 4E                10104 	ld	c,(hl)
                          10105 ; genPlus
   1BE0 3E CF             10106 	ld	a,#<_dataSet
   1BE2 81                10107 	add	a,c
   1BE3 5F                10108 	ld	e,a
   1BE4 3E 01             10109 	ld	a,#>_dataSet
   1BE6 CE 00             10110 	adc	a,#0x00
   1BE8 57                10111 	ld	d,a
                          10112 ; genPointerGet
   1BE9 1A                10113 	ld	a,(de)
   1BEA 4F                10114 	ld	c,a
                          10115 ; genAssign (pointer)
                          10116 ; AOP_STK for _saveDataSet_sloc1_1_0
   1BEB F8 00             10117 	lda	hl,0(sp)
   1BED 5E                10118 	ld	e,(hl)
   1BEE 23                10119 	inc	hl
   1BEF 56                10120 	ld	d,(hl)
   1BF0 79                10121 	ld	a,c
   1BF1 12                10122 	ld	(de),a
                          10123 ;	mGBMemoryFunctions.c 30
                          10124 ; genPlus
                          10125 ; AOP_HL for _i
                          10126 ; genPlusIncr
   1BF2 21 32 01          10127 	ld	hl,#_i + 0
   1BF5 34                10128 	inc	(hl)
                          10129 ;	mGBMemoryFunctions.c 28
                          10130 ; genPlus
                          10131 ; AOP_HL for _j
                          10132 ; genPlusIncr
   1BF6 21 34 01          10133 	ld	hl,#_j + 0
   1BF9 34                10134 	inc	(hl)
                          10135 ; genGoto
   1BFA C3 A9 1B          10136 	jp	00118$
                          10137 ;	mGBMemoryFunctions.c 33
                          10138 ; genLabel
   1BFD                   10139 00105$:
                          10140 ;	mGBMemoryFunctions.c 34
                          10141 ; genAssign
   1BFD 11 00 00          10142 	ld	de,#0x0000
                          10143 ; genAssign (pointer)
   1C00 3E 00             10144 	ld	a,#0x00
   1C02 12                10145 	ld	(de),a
                          10146 ; genLabel
   1C03                   10147 00122$:
                          10148 ; genEndFunction
   1C03 E8 04             10149 	lda	sp,4(sp)
   1C05 C1                10150 	pop bc
   1C06 C9                10151 	ret
   1C07                   10152 ___saveDataSet_end:
                          10153 ;	mGBMemoryFunctions.c 37
                          10154 ; genLabel
                          10155 ; genFunction
                          10156 ;	---------------------------------
                          10157 ; Function loadDataSet
                          10158 ; ---------------------------------
   1C07                   10159 ___loadDataSet_start:
   1C07                   10160 _loadDataSet:
   1C07 C5                10161 	push	bc
   1C08 E8 FA             10162 	lda sp,-6(sp)
                          10163 ;	mGBMemoryFunctions.c 39
                          10164 ; genAssign
   1C0A 11 00 00          10165 	ld	de,#0x0000
                          10166 ; genAssign (pointer)
   1C0D 3E 0A             10167 	ld	a,#0x0A
   1C0F 12                10168 	ld	(de),a
                          10169 ;	mGBMemoryFunctions.c 40
                          10170 ; genPlus
                          10171 ; AOP_STK for 
                          10172 ; genPlusIncr
   1C10 F8 0A             10173 	lda	hl,10(sp)
   1C12 7E                10174 	ld	a,(hl)
   1C13 C6 18             10175 	add	a,#0x18
   1C15 4F                10176 	ld	c,a
                          10177 ; genPlus
   1C16 3E CF             10178 	ld	a,#<_dataSet
   1C18 81                10179 	add	a,c
   1C19 5F                10180 	ld	e,a
   1C1A 3E 01             10181 	ld	a,#>_dataSet
   1C1C CE 00             10182 	adc	a,#0x00
   1C1E 57                10183 	ld	d,a
                          10184 ; genPointerGet
   1C1F 1A                10185 	ld	a,(de)
   1C20 4F                10186 	ld	c,a
                          10187 ; genLeftShift
                          10188 ; AOP_HL for _x
   1C21 79                10189 	ld	a,c
   1C22 CB 17             10190 	rl	a
   1C24 CB 17             10191 	rl	a
   1C26 CB 17             10192 	rl	a
   1C28 E6 F8             10193 	and	a,#0xF8
   1C2A 21 33 01          10194 	ld	hl,#_x + 0
   1C2D 77                10195 	ld	(hl),a
                          10196 ;	mGBMemoryFunctions.c 41
                          10197 ; genAssign
                          10198 ; AOP_HL for _i
   1C2E 21 32 01          10199 	ld	hl,#_i + 0
   1C31 36 00             10200 	ld	(hl),#0x00
                          10201 ;	mGBMemoryFunctions.c 42
                          10202 ; genCmpGt
                          10203 ; AOP_STK for 
   1C33 AF                10204 	xor	a,a
   1C34 3E 03             10205 	ld	a,#0x03
   1C36 F8 0A             10206 	lda	hl,10(sp)
   1C38 9E                10207 	sbc	a,(hl) ; 2
   1C39 DA D8 1D          10208 	jp	c,00113$
                          10209 ; genJumpTab
                          10210 ; AOP_STK for 
   1C3C 5E                10211 	ld	e,(hl)
   1C3D 16 00             10212 	ld	d,#0x00
   1C3F 21 46 1C          10213 	ld	hl,#00145$
   1C42 19                10214 	add	hl,de
   1C43 19                10215 	add	hl,de
   1C44 19                10216 	add	hl,de
   1C45 E9                10217 	jp	(hl)
   1C46                   10218 00145$:
   1C46 C3 52 1C          10219 	jp	00103$
   1C49 C3 A7 1C          10220 	jp	00106$
   1C4C C3 03 1D          10221 	jp	00109$
   1C4F C3 6D 1D          10222 	jp	00110$
                          10223 ;	mGBMemoryFunctions.c 47
                          10224 ; genLabel
   1C52                   10225 00103$:
                          10226 ;	mGBMemoryFunctions.c 44
                          10227 ; genAssign
                          10228 ; AOP_HL for _j
   1C52 21 34 01          10229 	ld	hl,#_j + 0
   1C55 36 00             10230 	ld	(hl),#0x00
                          10231 ; genLabel
   1C57                   10232 00114$:
                          10233 ; genCmpEq
                          10234 ; AOP_HL for _j
   1C57 21 34 01          10235 	ld	hl,#_j + 0
   1C5A 7E                10236 	ld	a,(hl) ; 2
   1C5B FE 07             10237 	cp	a,#0x07
                          10238 ; Rule 5
   1C5D CA D8 1D          10239 	jp	z,00113$
   1C60                   10240 00146$:
                          10241 ;	mGBMemoryFunctions.c 45
                          10242 ; genAssign
                          10243 ; AOP_HL for _j
   1C60 21 34 01          10244 	ld	hl,#_j + 0
   1C63 4E                10245 	ld	c,(hl)
                          10246 ; genPlus
   1C64 3E EC             10247 	ld	a,#<_parameterLock
   1C66 81                10248 	add	a,c
   1C67 5F                10249 	ld	e,a
   1C68 3E 01             10250 	ld	a,#>_parameterLock
   1C6A CE 00             10251 	adc	a,#0x00
   1C6C 57                10252 	ld	d,a
                          10253 ; genPointerGet
   1C6D 1A                10254 	ld	a,(de)
   1C6E 4F                10255 	ld	c,a
                          10256 ; genIfx
                          10257 ; Removed redundent or a,a
   1C6F AF                10258 	xor	a,a
   1C70 B1                10259 	or	a,c
   1C71 C2 9C 1C          10260 	jp	nz,00102$
                          10261 ; genAssign
                          10262 ; AOP_HL for _j
   1C74 4E                10263 	ld	c,(hl)
                          10264 ; genPlus
                          10265 ; AOP_STK for _loadDataSet_sloc0_1_0
   1C75 3E CF             10266 	ld	a,#<_dataSet
   1C77 81                10267 	add	a,c
   1C78 F8 04             10268 	lda	hl,4(sp)
   1C7A 77                10269 	ld	(hl),a ; 3
   1C7B 3E 01             10270 	ld	a,#>_dataSet
   1C7D CE 00             10271 	adc	a,#0x00
   1C7F 23                10272 	inc	hl
   1C80 77                10273 	ld	(hl),a ; 3
                          10274 ; genPlus
                          10275 ; AOP_HL for _x
                          10276 ; AOP_HL for _i
   1C81 21 33 01          10277 	ld	hl,#_x + 0
   1C84 7E                10278 	ld	a,(hl)
   1C85 21 32 01          10279 	ld	hl,#_i + 0
   1C88 86                10280 	add	a,(hl)
   1C89 4F                10281 	ld	c,a
                          10282 ; genPlus
   1C8A 3E 00             10283 	ld	a,#<_saveData
   1C8C 81                10284 	add	a,c
   1C8D 5F                10285 	ld	e,a
   1C8E 3E 00             10286 	ld	a,#>_saveData
   1C90 CE 00             10287 	adc	a,#0x00
   1C92 57                10288 	ld	d,a
                          10289 ; genPointerGet
   1C93 1A                10290 	ld	a,(de)
   1C94 4F                10291 	ld	c,a
                          10292 ; genAssign (pointer)
                          10293 ; AOP_STK for _loadDataSet_sloc0_1_0
   1C95 F8 04             10294 	lda	hl,4(sp)
   1C97 5E                10295 	ld	e,(hl)
   1C98 23                10296 	inc	hl
   1C99 56                10297 	ld	d,(hl)
   1C9A 79                10298 	ld	a,c
   1C9B 12                10299 	ld	(de),a
                          10300 ; genLabel
   1C9C                   10301 00102$:
                          10302 ;	mGBMemoryFunctions.c 46
                          10303 ; genPlus
                          10304 ; AOP_HL for _i
                          10305 ; genPlusIncr
   1C9C 21 32 01          10306 	ld	hl,#_i + 0
   1C9F 34                10307 	inc	(hl)
                          10308 ;	mGBMemoryFunctions.c 44
                          10309 ; genPlus
                          10310 ; AOP_HL for _j
                          10311 ; genPlusIncr
   1CA0 21 34 01          10312 	ld	hl,#_j + 0
   1CA3 34                10313 	inc	(hl)
                          10314 ; genGoto
   1CA4 C3 57 1C          10315 	jp	00114$
                          10316 ;	mGBMemoryFunctions.c 53
                          10317 ; genLabel
   1CA7                   10318 00106$:
                          10319 ;	mGBMemoryFunctions.c 50
                          10320 ; genAssign
                          10321 ; AOP_HL for _j
   1CA7 21 34 01          10322 	ld	hl,#_j + 0
   1CAA 36 07             10323 	ld	(hl),#0x07
                          10324 ; genPlus
                          10325 ; AOP_HL for _x
                          10326 ; AOP_STK for _loadDataSet_sloc0_1_0
                          10327 ; genPlusIncr
   1CAC 21 33 01          10328 	ld	hl,#_x + 0
   1CAF 7E                10329 	ld	a,(hl)
   1CB0 C6 80             10330 	add	a,#0x80
   1CB2 F8 04             10331 	lda	hl,4(sp)
   1CB4 77                10332 	ld	(hl),a ; 3
                          10333 ; genLabel
   1CB5                   10334 00118$:
                          10335 ; genCmpEq
                          10336 ; AOP_HL for _j
   1CB5 21 34 01          10337 	ld	hl,#_j + 0
   1CB8 7E                10338 	ld	a,(hl) ; 2
   1CB9 FE 0D             10339 	cp	a,#0x0D
                          10340 ; Rule 5
   1CBB CA D8 1D          10341 	jp	z,00113$
   1CBE                   10342 00147$:
                          10343 ;	mGBMemoryFunctions.c 51
                          10344 ; genAssign
                          10345 ; AOP_HL for _j
   1CBE 21 34 01          10346 	ld	hl,#_j + 0
   1CC1 46                10347 	ld	b,(hl)
                          10348 ; genPlus
   1CC2 3E EC             10349 	ld	a,#<_parameterLock
   1CC4 80                10350 	add	a,b
   1CC5 5F                10351 	ld	e,a
   1CC6 3E 01             10352 	ld	a,#>_parameterLock
   1CC8 CE 00             10353 	adc	a,#0x00
   1CCA 57                10354 	ld	d,a
                          10355 ; genPointerGet
   1CCB 1A                10356 	ld	a,(de)
   1CCC 47                10357 	ld	b,a
                          10358 ; genIfx
                          10359 ; Removed redundent or a,a
   1CCD AF                10360 	xor	a,a
   1CCE B0                10361 	or	a,b
   1CCF C2 F8 1C          10362 	jp	nz,00105$
                          10363 ; genAssign
                          10364 ; AOP_HL for _j
   1CD2 46                10365 	ld	b,(hl)
                          10366 ; genPlus
                          10367 ; AOP_STK for _loadDataSet_sloc1_1_0
   1CD3 3E CF             10368 	ld	a,#<_dataSet
   1CD5 80                10369 	add	a,b
   1CD6 F8 02             10370 	lda	hl,2(sp)
   1CD8 77                10371 	ld	(hl),a ; 3
   1CD9 3E 01             10372 	ld	a,#>_dataSet
   1CDB CE 00             10373 	adc	a,#0x00
   1CDD 23                10374 	inc	hl
   1CDE 77                10375 	ld	(hl),a ; 3
                          10376 ; genPlus
                          10377 ; AOP_STK for _loadDataSet_sloc0_1_0
                          10378 ; AOP_HL for _i
   1CDF 23                10379 	inc	hl
   1CE0 7E                10380 	ld	a,(hl)
   1CE1 21 32 01          10381 	ld	hl,#_i + 0
   1CE4 86                10382 	add	a,(hl)
   1CE5 4F                10383 	ld	c,a
                          10384 ; genPlus
   1CE6 3E 00             10385 	ld	a,#<_saveData
   1CE8 81                10386 	add	a,c
   1CE9 5F                10387 	ld	e,a
   1CEA 3E 00             10388 	ld	a,#>_saveData
   1CEC CE 00             10389 	adc	a,#0x00
   1CEE 57                10390 	ld	d,a
                          10391 ; genPointerGet
   1CEF 1A                10392 	ld	a,(de)
   1CF0 4F                10393 	ld	c,a
                          10394 ; genAssign (pointer)
                          10395 ; AOP_STK for _loadDataSet_sloc1_1_0
   1CF1 F8 02             10396 	lda	hl,2(sp)
   1CF3 5E                10397 	ld	e,(hl)
   1CF4 23                10398 	inc	hl
   1CF5 56                10399 	ld	d,(hl)
   1CF6 79                10400 	ld	a,c
   1CF7 12                10401 	ld	(de),a
                          10402 ; genLabel
   1CF8                   10403 00105$:
                          10404 ;	mGBMemoryFunctions.c 52
                          10405 ; genPlus
                          10406 ; AOP_HL for _i
                          10407 ; genPlusIncr
   1CF8 21 32 01          10408 	ld	hl,#_i + 0
   1CFB 34                10409 	inc	(hl)
                          10410 ;	mGBMemoryFunctions.c 50
                          10411 ; genPlus
                          10412 ; AOP_HL for _j
                          10413 ; genPlusIncr
   1CFC 21 34 01          10414 	ld	hl,#_j + 0
   1CFF 34                10415 	inc	(hl)
                          10416 ; genGoto
   1D00 C3 B5 1C          10417 	jp	00118$
                          10418 ;	mGBMemoryFunctions.c 59
                          10419 ; genLabel
   1D03                   10420 00109$:
                          10421 ;	mGBMemoryFunctions.c 56
                          10422 ; genAssign
                          10423 ; AOP_HL for _j
   1D03 21 34 01          10424 	ld	hl,#_j + 0
   1D06 36 0D             10425 	ld	(hl),#0x0D
                          10426 ; genLabel
   1D08                   10427 00122$:
                          10428 ; genCmpEq
                          10429 ; AOP_HL for _j
   1D08 21 34 01          10430 	ld	hl,#_j + 0
   1D0B 7E                10431 	ld	a,(hl) ; 2
   1D0C FE 14             10432 	cp	a,#0x14
                          10433 ; Rule 5
   1D0E CA D8 1D          10434 	jp	z,00113$
   1D11                   10435 00148$:
                          10436 ;	mGBMemoryFunctions.c 57
                          10437 ; genAssign
                          10438 ; AOP_HL for _j
   1D11 21 34 01          10439 	ld	hl,#_j + 0
   1D14 4E                10440 	ld	c,(hl)
                          10441 ; genPlus
   1D15 3E EC             10442 	ld	a,#<_parameterLock
   1D17 81                10443 	add	a,c
   1D18 5F                10444 	ld	e,a
   1D19 3E 01             10445 	ld	a,#>_parameterLock
   1D1B CE 00             10446 	adc	a,#0x00
   1D1D 57                10447 	ld	d,a
                          10448 ; genPointerGet
   1D1E 1A                10449 	ld	a,(de)
   1D1F 4F                10450 	ld	c,a
                          10451 ; genIfx
                          10452 ; Removed redundent or a,a
   1D20 AF                10453 	xor	a,a
   1D21 B1                10454 	or	a,c
   1D22 C2 62 1D          10455 	jp	nz,00108$
                          10456 ; genAssign
                          10457 ; AOP_HL for _j
   1D25 4E                10458 	ld	c,(hl)
                          10459 ; genPlus
                          10460 ; AOP_STK for _loadDataSet_sloc1_1_0
   1D26 3E CF             10461 	ld	a,#<_dataSet
   1D28 81                10462 	add	a,c
   1D29 F8 02             10463 	lda	hl,2(sp)
   1D2B 77                10464 	ld	(hl),a ; 3
   1D2C 3E 01             10465 	ld	a,#>_dataSet
   1D2E CE 00             10466 	adc	a,#0x00
   1D30 23                10467 	inc	hl
   1D31 77                10468 	ld	(hl),a ; 3
                          10469 ; genCast
                          10470 ; AOP_HL for _x
   1D32 21 33 01          10471 	ld	hl,#_x + 0
   1D35 4E                10472 	ld	c,(hl)
   1D36 06 00             10473 	ld	b,#0x00
                          10474 ; genPlus
                          10475 ; AOP_STK for _loadDataSet_sloc2_1_0
                          10476 ; genPlusIncr
   1D38 79                10477 	ld	a,c
   1D39 C6 00             10478 	add	a,#0x00
   1D3B F8 00             10479 	lda	hl,0(sp)
   1D3D 77                10480 	ld	(hl),a ; 3
   1D3E 78                10481 	ld	a,b
   1D3F CE 01             10482 	adc	a,#0x01
   1D41 23                10483 	inc	hl
   1D42 77                10484 	ld	(hl),a ; 3
                          10485 ; genCast
                          10486 ; AOP_HL for _i
   1D43 21 32 01          10487 	ld	hl,#_i + 0
   1D46 4E                10488 	ld	c,(hl)
   1D47 06 00             10489 	ld	b,#0x00
                          10490 ; genPlus
                          10491 ; AOP_STK for _loadDataSet_sloc2_1_0
   1D49 F8 00             10492 	lda	hl,0(sp)
   1D4B 7E                10493 	ld	a,(hl)
   1D4C 81                10494 	add	a,c
   1D4D 4F                10495 	ld	c,a
   1D4E 23                10496 	inc	hl
   1D4F 7E                10497 	ld	a,(hl)
   1D50 88                10498 	adc	a,b
   1D51 47                10499 	ld	b,a
                          10500 ; genPlus
   1D52 3E 00             10501 	ld	a,#<_saveData
   1D54 81                10502 	add	a,c
   1D55 5F                10503 	ld	e,a
   1D56 3E 00             10504 	ld	a,#>_saveData
   1D58 88                10505 	adc	a,b
   1D59 57                10506 	ld	d,a
                          10507 ; genPointerGet
   1D5A 1A                10508 	ld	a,(de)
   1D5B 4F                10509 	ld	c,a
                          10510 ; genAssign (pointer)
                          10511 ; AOP_STK for _loadDataSet_sloc1_1_0
   1D5C 23                10512 	inc	hl
   1D5D 5E                10513 	ld	e,(hl)
   1D5E 23                10514 	inc	hl
   1D5F 56                10515 	ld	d,(hl)
   1D60 79                10516 	ld	a,c
   1D61 12                10517 	ld	(de),a
                          10518 ; genLabel
   1D62                   10519 00108$:
                          10520 ;	mGBMemoryFunctions.c 58
                          10521 ; genPlus
                          10522 ; AOP_HL for _i
                          10523 ; genPlusIncr
   1D62 21 32 01          10524 	ld	hl,#_i + 0
   1D65 34                10525 	inc	(hl)
                          10526 ;	mGBMemoryFunctions.c 56
                          10527 ; genPlus
                          10528 ; AOP_HL for _j
                          10529 ; genPlusIncr
   1D66 21 34 01          10530 	ld	hl,#_j + 0
   1D69 34                10531 	inc	(hl)
                          10532 ; genGoto
   1D6A C3 08 1D          10533 	jp	00122$
                          10534 ;	mGBMemoryFunctions.c 62
                          10535 ; genLabel
   1D6D                   10536 00110$:
                          10537 ;	mGBMemoryFunctions.c 63
                          10538 ; genAssign
                          10539 ; AOP_HL for _j
   1D6D 21 34 01          10540 	ld	hl,#_j + 0
   1D70 36 14             10541 	ld	(hl),#0x14
                          10542 ; genLabel
   1D72                   10543 00126$:
                          10544 ; genCmpEq
                          10545 ; AOP_HL for _j
   1D72 21 34 01          10546 	ld	hl,#_j + 0
   1D75 7E                10547 	ld	a,(hl) ; 2
   1D76 FE 18             10548 	cp	a,#0x18
                          10549 ; Rule 5
   1D78 CA D8 1D          10550 	jp	z,00113$
   1D7B                   10551 00149$:
                          10552 ;	mGBMemoryFunctions.c 64
                          10553 ; genAssign
                          10554 ; AOP_HL for _j
   1D7B 21 34 01          10555 	ld	hl,#_j + 0
   1D7E 4E                10556 	ld	c,(hl)
                          10557 ; genPlus
   1D7F 3E EC             10558 	ld	a,#<_parameterLock
   1D81 81                10559 	add	a,c
   1D82 5F                10560 	ld	e,a
   1D83 3E 01             10561 	ld	a,#>_parameterLock
   1D85 CE 00             10562 	adc	a,#0x00
   1D87 57                10563 	ld	d,a
                          10564 ; genPointerGet
   1D88 1A                10565 	ld	a,(de)
   1D89 4F                10566 	ld	c,a
                          10567 ; genIfx
                          10568 ; Removed redundent or a,a
   1D8A AF                10569 	xor	a,a
   1D8B B1                10570 	or	a,c
   1D8C C2 CD 1D          10571 	jp	nz,00112$
                          10572 ; genAssign
                          10573 ; AOP_HL for _j
   1D8F 4E                10574 	ld	c,(hl)
                          10575 ; genPlus
                          10576 ; AOP_STK for _loadDataSet_sloc2_1_0
   1D90 3E CF             10577 	ld	a,#<_dataSet
   1D92 81                10578 	add	a,c
   1D93 F8 00             10579 	lda	hl,0(sp)
   1D95 77                10580 	ld	(hl),a ; 3
   1D96 3E 01             10581 	ld	a,#>_dataSet
   1D98 CE 00             10582 	adc	a,#0x00
   1D9A 23                10583 	inc	hl
   1D9B 77                10584 	ld	(hl),a ; 3
                          10585 ; genCast
                          10586 ; AOP_HL for _x
   1D9C 21 33 01          10587 	ld	hl,#_x + 0
   1D9F 4E                10588 	ld	c,(hl)
   1DA0 06 00             10589 	ld	b,#0x00
                          10590 ; genPlus
                          10591 ; AOP_STK for _loadDataSet_sloc1_1_0
                          10592 ; genPlusIncr
   1DA2 79                10593 	ld	a,c
   1DA3 C6 80             10594 	add	a,#0x80
   1DA5 F8 02             10595 	lda	hl,2(sp)
   1DA7 77                10596 	ld	(hl),a ; 3
   1DA8 78                10597 	ld	a,b
   1DA9 CE 01             10598 	adc	a,#0x01
   1DAB 23                10599 	inc	hl
   1DAC 77                10600 	ld	(hl),a ; 3
                          10601 ; genCast
                          10602 ; AOP_HL for _i
   1DAD 21 32 01          10603 	ld	hl,#_i + 0
   1DB0 4E                10604 	ld	c,(hl)
   1DB1 06 00             10605 	ld	b,#0x00
                          10606 ; genPlus
                          10607 ; AOP_STK for _loadDataSet_sloc1_1_0
   1DB3 F8 02             10608 	lda	hl,2(sp)
   1DB5 7E                10609 	ld	a,(hl)
   1DB6 81                10610 	add	a,c
   1DB7 4F                10611 	ld	c,a
   1DB8 23                10612 	inc	hl
   1DB9 7E                10613 	ld	a,(hl)
   1DBA 88                10614 	adc	a,b
   1DBB 47                10615 	ld	b,a
                          10616 ; genPlus
   1DBC 3E 00             10617 	ld	a,#<_saveData
   1DBE 81                10618 	add	a,c
   1DBF 5F                10619 	ld	e,a
   1DC0 3E 00             10620 	ld	a,#>_saveData
   1DC2 88                10621 	adc	a,b
   1DC3 57                10622 	ld	d,a
                          10623 ; genPointerGet
   1DC4 1A                10624 	ld	a,(de)
   1DC5 4F                10625 	ld	c,a
                          10626 ; genAssign (pointer)
                          10627 ; AOP_STK for _loadDataSet_sloc2_1_0
   1DC6 F8 00             10628 	lda	hl,0(sp)
   1DC8 5E                10629 	ld	e,(hl)
   1DC9 23                10630 	inc	hl
   1DCA 56                10631 	ld	d,(hl)
   1DCB 79                10632 	ld	a,c
   1DCC 12                10633 	ld	(de),a
                          10634 ; genLabel
   1DCD                   10635 00112$:
                          10636 ;	mGBMemoryFunctions.c 65
                          10637 ; genPlus
                          10638 ; AOP_HL for _i
                          10639 ; genPlusIncr
   1DCD 21 32 01          10640 	ld	hl,#_i + 0
   1DD0 34                10641 	inc	(hl)
                          10642 ;	mGBMemoryFunctions.c 63
                          10643 ; genPlus
                          10644 ; AOP_HL for _j
                          10645 ; genPlusIncr
   1DD1 21 34 01          10646 	ld	hl,#_j + 0
   1DD4 34                10647 	inc	(hl)
                          10648 ; genGoto
   1DD5 C3 72 1D          10649 	jp	00126$
                          10650 ;	mGBMemoryFunctions.c 68
                          10651 ; genLabel
   1DD8                   10652 00113$:
                          10653 ;	mGBMemoryFunctions.c 69
                          10654 ; genAssign
   1DD8 11 00 00          10655 	ld	de,#0x0000
                          10656 ; genAssign (pointer)
   1DDB 3E 00             10657 	ld	a,#0x00
   1DDD 12                10658 	ld	(de),a
                          10659 ; genLabel
   1DDE                   10660 00130$:
                          10661 ; genEndFunction
   1DDE E8 06             10662 	lda	sp,6(sp)
   1DE0 C1                10663 	pop bc
   1DE1 C9                10664 	ret
   1DE2                   10665 ___loadDataSet_end:
                          10666 ;	mGBMemoryFunctions.c 72
                          10667 ; genLabel
                          10668 ; genFunction
                          10669 ;	---------------------------------
                          10670 ; Function snapRecall
                          10671 ; ---------------------------------
   1DE2                   10672 ___snapRecall_start:
   1DE2                   10673 _snapRecall:
   1DE2 C5                10674 	push	bc
   1DE3 E8 FE             10675 	lda sp,-2(sp)
                          10676 ;	mGBMemoryFunctions.c 74
                          10677 ; genCmpEq
                          10678 ; AOP_HL for _cursorRowMain
   1DE5 21 88 01          10679 	ld	hl,#_cursorRowMain + 0
   1DE8 7E                10680 	ld	a,(hl) ; 2
   1DE9 FE 08             10681 	cp	a,#0x08
   1DEB C2 F0 1D          10682 	jp	nz,00136$
   1DEE 18 03             10683 	jr	00137$
   1DF0                   10684 00136$:
   1DF0 C3 46 1E          10685 	jp	00110$
   1DF3                   10686 00137$:
                          10687 ;	mGBMemoryFunctions.c 75
                          10688 ; genAssign
                          10689 ; AOP_HL for _l
   1DF3 21 35 01          10690 	ld	hl,#_l + 0
   1DF6 36 00             10691 	ld	(hl),#0x00
                          10692 ; genLabel
   1DF8                   10693 00112$:
                          10694 ; genCmpLt
                          10695 ; AOP_HL for _l
   1DF8 21 35 01          10696 	ld	hl,#_l + 0
   1DFB 7E                10697 	ld	a,(hl)
   1DFC FE 04             10698 	cp	#0x04
   1DFE D2 C8 1E          10699 	jp	nc,00124$
                          10700 ;	mGBMemoryFunctions.c 76
                          10701 ; genAssign
                          10702 ; AOP_HL for _l
   1E01 4E                10703 	ld	c,(hl)
                          10704 ; genPlus
   1E02 3E 6E             10705 	ld	a,#<_cursorEnable
   1E04 81                10706 	add	a,c
   1E05 5F                10707 	ld	e,a
   1E06 3E 01             10708 	ld	a,#>_cursorEnable
   1E08 CE 00             10709 	adc	a,#0x00
   1E0A 57                10710 	ld	d,a
                          10711 ; genPointerGet
   1E0B 1A                10712 	ld	a,(de)
   1E0C 4F                10713 	ld	c,a
                          10714 ; genIfx
                          10715 ; Removed redundent or a,a
   1E0D AF                10716 	xor	a,a
   1E0E B1                10717 	or	a,c
   1E0F CA 3F 1E          10718 	jp	z,00114$
                          10719 ;	mGBMemoryFunctions.c 77
                          10720 ; genIfx
                          10721 ; AOP_HL for _recallMode
   1E12 AF                10722 	xor	a,a
   1E13 21 6D 01          10723 	ld	hl,#_recallMode + 0
   1E16 B6                10724 	or	a,(hl)
   1E17 B7                10725 	or	a,a
   1E18 C2 29 1E          10726 	jp	nz,00102$
                          10727 ;	mGBMemoryFunctions.c 78
                          10728 ; genIpush
                          10729 ; AOP_HL for _l
   1E1B 21 35 01          10730 	ld	hl,#_l + 0
   1E1E 7E                10731 	ld	a,(hl)
   1E1F F5                10732 	push	af
   1E20 33                10733 	inc	sp
                          10734 ; genCall
   1E21 CD 6F 1A          10735 	call	_saveDataSet
   1E24 E8 01             10736 	lda	sp,1(sp)
                          10737 ; genGoto
   1E26 C3 3F 1E          10738 	jp	00114$
                          10739 ; genLabel
   1E29                   10740 00102$:
                          10741 ;	mGBMemoryFunctions.c 80
                          10742 ; genIpush
                          10743 ; AOP_HL for _l
   1E29 21 35 01          10744 	ld	hl,#_l + 0
   1E2C 7E                10745 	ld	a,(hl)
   1E2D F5                10746 	push	af
   1E2E 33                10747 	inc	sp
                          10748 ; genCall
   1E2F CD 07 1C          10749 	call	_loadDataSet
   1E32 E8 01             10750 	lda	sp,1(sp)
                          10751 ;	mGBMemoryFunctions.c 81
                          10752 ; genIpush
                          10753 ; AOP_HL for _l
   1E34 21 35 01          10754 	ld	hl,#_l + 0
   1E37 7E                10755 	ld	a,(hl)
   1E38 F5                10756 	push	af
   1E39 33                10757 	inc	sp
                          10758 ; genCall
   1E3A CD E2 0A          10759 	call	_updateSynth
   1E3D E8 01             10760 	lda	sp,1(sp)
                          10761 ; genLabel
   1E3F                   10762 00114$:
                          10763 ;	mGBMemoryFunctions.c 75
                          10764 ; genPlus
                          10765 ; AOP_HL for _l
                          10766 ; genPlusIncr
   1E3F 21 35 01          10767 	ld	hl,#_l + 0
   1E42 34                10768 	inc	(hl)
                          10769 ; genGoto
   1E43 C3 F8 1D          10770 	jp	00112$
                          10771 ; genLabel
   1E46                   10772 00110$:
                          10773 ;	mGBMemoryFunctions.c 86
                          10774 ; genIfx
                          10775 ; AOP_HL for _recallMode
   1E46 AF                10776 	xor	a,a
   1E47 21 6D 01          10777 	ld	hl,#_recallMode + 0
   1E4A B6                10778 	or	a,(hl)
   1E4B B7                10779 	or	a,a
   1E4C C2 8A 1E          10780 	jp	nz,00107$
                          10781 ;	mGBMemoryFunctions.c 87
                          10782 ; genAssign
                          10783 ; AOP_HL for _j
   1E4F 21 34 01          10784 	ld	hl,#_j + 0
   1E52 36 00             10785 	ld	(hl),#0x00
                          10786 ; genLabel
   1E54                   10787 00116$:
                          10788 ; genCmpEq
                          10789 ; AOP_HL for _j
   1E54 21 34 01          10790 	ld	hl,#_j + 0
   1E57 7E                10791 	ld	a,(hl) ; 2
   1E58 FE 18             10792 	cp	a,#0x18
                          10793 ; Rule 5
   1E5A CA C8 1E          10794 	jp	z,00124$
   1E5D                   10795 00138$:
                          10796 ; genAssign
                          10797 ; AOP_HL for _j
   1E5D 21 34 01          10798 	ld	hl,#_j + 0
   1E60 4E                10799 	ld	c,(hl)
                          10800 ; genPlus
                          10801 ; AOP_STK for _snapRecall_sloc0_1_0
   1E61 3E B3             10802 	ld	a,#<_dataSetSnap
   1E63 81                10803 	add	a,c
   1E64 F8 00             10804 	lda	hl,0(sp)
   1E66 77                10805 	ld	(hl),a ; 3
   1E67 3E 01             10806 	ld	a,#>_dataSetSnap
   1E69 CE 00             10807 	adc	a,#0x00
   1E6B 23                10808 	inc	hl
   1E6C 77                10809 	ld	(hl),a ; 3
                          10810 ; genAssign
                          10811 ; AOP_HL for _j
   1E6D 21 34 01          10812 	ld	hl,#_j + 0
   1E70 4E                10813 	ld	c,(hl)
                          10814 ; genPlus
   1E71 3E CF             10815 	ld	a,#<_dataSet
   1E73 81                10816 	add	a,c
   1E74 5F                10817 	ld	e,a
   1E75 3E 01             10818 	ld	a,#>_dataSet
   1E77 CE 00             10819 	adc	a,#0x00
   1E79 57                10820 	ld	d,a
                          10821 ; genPointerGet
   1E7A 1A                10822 	ld	a,(de)
   1E7B 4F                10823 	ld	c,a
                          10824 ; genAssign (pointer)
                          10825 ; AOP_STK for _snapRecall_sloc0_1_0
   1E7C F8 00             10826 	lda	hl,0(sp)
   1E7E 5E                10827 	ld	e,(hl)
   1E7F 23                10828 	inc	hl
   1E80 56                10829 	ld	d,(hl)
   1E81 79                10830 	ld	a,c
   1E82 12                10831 	ld	(de),a
                          10832 ; genPlus
                          10833 ; AOP_HL for _j
                          10834 ; genPlusIncr
   1E83 21 34 01          10835 	ld	hl,#_j + 0
   1E86 34                10836 	inc	(hl)
                          10837 ; genGoto
   1E87 C3 54 1E          10838 	jp	00116$
                          10839 ; genLabel
   1E8A                   10840 00107$:
                          10841 ;	mGBMemoryFunctions.c 89
                          10842 ; genAssign
                          10843 ; AOP_HL for _j
   1E8A 21 34 01          10844 	ld	hl,#_j + 0
   1E8D 36 00             10845 	ld	(hl),#0x00
                          10846 ; genLabel
   1E8F                   10847 00120$:
                          10848 ; genCmpEq
                          10849 ; AOP_HL for _j
   1E8F 21 34 01          10850 	ld	hl,#_j + 0
   1E92 7E                10851 	ld	a,(hl) ; 2
   1E93 FE 18             10852 	cp	a,#0x18
                          10853 ; Rule 5
   1E95 CA C5 1E          10854 	jp	z,00123$
   1E98                   10855 00139$:
                          10856 ; genAssign
                          10857 ; AOP_HL for _j
   1E98 21 34 01          10858 	ld	hl,#_j + 0
   1E9B 4E                10859 	ld	c,(hl)
                          10860 ; genPlus
                          10861 ; AOP_STK for _snapRecall_sloc0_1_0
   1E9C 3E CF             10862 	ld	a,#<_dataSet
   1E9E 81                10863 	add	a,c
   1E9F F8 00             10864 	lda	hl,0(sp)
   1EA1 77                10865 	ld	(hl),a ; 3
   1EA2 3E 01             10866 	ld	a,#>_dataSet
   1EA4 CE 00             10867 	adc	a,#0x00
   1EA6 23                10868 	inc	hl
   1EA7 77                10869 	ld	(hl),a ; 3
                          10870 ; genAssign
                          10871 ; AOP_HL for _j
   1EA8 21 34 01          10872 	ld	hl,#_j + 0
   1EAB 4E                10873 	ld	c,(hl)
                          10874 ; genPlus
   1EAC 3E B3             10875 	ld	a,#<_dataSetSnap
   1EAE 81                10876 	add	a,c
   1EAF 5F                10877 	ld	e,a
   1EB0 3E 01             10878 	ld	a,#>_dataSetSnap
   1EB2 CE 00             10879 	adc	a,#0x00
   1EB4 57                10880 	ld	d,a
                          10881 ; genPointerGet
   1EB5 1A                10882 	ld	a,(de)
   1EB6 4F                10883 	ld	c,a
                          10884 ; genAssign (pointer)
                          10885 ; AOP_STK for _snapRecall_sloc0_1_0
   1EB7 F8 00             10886 	lda	hl,0(sp)
   1EB9 5E                10887 	ld	e,(hl)
   1EBA 23                10888 	inc	hl
   1EBB 56                10889 	ld	d,(hl)
   1EBC 79                10890 	ld	a,c
   1EBD 12                10891 	ld	(de),a
                          10892 ; genPlus
                          10893 ; AOP_HL for _j
                          10894 ; genPlusIncr
   1EBE 21 34 01          10895 	ld	hl,#_j + 0
   1EC1 34                10896 	inc	(hl)
                          10897 ; genGoto
   1EC2 C3 8F 1E          10898 	jp	00120$
                          10899 ; genLabel
   1EC5                   10900 00123$:
                          10901 ;	mGBMemoryFunctions.c 90
                          10902 ; genCall
   1EC5 CD 7C 12          10903 	call	_updateDisplay
                          10904 ; genLabel
   1EC8                   10905 00124$:
                          10906 ; genEndFunction
   1EC8 E8 02             10907 	lda	sp,2(sp)
   1ECA C1                10908 	pop bc
   1ECB C9                10909 	ret
   1ECC                   10910 ___snapRecall_end:
                          10911 ;	mGBMemoryFunctions.c 95
                          10912 ; genLabel
                          10913 ; genFunction
                          10914 ;	---------------------------------
                          10915 ; Function checkMemory
                          10916 ; ---------------------------------
   1ECC                   10917 ___checkMemory_start:
   1ECC                   10918 _checkMemory:
   1ECC C5                10919 	push	bc
   1ECD E8 ED             10920 	lda sp,-19(sp)
                          10921 ;	mGBMemoryFunctions.c 97
                          10922 ; genAssign
   1ECF 11 00 00          10923 	ld	de,#0x0000
                          10924 ; genAssign (pointer)
   1ED2 3E 0A             10925 	ld	a,#0x0A
   1ED4 12                10926 	ld	(de),a
                          10927 ;	mGBMemoryFunctions.c 98
                          10928 ; genPlus
                          10929 ; AOP_STK for _checkMemory_sloc1_1_0
                          10930 ; genPlusIncr
   1ED5 3E 00             10931 	ld	a,#<_saveData
   1ED7 C6 00             10932 	add	a,#0x00
   1ED9 F8 10             10933 	lda	hl,16(sp)
   1EDB 77                10934 	ld	(hl),a ; 3
   1EDC 3E 00             10935 	ld	a,#>_saveData
   1EDE CE 02             10936 	adc	a,#0x02
   1EE0 23                10937 	inc	hl
   1EE1 77                10938 	ld	(hl),a ; 3
                          10939 ; genPointerGet
                          10940 ; AOP_STK for _checkMemory_sloc1_1_0
                          10941 ; AOP_STK for _checkMemory_sloc0_1_0
   1EE2 2B                10942 	dec	hl
   1EE3 5E                10943 	ld	e,(hl)
   1EE4 23                10944 	inc	hl
   1EE5 56                10945 	ld	d,(hl)
   1EE6 1A                10946 	ld	a,(de)
   1EE7 23                10947 	inc	hl
   1EE8 77                10948 	ld	(hl),a ; 3
                          10949 ; genCmpEq
                          10950 ; AOP_STK for _checkMemory_sloc0_1_0
   1EE9 7E                10951 	ld	a,(hl) ; 2
   1EEA FE F7             10952 	cp	a,#0xF7
                          10953 ; Rule 5
   1EEC CA 19 21          10954 	jp	z,00102$
   1EEF                   10955 00142$:
                          10956 ;	mGBMemoryFunctions.c 99
                          10957 ; genAssign
                          10958 ; AOP_HL for _x
   1EEF 21 33 01          10959 	ld	hl,#_x + 0
   1EF2 36 00             10960 	ld	(hl),#0x00
                          10961 ; genLabel
   1EF4                   10962 00119$:
                          10963 ; genCmpEq
                          10964 ; AOP_HL for _x
   1EF4 21 33 01          10965 	ld	hl,#_x + 0
   1EF7 7E                10966 	ld	a,(hl) ; 2
   1EF8 FE 80             10967 	cp	a,#0x80
                          10968 ; Rule 5
   1EFA CA 11 21          10969 	jp	z,00122$
   1EFD                   10970 00143$:
                          10971 ;	mGBMemoryFunctions.c 100
                          10972 ; genAssign
                          10973 ; AOP_HL for _l
   1EFD 21 35 01          10974 	ld	hl,#_l + 0
   1F00 36 00             10975 	ld	(hl),#0x00
                          10976 ;	mGBMemoryFunctions.c 101
                          10977 ; genAssign
                          10978 ; AOP_HL for _i
   1F02 21 32 01          10979 	ld	hl,#_i + 0
   1F05 36 00             10980 	ld	(hl),#0x00
                          10981 ; genLabel
   1F07                   10982 00103$:
                          10983 ; genCmpLt
                          10984 ; AOP_HL for _i
                          10985 ; AOP_STK for _checkMemory_sloc0_1_0
   1F07 21 32 01          10986 	ld	hl,#_i + 0
   1F0A 7E                10987 	ld	a,(hl)
   1F0B FE 07             10988 	cp	#0x07
   1F0D 3E 00             10989 	ld	a,#0x00
   1F0F 17                10990 	rla
   1F10 F8 12             10991 	lda	hl,18(sp)
   1F12 77                10992 	ld	(hl),a ; 3
                          10993 ; genIfx
                          10994 ; AOP_STK for _checkMemory_sloc0_1_0
                          10995 ; Removed redundent or a,a
   1F13 AF                10996 	xor	a,a
   1F14 B6                10997 	or	a,(hl)
   1F15 CA 65 1F          10998 	jp	z,00106$
                          10999 ;	mGBMemoryFunctions.c 102
                          11000 ; genPlus
                          11001 ; AOP_HL for _x
                          11002 ; AOP_HL for _l
                          11003 ; AOP_STK for _checkMemory_sloc5_1_0
   1F18 21 33 01          11004 	ld	hl,#_x + 0
   1F1B 7E                11005 	ld	a,(hl)
   1F1C 21 35 01          11006 	ld	hl,#_l + 0
   1F1F 86                11007 	add	a,(hl)
   1F20 F8 0B             11008 	lda	hl,11(sp)
   1F22 77                11009 	ld	(hl),a ; 3
                          11010 ; genPlus
                          11011 ; AOP_STK for _checkMemory_sloc5_1_0
                          11012 ; AOP_STK for _checkMemory_sloc2_1_0
   1F23 3E 00             11013 	ld	a,#<_saveData
   1F25 86                11014 	add	a,(hl)
   1F26 F8 0E             11015 	lda	hl,14(sp)
   1F28 77                11016 	ld	(hl),a ; 3
   1F29 3E 00             11017 	ld	a,#>_saveData
   1F2B CE 00             11018 	adc	a,#0x00
   1F2D 23                11019 	inc	hl
   1F2E 77                11020 	ld	(hl),a ; 3
                          11021 ; genAssign
                          11022 ; AOP_HL for _i
                          11023 ; AOP_STK for _checkMemory_sloc3_1_0
   1F2F 21 32 01          11024 	ld	hl,#_i + 0
   1F32 7E                11025 	ld	a,(hl)
   1F33 F8 0D             11026 	lda	hl,13(sp)
   1F35 77                11027 	ld	(hl),a ; 3
                          11028 ; genPlus
                          11029 ; AOP_STK for _checkMemory_sloc3_1_0
   1F36 3E CF             11030 	ld	a,#<_dataSet
   1F38 86                11031 	add	a,(hl)
   1F39 5F                11032 	ld	e,a
   1F3A 3E 01             11033 	ld	a,#>_dataSet
   1F3C CE 00             11034 	adc	a,#0x00
   1F3E 57                11035 	ld	d,a
                          11036 ; genPointerGet
                          11037 ; AOP_STK for _checkMemory_sloc4_1_0
   1F3F 1A                11038 	ld	a,(de)
   1F40 2B                11039 	dec	hl
   1F41 77                11040 	ld	(hl),a ; 3
                          11041 ; genAssign (pointer)
                          11042 ; AOP_STK for _checkMemory_sloc2_1_0
                          11043 ; AOP_STK for _checkMemory_sloc4_1_0
   1F42 23                11044 	inc	hl
   1F43 23                11045 	inc	hl
   1F44 5E                11046 	ld	e,(hl)
   1F45 23                11047 	inc	hl
   1F46 56                11048 	ld	d,(hl)
   1F47 F8 0C             11049 	lda	hl,12(sp)
   1F49 7E                11050 	ld	a,(hl)
   1F4A 12                11051 	ld	(de),a
                          11052 ;	mGBMemoryFunctions.c 103
                          11053 ; genPlus
                          11054 ; AOP_HL for _l
                          11055 ; AOP_STK for _checkMemory_sloc6_1_0
                          11056 ; genPlusIncr
   1F4B 21 35 01          11057 	ld	hl,#_l + 0
   1F4E 7E                11058 	ld	a,(hl)
   1F4F C6 01             11059 	add	a,#0x01
   1F51 F8 0A             11060 	lda	hl,10(sp)
   1F53 77                11061 	ld	(hl),a ; 3
                          11062 ; genAssign
                          11063 ; AOP_STK for _checkMemory_sloc6_1_0
                          11064 ; AOP_HL for _l
   1F54 7E                11065 	ld	a,(hl)
   1F55 21 35 01          11066 	ld	hl,#_l + 0
   1F58 77                11067 	ld	(hl),a
                          11068 ; genAssign
                          11069 ; AOP_HL for _l
                          11070 ; (registers are the same)
                          11071 ;	mGBMemoryFunctions.c 101
                          11072 ; genPlus
                          11073 ; AOP_HL for _i
                          11074 ; genPlusIncr
   1F59 21 32 01          11075 	ld	hl,#_i + 0
   1F5C 7E                11076 	ld	a,(hl)
   1F5D C6 01             11077 	add	a,#0x01
   1F5F 47                11078 	ld	b,a
                          11079 ; genAssign
   1F60 48                11080 	ld	c,b
                          11081 ; genAssign
                          11082 ; AOP_HL for _i
   1F61 71                11083 	ld	(hl),c
                          11084 ; genGoto
   1F62 C3 07 1F          11085 	jp	00103$
                          11086 ; genLabel
   1F65                   11087 00106$:
                          11088 ;	mGBMemoryFunctions.c 105
                          11089 ; genAssign
                          11090 ; AOP_HL for _l
   1F65 21 35 01          11091 	ld	hl,#_l + 0
   1F68 36 00             11092 	ld	(hl),#0x00
                          11093 ;	mGBMemoryFunctions.c 106
                          11094 ; genAssign
                          11095 ; AOP_HL for _i
   1F6A 21 32 01          11096 	ld	hl,#_i + 0
   1F6D 36 07             11097 	ld	(hl),#0x07
                          11098 ; genLabel
   1F6F                   11099 00107$:
                          11100 ; genCmpEq
                          11101 ; AOP_HL for _i
                          11102 ; AOP_STK for _checkMemory_sloc6_1_0
   1F6F 21 32 01          11103 	ld	hl,#_i + 0
   1F72 7E                11104 	ld	a,(hl) ; 2
   1F73 FE 0D             11105 	cp	a,#0x0D
   1F75 C2 7C 1F          11106 	jp	nz,00144$
   1F78 3E 01             11107 	ld	a,#0x01
   1F7A 18 01             11108 	jr	00145$
   1F7C                   11109 00144$:
   1F7C AF                11110 	xor	a,a
   1F7D                   11111 00145$:
   1F7D F8 0A             11112 	lda	hl,10(sp)
   1F7F 77                11113 	ld	(hl),a ; 3
                          11114 ; genIfx
                          11115 ; AOP_STK for _checkMemory_sloc6_1_0
                          11116 ; Removed redundent or a,a
   1F80 AF                11117 	xor	a,a
   1F81 B6                11118 	or	a,(hl)
   1F82 C2 D3 1F          11119 	jp	nz,00110$
                          11120 ;	mGBMemoryFunctions.c 107
                          11121 ; genPlus
                          11122 ; AOP_HL for _x
                          11123 ; genPlusIncr
   1F85 21 33 01          11124 	ld	hl,#_x + 0
   1F88 7E                11125 	ld	a,(hl)
   1F89 C6 80             11126 	add	a,#0x80
                          11127 ; genPlus
                          11128 ; AOP_HL for _l
                          11129 ; AOP_STK for _checkMemory_sloc3_1_0
   1F8B 21 35 01          11130 	ld	hl,#_l + 0
   1F8E 86                11131 	add	a,(hl)
   1F8F F8 0D             11132 	lda	hl,13(sp)
   1F91 77                11133 	ld	(hl),a ; 3
                          11134 ; genPlus
                          11135 ; AOP_STK for _checkMemory_sloc3_1_0
                          11136 ; AOP_STK for _checkMemory_sloc2_1_0
   1F92 3E 00             11137 	ld	a,#<_saveData
   1F94 86                11138 	add	a,(hl)
   1F95 23                11139 	inc	hl
   1F96 77                11140 	ld	(hl),a ; 3
   1F97 3E 00             11141 	ld	a,#>_saveData
   1F99 CE 00             11142 	adc	a,#0x00
   1F9B 23                11143 	inc	hl
   1F9C 77                11144 	ld	(hl),a ; 3
                          11145 ; genAssign
                          11146 ; AOP_HL for _i
                          11147 ; AOP_STK for _checkMemory_sloc5_1_0
   1F9D 21 32 01          11148 	ld	hl,#_i + 0
   1FA0 7E                11149 	ld	a,(hl)
   1FA1 F8 0B             11150 	lda	hl,11(sp)
   1FA3 77                11151 	ld	(hl),a ; 3
                          11152 ; genPlus
                          11153 ; AOP_STK for _checkMemory_sloc5_1_0
   1FA4 3E CF             11154 	ld	a,#<_dataSet
   1FA6 86                11155 	add	a,(hl)
   1FA7 5F                11156 	ld	e,a
   1FA8 3E 01             11157 	ld	a,#>_dataSet
   1FAA CE 00             11158 	adc	a,#0x00
   1FAC 57                11159 	ld	d,a
                          11160 ; genPointerGet
                          11161 ; AOP_STK for _checkMemory_sloc4_1_0
   1FAD 1A                11162 	ld	a,(de)
   1FAE 23                11163 	inc	hl
   1FAF 77                11164 	ld	(hl),a ; 3
                          11165 ; genAssign (pointer)
                          11166 ; AOP_STK for _checkMemory_sloc2_1_0
                          11167 ; AOP_STK for _checkMemory_sloc4_1_0
   1FB0 23                11168 	inc	hl
   1FB1 23                11169 	inc	hl
   1FB2 5E                11170 	ld	e,(hl)
   1FB3 23                11171 	inc	hl
   1FB4 56                11172 	ld	d,(hl)
   1FB5 F8 0C             11173 	lda	hl,12(sp)
   1FB7 7E                11174 	ld	a,(hl)
   1FB8 12                11175 	ld	(de),a
                          11176 ;	mGBMemoryFunctions.c 108
                          11177 ; genPlus
                          11178 ; AOP_HL for _l
                          11179 ; AOP_STK for _checkMemory_sloc0_1_0
                          11180 ; genPlusIncr
   1FB9 21 35 01          11181 	ld	hl,#_l + 0
   1FBC 7E                11182 	ld	a,(hl)
   1FBD C6 01             11183 	add	a,#0x01
   1FBF F8 12             11184 	lda	hl,18(sp)
   1FC1 77                11185 	ld	(hl),a ; 3
                          11186 ; genAssign
                          11187 ; AOP_STK for _checkMemory_sloc0_1_0
                          11188 ; AOP_HL for _l
   1FC2 7E                11189 	ld	a,(hl)
   1FC3 21 35 01          11190 	ld	hl,#_l + 0
   1FC6 77                11191 	ld	(hl),a
                          11192 ; genAssign
                          11193 ; AOP_HL for _l
                          11194 ; (registers are the same)
                          11195 ;	mGBMemoryFunctions.c 106
                          11196 ; genPlus
                          11197 ; AOP_HL for _i
                          11198 ; genPlusIncr
   1FC7 21 32 01          11199 	ld	hl,#_i + 0
   1FCA 7E                11200 	ld	a,(hl)
   1FCB C6 01             11201 	add	a,#0x01
   1FCD 47                11202 	ld	b,a
                          11203 ; genAssign
   1FCE 48                11204 	ld	c,b
                          11205 ; genAssign
                          11206 ; AOP_HL for _i
   1FCF 71                11207 	ld	(hl),c
                          11208 ; genGoto
   1FD0 C3 6F 1F          11209 	jp	00107$
                          11210 ; genLabel
   1FD3                   11211 00110$:
                          11212 ;	mGBMemoryFunctions.c 110
                          11213 ; genAssign
                          11214 ; AOP_HL for _l
   1FD3 21 35 01          11215 	ld	hl,#_l + 0
   1FD6 36 00             11216 	ld	(hl),#0x00
                          11217 ;	mGBMemoryFunctions.c 111
                          11218 ; genAssign
                          11219 ; AOP_HL for _i
   1FD8 21 32 01          11220 	ld	hl,#_i + 0
   1FDB 36 0D             11221 	ld	(hl),#0x0D
                          11222 ; genLabel
   1FDD                   11223 00111$:
                          11224 ; genCmpEq
                          11225 ; AOP_HL for _i
                          11226 ; AOP_STK for _checkMemory_sloc6_1_0
   1FDD 21 32 01          11227 	ld	hl,#_i + 0
   1FE0 7E                11228 	ld	a,(hl) ; 2
   1FE1 FE 14             11229 	cp	a,#0x14
   1FE3 C2 EA 1F          11230 	jp	nz,00146$
   1FE6 3E 01             11231 	ld	a,#0x01
   1FE8 18 01             11232 	jr	00147$
   1FEA                   11233 00146$:
   1FEA AF                11234 	xor	a,a
   1FEB                   11235 00147$:
   1FEB F8 0A             11236 	lda	hl,10(sp)
   1FED 77                11237 	ld	(hl),a ; 3
                          11238 ; genIfx
                          11239 ; AOP_STK for _checkMemory_sloc6_1_0
                          11240 ; Removed redundent or a,a
   1FEE AF                11241 	xor	a,a
   1FEF B6                11242 	or	a,(hl)
   1FF0 C2 6D 20          11243 	jp	nz,00114$
                          11244 ;	mGBMemoryFunctions.c 112
                          11245 ; genCast
                          11246 ; AOP_HL for _x
                          11247 ; AOP_STK for _checkMemory_sloc7_1_0
   1FF3 21 33 01          11248 	ld	hl,#_x + 0
   1FF6 7E                11249 	ld	a,(hl)
   1FF7 F8 08             11250 	lda	hl,8(sp)
   1FF9 77                11251 	ld	(hl),a ; 3
   1FFA 23                11252 	inc	hl
   1FFB 36 00             11253 	ld	(hl),#0x00 ; 3
                          11254 ; genPlus
                          11255 ; AOP_STK for _checkMemory_sloc7_1_0
                          11256 ; AOP_STK for _checkMemory_sloc2_1_0
                          11257 ; genPlusIncr
   1FFD 2B                11258 	dec	hl
   1FFE 7E                11259 	ld	a,(hl)
   1FFF C6 00             11260 	add	a,#0x00
   2001 F8 0E             11261 	lda	hl,14(sp)
   2003 77                11262 	ld	(hl),a ; 3
   2004 F8 09             11263 	lda	hl,9(sp)
   2006 7E                11264 	ld	a,(hl)
   2007 CE 01             11265 	adc	a,#0x01
   2009 F8 0F             11266 	lda	hl,15(sp)
   200B 77                11267 	ld	(hl),a ; 3
                          11268 ; genCast
                          11269 ; AOP_HL for _l
                          11270 ; AOP_STK for _checkMemory_sloc9_1_0
   200C 21 35 01          11271 	ld	hl,#_l + 0
   200F 7E                11272 	ld	a,(hl)
   2010 F8 04             11273 	lda	hl,4(sp)
   2012 77                11274 	ld	(hl),a ; 3
   2013 23                11275 	inc	hl
   2014 36 00             11276 	ld	(hl),#0x00 ; 3
                          11277 ; genPlus
                          11278 ; AOP_STK for _checkMemory_sloc2_1_0
                          11279 ; AOP_STK for _checkMemory_sloc9_1_0
                          11280 ; AOP_STK for _checkMemory_sloc8_1_0
   2016 F8 0E             11281 	lda	hl,14(sp)
   2018 7E                11282 	ld	a,(hl)
   2019 F8 04             11283 	lda	hl,4(sp)
   201B 86                11284 	add	a,(hl)
   201C 23                11285 	inc	hl
   201D 23                11286 	inc	hl
   201E 77                11287 	ld	(hl),a ; 3
   201F F8 0F             11288 	lda	hl,15(sp)
   2021 7E                11289 	ld	a,(hl)
   2022 F8 05             11290 	lda	hl,5(sp)
   2024 8E                11291 	adc	a,(hl)
   2025 23                11292 	inc	hl
   2026 23                11293 	inc	hl
   2027 77                11294 	ld	(hl),a ; 3
                          11295 ; genPlus
                          11296 ; AOP_STK for _checkMemory_sloc8_1_0
                          11297 ; AOP_STK for _checkMemory_sloc10_1_0
   2028 3E 00             11298 	ld	a,#<_saveData
   202A 2B                11299 	dec	hl
   202B 86                11300 	add	a,(hl)
   202C F8 02             11301 	lda	hl,2(sp)
   202E 77                11302 	ld	(hl),a ; 3
   202F 3E 00             11303 	ld	a,#>_saveData
   2031 F8 07             11304 	lda	hl,7(sp)
   2033 8E                11305 	adc	a,(hl)
   2034 F8 03             11306 	lda	hl,3(sp)
   2036 77                11307 	ld	(hl),a ; 3
                          11308 ; genAssign
                          11309 ; AOP_HL for _i
                          11310 ; AOP_STK for _checkMemory_sloc4_1_0
   2037 21 32 01          11311 	ld	hl,#_i + 0
   203A 7E                11312 	ld	a,(hl)
   203B F8 0C             11313 	lda	hl,12(sp)
   203D 77                11314 	ld	(hl),a ; 3
                          11315 ; genPlus
                          11316 ; AOP_STK for _checkMemory_sloc4_1_0
   203E 3E CF             11317 	ld	a,#<_dataSet
   2040 86                11318 	add	a,(hl)
   2041 5F                11319 	ld	e,a
   2042 3E 01             11320 	ld	a,#>_dataSet
   2044 CE 00             11321 	adc	a,#0x00
   2046 57                11322 	ld	d,a
                          11323 ; genPointerGet
                          11324 ; AOP_STK for _checkMemory_sloc5_1_0
   2047 1A                11325 	ld	a,(de)
   2048 2B                11326 	dec	hl
   2049 77                11327 	ld	(hl),a ; 3
                          11328 ; genAssign (pointer)
                          11329 ; AOP_STK for _checkMemory_sloc10_1_0
                          11330 ; AOP_STK for _checkMemory_sloc5_1_0
   204A F8 02             11331 	lda	hl,2(sp)
   204C 5E                11332 	ld	e,(hl)
   204D 23                11333 	inc	hl
   204E 56                11334 	ld	d,(hl)
   204F F8 0B             11335 	lda	hl,11(sp)
   2051 7E                11336 	ld	a,(hl)
   2052 12                11337 	ld	(de),a
                          11338 ;	mGBMemoryFunctions.c 113
                          11339 ; genPlus
                          11340 ; AOP_HL for _l
                          11341 ; AOP_STK for _checkMemory_sloc3_1_0
                          11342 ; genPlusIncr
   2053 21 35 01          11343 	ld	hl,#_l + 0
   2056 7E                11344 	ld	a,(hl)
   2057 C6 01             11345 	add	a,#0x01
   2059 F8 0D             11346 	lda	hl,13(sp)
   205B 77                11347 	ld	(hl),a ; 3
                          11348 ; genAssign
                          11349 ; AOP_STK for _checkMemory_sloc3_1_0
                          11350 ; AOP_HL for _l
   205C 7E                11351 	ld	a,(hl)
   205D 21 35 01          11352 	ld	hl,#_l + 0
   2060 77                11353 	ld	(hl),a
                          11354 ; genAssign
                          11355 ; AOP_HL for _l
                          11356 ; (registers are the same)
                          11357 ;	mGBMemoryFunctions.c 111
                          11358 ; genPlus
                          11359 ; AOP_HL for _i
                          11360 ; genPlusIncr
   2061 21 32 01          11361 	ld	hl,#_i + 0
   2064 7E                11362 	ld	a,(hl)
   2065 C6 01             11363 	add	a,#0x01
   2067 4F                11364 	ld	c,a
                          11365 ; genAssign
   2068 41                11366 	ld	b,c
                          11367 ; genAssign
                          11368 ; AOP_HL for _i
   2069 70                11369 	ld	(hl),b
                          11370 ; genGoto
   206A C3 DD 1F          11371 	jp	00111$
                          11372 ; genLabel
   206D                   11373 00114$:
                          11374 ;	mGBMemoryFunctions.c 115
                          11375 ; genAssign
                          11376 ; AOP_HL for _l
   206D 21 35 01          11377 	ld	hl,#_l + 0
   2070 36 00             11378 	ld	(hl),#0x00
                          11379 ;	mGBMemoryFunctions.c 116
                          11380 ; genAssign
                          11381 ; AOP_HL for _i
   2072 21 32 01          11382 	ld	hl,#_i + 0
   2075 36 14             11383 	ld	(hl),#0x14
                          11384 ; genLabel
   2077                   11385 00115$:
                          11386 ; genCmpEq
                          11387 ; AOP_HL for _i
                          11388 ; AOP_STK for _checkMemory_sloc10_1_0
   2077 21 32 01          11389 	ld	hl,#_i + 0
   207A 7E                11390 	ld	a,(hl) ; 2
   207B FE 18             11391 	cp	a,#0x18
   207D C2 84 20          11392 	jp	nz,00148$
   2080 3E 01             11393 	ld	a,#0x01
   2082 18 01             11394 	jr	00149$
   2084                   11395 00148$:
   2084 AF                11396 	xor	a,a
   2085                   11397 00149$:
   2085 F8 02             11398 	lda	hl,2(sp)
   2087 77                11399 	ld	(hl),a ; 3
                          11400 ; genIfx
                          11401 ; AOP_STK for _checkMemory_sloc10_1_0
                          11402 ; Removed redundent or a,a
   2088 AF                11403 	xor	a,a
   2089 B6                11404 	or	a,(hl)
   208A C2 07 21          11405 	jp	nz,00121$
                          11406 ;	mGBMemoryFunctions.c 117
                          11407 ; genCast
                          11408 ; AOP_HL for _x
                          11409 ; AOP_STK for _checkMemory_sloc8_1_0
   208D 21 33 01          11410 	ld	hl,#_x + 0
   2090 7E                11411 	ld	a,(hl)
   2091 F8 06             11412 	lda	hl,6(sp)
   2093 77                11413 	ld	(hl),a ; 3
   2094 23                11414 	inc	hl
   2095 36 00             11415 	ld	(hl),#0x00 ; 3
                          11416 ; genPlus
                          11417 ; AOP_STK for _checkMemory_sloc8_1_0
                          11418 ; AOP_STK for _checkMemory_sloc9_1_0
                          11419 ; genPlusIncr
   2097 2B                11420 	dec	hl
   2098 7E                11421 	ld	a,(hl)
   2099 C6 80             11422 	add	a,#0x80
   209B 2B                11423 	dec	hl
   209C 2B                11424 	dec	hl
   209D 77                11425 	ld	(hl),a ; 3
   209E F8 07             11426 	lda	hl,7(sp)
   20A0 7E                11427 	ld	a,(hl)
   20A1 CE 01             11428 	adc	a,#0x01
   20A3 2B                11429 	dec	hl
   20A4 2B                11430 	dec	hl
   20A5 77                11431 	ld	(hl),a ; 3
                          11432 ; genCast
                          11433 ; AOP_HL for _l
                          11434 ; AOP_STK for _checkMemory_sloc2_1_0
   20A6 21 35 01          11435 	ld	hl,#_l + 0
   20A9 7E                11436 	ld	a,(hl)
   20AA F8 0E             11437 	lda	hl,14(sp)
   20AC 77                11438 	ld	(hl),a ; 3
   20AD 23                11439 	inc	hl
   20AE 36 00             11440 	ld	(hl),#0x00 ; 3
                          11441 ; genPlus
                          11442 ; AOP_STK for _checkMemory_sloc9_1_0
                          11443 ; AOP_STK for _checkMemory_sloc2_1_0
                          11444 ; AOP_STK for _checkMemory_sloc7_1_0
   20B0 F8 04             11445 	lda	hl,4(sp)
   20B2 7E                11446 	ld	a,(hl)
   20B3 F8 0E             11447 	lda	hl,14(sp)
   20B5 86                11448 	add	a,(hl)
   20B6 F8 08             11449 	lda	hl,8(sp)
   20B8 77                11450 	ld	(hl),a ; 3
   20B9 F8 05             11451 	lda	hl,5(sp)
   20BB 7E                11452 	ld	a,(hl)
   20BC F8 0F             11453 	lda	hl,15(sp)
   20BE 8E                11454 	adc	a,(hl)
   20BF F8 09             11455 	lda	hl,9(sp)
   20C1 77                11456 	ld	(hl),a ; 3
                          11457 ; genPlus
                          11458 ; AOP_STK for _checkMemory_sloc7_1_0
                          11459 ; AOP_STK for _checkMemory_sloc11_1_0
   20C2 3E 00             11460 	ld	a,#<_saveData
   20C4 2B                11461 	dec	hl
   20C5 86                11462 	add	a,(hl)
   20C6 F8 00             11463 	lda	hl,0(sp)
   20C8 77                11464 	ld	(hl),a ; 3
   20C9 3E 00             11465 	ld	a,#>_saveData
   20CB F8 09             11466 	lda	hl,9(sp)
   20CD 8E                11467 	adc	a,(hl)
   20CE F8 01             11468 	lda	hl,1(sp)
   20D0 77                11469 	ld	(hl),a ; 3
                          11470 ; genAssign
                          11471 ; AOP_HL for _i
                          11472 ; AOP_STK for _checkMemory_sloc5_1_0
   20D1 21 32 01          11473 	ld	hl,#_i + 0
   20D4 7E                11474 	ld	a,(hl)
   20D5 F8 0B             11475 	lda	hl,11(sp)
   20D7 77                11476 	ld	(hl),a ; 3
                          11477 ; genPlus
                          11478 ; AOP_STK for _checkMemory_sloc5_1_0
   20D8 3E CF             11479 	ld	a,#<_dataSet
   20DA 86                11480 	add	a,(hl)
   20DB 5F                11481 	ld	e,a
   20DC 3E 01             11482 	ld	a,#>_dataSet
   20DE CE 00             11483 	adc	a,#0x00
   20E0 57                11484 	ld	d,a
                          11485 ; genPointerGet
                          11486 ; AOP_STK for _checkMemory_sloc6_1_0
   20E1 1A                11487 	ld	a,(de)
   20E2 2B                11488 	dec	hl
   20E3 77                11489 	ld	(hl),a ; 3
                          11490 ; genAssign (pointer)
                          11491 ; AOP_STK for _checkMemory_sloc11_1_0
                          11492 ; AOP_STK for _checkMemory_sloc6_1_0
   20E4 F8 00             11493 	lda	hl,0(sp)
   20E6 5E                11494 	ld	e,(hl)
   20E7 23                11495 	inc	hl
   20E8 56                11496 	ld	d,(hl)
   20E9 F8 0A             11497 	lda	hl,10(sp)
   20EB 7E                11498 	ld	a,(hl)
   20EC 12                11499 	ld	(de),a
                          11500 ;	mGBMemoryFunctions.c 118
                          11501 ; genPlus
                          11502 ; AOP_HL for _l
                          11503 ; AOP_STK for _checkMemory_sloc4_1_0
                          11504 ; genPlusIncr
   20ED 21 35 01          11505 	ld	hl,#_l + 0
   20F0 7E                11506 	ld	a,(hl)
   20F1 C6 01             11507 	add	a,#0x01
   20F3 F8 0C             11508 	lda	hl,12(sp)
   20F5 77                11509 	ld	(hl),a ; 3
                          11510 ; genAssign
                          11511 ; AOP_STK for _checkMemory_sloc4_1_0
                          11512 ; AOP_HL for _l
   20F6 7E                11513 	ld	a,(hl)
   20F7 21 35 01          11514 	ld	hl,#_l + 0
   20FA 77                11515 	ld	(hl),a
                          11516 ; genAssign
                          11517 ; AOP_HL for _l
                          11518 ; (registers are the same)
                          11519 ;	mGBMemoryFunctions.c 116
                          11520 ; genPlus
                          11521 ; AOP_HL for _i
                          11522 ; genPlusIncr
   20FB 21 32 01          11523 	ld	hl,#_i + 0
   20FE 7E                11524 	ld	a,(hl)
   20FF C6 01             11525 	add	a,#0x01
   2101 4F                11526 	ld	c,a
                          11527 ; genAssign
   2102 41                11528 	ld	b,c
                          11529 ; genAssign
                          11530 ; AOP_HL for _i
   2103 70                11531 	ld	(hl),b
                          11532 ; genGoto
   2104 C3 77 20          11533 	jp	00115$
                          11534 ; genLabel
   2107                   11535 00121$:
                          11536 ;	mGBMemoryFunctions.c 99
                          11537 ; genPlus
                          11538 ; AOP_HL for _x
                          11539 ; genPlusIncr
   2107 21 33 01          11540 	ld	hl,#_x + 0
   210A 7E                11541 	ld	a,(hl)
   210B C6 08             11542 	add	a,#0x08
   210D 77                11543 	ld	(hl),a
                          11544 ; genGoto
   210E C3 F4 1E          11545 	jp	00119$
                          11546 ; genLabel
   2111                   11547 00122$:
                          11548 ;	mGBMemoryFunctions.c 121
                          11549 ; genAssign (pointer)
                          11550 ; AOP_STK for _checkMemory_sloc1_1_0
   2111 F8 10             11551 	lda	hl,16(sp)
   2113 5E                11552 	ld	e,(hl)
   2114 23                11553 	inc	hl
   2115 56                11554 	ld	d,(hl)
   2116 3E F7             11555 	ld	a,#0xF7
   2118 12                11556 	ld	(de),a
                          11557 ; genLabel
   2119                   11558 00102$:
                          11559 ;	mGBMemoryFunctions.c 123
                          11560 ; genAssign
   2119 11 00 00          11561 	ld	de,#0x0000
                          11562 ; genAssign (pointer)
   211C 3E 00             11563 	ld	a,#0x00
   211E 12                11564 	ld	(de),a
                          11565 ;	mGBMemoryFunctions.c 125
                          11566 ; genAssign
                          11567 ; AOP_HL for _j
   211F 21 34 01          11568 	ld	hl,#_j + 0
   2122 36 00             11569 	ld	(hl),#0x00
                          11570 ; genLabel
   2124                   11571 00123$:
                          11572 ; genCmpEq
                          11573 ; AOP_HL for _j
   2124 21 34 01          11574 	ld	hl,#_j + 0
   2127 7E                11575 	ld	a,(hl) ; 2
   2128 FE 18             11576 	cp	a,#0x18
                          11577 ; Rule 5
   212A CA 5A 21          11578 	jp	z,00127$
   212D                   11579 00150$:
                          11580 ; genAssign
                          11581 ; AOP_HL for _j
   212D 21 34 01          11582 	ld	hl,#_j + 0
   2130 4E                11583 	ld	c,(hl)
                          11584 ; genPlus
                          11585 ; AOP_STK for _checkMemory_sloc11_1_0
   2131 3E B3             11586 	ld	a,#<_dataSetSnap
   2133 81                11587 	add	a,c
   2134 F8 00             11588 	lda	hl,0(sp)
   2136 77                11589 	ld	(hl),a ; 3
   2137 3E 01             11590 	ld	a,#>_dataSetSnap
   2139 CE 00             11591 	adc	a,#0x00
   213B 23                11592 	inc	hl
   213C 77                11593 	ld	(hl),a ; 3
                          11594 ; genAssign
                          11595 ; AOP_HL for _j
   213D 21 34 01          11596 	ld	hl,#_j + 0
   2140 4E                11597 	ld	c,(hl)
                          11598 ; genPlus
   2141 3E CF             11599 	ld	a,#<_dataSet
   2143 81                11600 	add	a,c
   2144 5F                11601 	ld	e,a
   2145 3E 01             11602 	ld	a,#>_dataSet
   2147 CE 00             11603 	adc	a,#0x00
   2149 57                11604 	ld	d,a
                          11605 ; genPointerGet
   214A 1A                11606 	ld	a,(de)
   214B 4F                11607 	ld	c,a
                          11608 ; genAssign (pointer)
                          11609 ; AOP_STK for _checkMemory_sloc11_1_0
   214C F8 00             11610 	lda	hl,0(sp)
   214E 5E                11611 	ld	e,(hl)
   214F 23                11612 	inc	hl
   2150 56                11613 	ld	d,(hl)
   2151 79                11614 	ld	a,c
   2152 12                11615 	ld	(de),a
                          11616 ; genPlus
                          11617 ; AOP_HL for _j
                          11618 ; genPlusIncr
   2153 21 34 01          11619 	ld	hl,#_j + 0
   2156 34                11620 	inc	(hl)
                          11621 ; genGoto
   2157 C3 24 21          11622 	jp	00123$
                          11623 ; genLabel
   215A                   11624 00127$:
                          11625 ; genEndFunction
   215A E8 13             11626 	lda	sp,19(sp)
   215C C1                11627 	pop bc
   215D C9                11628 	ret
   215E                   11629 ___checkMemory_end:
                          11630 ;	mGBUserFunctions.c 2
                          11631 ; genLabel
                          11632 ; genFunction
                          11633 ;	---------------------------------
                          11634 ; Function clearParameterLocks
                          11635 ; ---------------------------------
   215E                   11636 ___clearParameterLocks_start:
   215E                   11637 _clearParameterLocks:
   215E C5                11638 	push	bc
                          11639 ;	mGBUserFunctions.c 4
                          11640 ; genAssign
                          11641 ; AOP_HL for _j
   215F 21 34 01          11642 	ld	hl,#_j + 0
   2162 36 00             11643 	ld	(hl),#0x00
                          11644 ; genLabel
   2164                   11645 00101$:
                          11646 ; genCmpEq
                          11647 ; AOP_HL for _j
   2164 21 34 01          11648 	ld	hl,#_j + 0
   2167 7E                11649 	ld	a,(hl) ; 2
   2168 FE 18             11650 	cp	a,#0x18
                          11651 ; Rule 5
   216A CA 81 21          11652 	jp	z,00105$
   216D                   11653 00109$:
                          11654 ; genAssign
                          11655 ; AOP_HL for _j
   216D 21 34 01          11656 	ld	hl,#_j + 0
   2170 4E                11657 	ld	c,(hl)
                          11658 ; genPlus
   2171 3E EC             11659 	ld	a,#<_parameterLock
   2173 81                11660 	add	a,c
   2174 5F                11661 	ld	e,a
   2175 3E 01             11662 	ld	a,#>_parameterLock
   2177 CE 00             11663 	adc	a,#0x00
   2179 57                11664 	ld	d,a
                          11665 ; genAssign (pointer)
   217A 3E 00             11666 	ld	a,#0x00
   217C 12                11667 	ld	(de),a
                          11668 ; genPlus
                          11669 ; AOP_HL for _j
                          11670 ; genPlusIncr
   217D 34                11671 	inc	(hl)
                          11672 ; genGoto
   217E C3 64 21          11673 	jp	00101$
                          11674 ; genLabel
   2181                   11675 00105$:
                          11676 ; genEndFunction
   2181 C1                11677 	pop	bc
   2182 C9                11678 	ret
   2183                   11679 ___clearParameterLocks_end:
                          11680 ;	mGBUserFunctions.c 7
                          11681 ; genLabel
                          11682 ; genFunction
                          11683 ;	---------------------------------
                          11684 ; Function setDataValue
                          11685 ; ---------------------------------
   2183                   11686 ___setDataValue_start:
   2183                   11687 _setDataValue:
   2183 C5                11688 	push	bc
   2184 E8 FB             11689 	lda sp,-5(sp)
                          11690 ;	mGBUserFunctions.c 9
                          11691 ; genAssign
                          11692 ; AOP_STK for _setDataValue_up_1_1
   2186 F8 04             11693 	lda	hl,4(sp)
   2188 36 00             11694 	ld	(hl),#0x00 ; 3
                          11695 ;	mGBUserFunctions.c 10
                          11696 ; genAssign
                          11697 ; AOP_STK for _setDataValue_inc_1_1
   218A 2B                11698 	dec	hl
   218B 36 01             11699 	ld	(hl),#0x01 ; 3
                          11700 ;	mGBUserFunctions.c 11
                          11701 ; genAssign
                          11702 ; AOP_HL for _systemIdle
   218D 21 8A 01          11703 	ld	hl,#_systemIdle + 0
   2190 36 00             11704 	ld	(hl),#0x00
                          11705 ;	mGBUserFunctions.c 13
                          11706 ; genAssign
                          11707 ; AOP_HL for _j
   2192 21 34 01          11708 	ld	hl,#_j + 0
   2195 36 00             11709 	ld	(hl),#0x00
                          11710 ;	mGBUserFunctions.c 14
                          11711 ; genAnd
                          11712 ; AOP_HL for _i
                          11713 ; AOP_STK for _setDataValue_sloc0_1_0
   2197 21 32 01          11714 	ld	hl,#_i + 0
   219A 7E                11715 	ld	a,(hl)
   219B E6 04             11716 	and	a,#0x04
   219D F8 02             11717 	lda	hl,2(sp)
   219F 77                11718 	ld	(hl),a ; 3
                          11719 ; genIfx
                          11720 ; AOP_STK for _setDataValue_sloc0_1_0
                          11721 ; Removed redundent or a,a
   21A0 AF                11722 	xor	a,a
   21A1 B6                11723 	or	a,(hl)
   21A2 CA B4 21          11724 	jp	z,00110$
                          11725 ;	mGBUserFunctions.c 15
                          11726 ; genAssign
                          11727 ; AOP_HL for _j
   21A5 21 34 01          11728 	ld	hl,#_j + 0
   21A8 36 01             11729 	ld	(hl),#0x01
                          11730 ;	mGBUserFunctions.c 16
                          11731 ; genAssign
                          11732 ; AOP_STK for _setDataValue_up_1_1
   21AA F8 04             11733 	lda	hl,4(sp)
   21AC 36 01             11734 	ld	(hl),#0x01 ; 3
                          11735 ;	mGBUserFunctions.c 17
                          11736 ; genAssign
                          11737 ; AOP_STK for _setDataValue_inc_1_1
   21AE 2B                11738 	dec	hl
   21AF 36 10             11739 	ld	(hl),#0x10 ; 3
                          11740 ; genGoto
   21B1 C3 EC 21          11741 	jp	00111$
                          11742 ; genLabel
   21B4                   11743 00110$:
                          11744 ;	mGBUserFunctions.c 18
                          11745 ; genAnd
                          11746 ; AOP_HL for _i
   21B4 21 32 01          11747 	ld	hl,#_i + 0
   21B7 7E                11748 	ld	a,(hl)
   21B8 CB 5F             11749 	bit	3,a
   21BA CA C9 21          11750 	jp	z,00107$
                          11751 ;	mGBUserFunctions.c 19
                          11752 ; genAssign
                          11753 ; AOP_HL for _j
   21BD 21 34 01          11754 	ld	hl,#_j + 0
   21C0 36 01             11755 	ld	(hl),#0x01
                          11756 ;	mGBUserFunctions.c 20
                          11757 ; genAssign
                          11758 ; AOP_STK for _setDataValue_inc_1_1
   21C2 F8 03             11759 	lda	hl,3(sp)
   21C4 36 10             11760 	ld	(hl),#0x10 ; 3
                          11761 ; genGoto
   21C6 C3 EC 21          11762 	jp	00111$
                          11763 ; genLabel
   21C9                   11764 00107$:
                          11765 ;	mGBUserFunctions.c 21
                          11766 ; genAnd
                          11767 ; AOP_HL for _i
   21C9 21 32 01          11768 	ld	hl,#_i + 0
   21CC 7E                11769 	ld	a,(hl)
   21CD CB 4F             11770 	bit	1,a
   21CF CA DA 21          11771 	jp	z,00104$
                          11772 ;	mGBUserFunctions.c 22
                          11773 ; genAssign
                          11774 ; AOP_HL for _j
   21D2 21 34 01          11775 	ld	hl,#_j + 0
   21D5 36 01             11776 	ld	(hl),#0x01
                          11777 ; genGoto
   21D7 C3 EC 21          11778 	jp	00111$
                          11779 ; genLabel
   21DA                   11780 00104$:
                          11781 ;	mGBUserFunctions.c 23
                          11782 ; genAnd
                          11783 ; AOP_HL for _i
   21DA 21 32 01          11784 	ld	hl,#_i + 0
   21DD 7E                11785 	ld	a,(hl)
   21DE CB 47             11786 	bit	0,a
   21E0 CA EC 21          11787 	jp	z,00111$
                          11788 ;	mGBUserFunctions.c 24
                          11789 ; genAssign
                          11790 ; AOP_STK for _setDataValue_up_1_1
   21E3 F8 04             11791 	lda	hl,4(sp)
   21E5 36 01             11792 	ld	(hl),#0x01 ; 3
                          11793 ;	mGBUserFunctions.c 25
                          11794 ; genAssign
                          11795 ; AOP_HL for _j
   21E7 21 34 01          11796 	ld	hl,#_j + 0
   21EA 36 01             11797 	ld	(hl),#0x01
                          11798 ; genLabel
   21EC                   11799 00111$:
                          11800 ;	mGBUserFunctions.c 27
                          11801 ; genIfx
                          11802 ; AOP_HL for _j
   21EC AF                11803 	xor	a,a
   21ED 21 34 01          11804 	ld	hl,#_j + 0
   21F0 B6                11805 	or	a,(hl)
   21F1 B7                11806 	or	a,a
   21F2 CA 31 24          11807 	jp	z,00152$
                          11808 ;	mGBUserFunctions.c 28
                          11809 ; genAssign
                          11810 ; AOP_HL for _j
   21F5 36 00             11811 	ld	(hl),#0x00
                          11812 ; genLabel
   21F7                   11813 00148$:
                          11814 ; genCmpEq
                          11815 ; AOP_HL for _j
   21F7 21 34 01          11816 	ld	hl,#_j + 0
   21FA 7E                11817 	ld	a,(hl) ; 2
   21FB FE 04             11818 	cp	a,#0x04
                          11819 ; Rule 5
   21FD CA 31 24          11820 	jp	z,00152$
   2200                   11821 00178$:
                          11822 ;	mGBUserFunctions.c 29
                          11823 ; genAssign
                          11824 ; AOP_HL for _j
   2200 21 34 01          11825 	ld	hl,#_j + 0
   2203 46                11826 	ld	b,(hl)
                          11827 ; genPlus
   2204 3E 6E             11828 	ld	a,#<_cursorEnable
   2206 80                11829 	add	a,b
   2207 5F                11830 	ld	e,a
   2208 3E 01             11831 	ld	a,#>_cursorEnable
   220A CE 00             11832 	adc	a,#0x00
   220C 57                11833 	ld	d,a
                          11834 ; genPointerGet
   220D 1A                11835 	ld	a,(de)
   220E 47                11836 	ld	b,a
                          11837 ; genIfx
                          11838 ; Removed redundent or a,a
   220F AF                11839 	xor	a,a
   2210 B0                11840 	or	a,b
   2211 CA 2A 24          11841 	jp	z,00150$
                          11842 ; genIpush
   2214 3E 09             11843 	ld	a,#0x09
   2216 F5                11844 	push	af
   2217 33                11845 	inc	sp
                          11846 ; genIpush
                          11847 ; AOP_HL for _j
   2218 7E                11848 	ld	a,(hl)
   2219 F5                11849 	push	af
   221A 33                11850 	inc	sp
                          11851 ; genCall
   221B CD 00 00          11852 	call	__muluchar
   221E 43                11853 	ld	b,e
   221F E8 02             11854 	lda	sp,2(sp)
                          11855 ; genPlus
                          11856 ; AOP_STK for _setDataValue_sloc1_1_0
   2221 3E 69             11857 	ld	a,#<_tableCursorLookup
   2223 80                11858 	add	a,b
   2224 F8 00             11859 	lda	hl,0(sp)
   2226 77                11860 	ld	(hl),a ; 3
   2227 3E 31             11861 	ld	a,#>_tableCursorLookup
   2229 CE 00             11862 	adc	a,#0x00
   222B 23                11863 	inc	hl
   222C 77                11864 	ld	(hl),a ; 3
                          11865 ; genAssign
                          11866 ; AOP_HL for _j
   222D 21 34 01          11867 	ld	hl,#_j + 0
   2230 4E                11868 	ld	c,(hl)
                          11869 ; genPlus
   2231 3E 73             11870 	ld	a,#<_cursorRow
   2233 81                11871 	add	a,c
   2234 5F                11872 	ld	e,a
   2235 3E 01             11873 	ld	a,#>_cursorRow
   2237 CE 00             11874 	adc	a,#0x00
   2239 57                11875 	ld	d,a
                          11876 ; genPointerGet
   223A 1A                11877 	ld	a,(de)
   223B 4F                11878 	ld	c,a
                          11879 ; genPlus
                          11880 ; AOP_STK for _setDataValue_sloc1_1_0
   223C F8 00             11881 	lda	hl,0(sp)
   223E 7E                11882 	ld	a,(hl)
   223F 81                11883 	add	a,c
   2240 5F                11884 	ld	e,a
   2241 23                11885 	inc	hl
   2242 7E                11886 	ld	a,(hl)
   2243 CE 00             11887 	adc	a,#0x00
   2245 57                11888 	ld	d,a
                          11889 ; genPointerGet
   2246 1A                11890 	ld	a,(de)
   2247 4F                11891 	ld	c,a
                          11892 ; genCmpEq
   2248 79                11893 	ld	a,c ; 2
   2249 FE FF             11894 	cp	a,#0xFF
                          11895 ; Rule 5
   224B CA 2A 24          11896 	jp	z,00150$
   224E                   11897 00179$:
                          11898 ;	mGBUserFunctions.c 30
                          11899 ; genAssign
                          11900 ; AOP_HL for _j
   224E 21 34 01          11901 	ld	hl,#_j + 0
   2251 4E                11902 	ld	c,(hl)
                          11903 ; genPlus
   2252 3E 73             11904 	ld	a,#<_cursorRow
   2254 81                11905 	add	a,c
   2255 5F                11906 	ld	e,a
   2256 3E 01             11907 	ld	a,#>_cursorRow
   2258 CE 00             11908 	adc	a,#0x00
   225A 57                11909 	ld	d,a
                          11910 ; genPointerGet
   225B 1A                11911 	ld	a,(de)
   225C 4F                11912 	ld	c,a
                          11913 ; genPlus
                          11914 ; AOP_STK for _setDataValue_sloc1_1_0
   225D F8 00             11915 	lda	hl,0(sp)
   225F 7E                11916 	ld	a,(hl)
   2260 81                11917 	add	a,c
   2261 5F                11918 	ld	e,a
   2262 23                11919 	inc	hl
   2263 7E                11920 	ld	a,(hl)
   2264 CE 00             11921 	adc	a,#0x00
   2266 57                11922 	ld	d,a
                          11923 ; genPointerGet
                          11924 ; AOP_HL for _x
   2267 1A                11925 	ld	a,(de)
   2268 21 33 01          11926 	ld	hl,#_x + 0
   226B 77                11927 	ld	(hl),a
                          11928 ;	mGBUserFunctions.c 31
                          11929 ; genIpush
   226C 3E 03             11930 	ld	a,#0x03
   226E F5                11931 	push	af
   226F 33                11932 	inc	sp
                          11933 ; genIpush
                          11934 ; AOP_HL for _x
   2270 7E                11935 	ld	a,(hl)
   2271 F5                11936 	push	af
   2272 33                11937 	inc	sp
                          11938 ; genCall
   2273 CD 00 00          11939 	call	__muluchar
   2276 4B                11940 	ld	c,e
   2277 E8 02             11941 	lda	sp,2(sp)
                          11942 ; genPlus
   2279 3E 8D             11943 	ld	a,#<_tableData
   227B 81                11944 	add	a,c
   227C 4F                11945 	ld	c,a
   227D 3E 31             11946 	ld	a,#>_tableData
   227F CE 00             11947 	adc	a,#0x00
   2281 47                11948 	ld	b,a
                          11949 ; genPlus
                          11950 ; genPlusIncr
   2282 59                11951 	ld	e,c
   2283 50                11952 	ld	d,b
   2284 13                11953 	inc	de
   2285 13                11954 	inc	de
                          11955 ; genPointerGet
                          11956 ; AOP_HL for _l
   2286 1A                11957 	ld	a,(de)
   2287 21 35 01          11958 	ld	hl,#_l + 0
   228A 77                11959 	ld	(hl),a
                          11960 ;	mGBUserFunctions.c 32
                          11961 ; genCmpEq
                          11962 ; AOP_HL for _x
   228B 21 33 01          11963 	ld	hl,#_x + 0
   228E 7E                11964 	ld	a,(hl)
   228F B7                11965 	or	a,a
                          11966 ; Rule 5
   2290 CA 46 23          11967 	jp	z,00127$
   2293                   11968 00180$:
                          11969 ; genCmpEq
                          11970 ; AOP_HL for _x
   2293 21 33 01          11971 	ld	hl,#_x + 0
   2296 7E                11972 	ld	a,(hl) ; 2
   2297 FE 06             11973 	cp	a,#0x06
                          11974 ; Rule 5
   2299 CA D7 22          11975 	jp	z,00123$
   229C                   11976 00181$:
                          11977 ; genCmpEq
                          11978 ; AOP_HL for _x
   229C 21 33 01          11979 	ld	hl,#_x + 0
   229F 7E                11980 	ld	a,(hl) ; 2
   22A0 FE 07             11981 	cp	a,#0x07
                          11982 ; Rule 5
   22A2 CA 46 23          11983 	jp	z,00127$
   22A5                   11984 00182$:
                          11985 ; genCmpEq
                          11986 ; AOP_HL for _x
   22A5 21 33 01          11987 	ld	hl,#_x + 0
   22A8 7E                11988 	ld	a,(hl) ; 2
   22A9 FE 0C             11989 	cp	a,#0x0C
                          11990 ; Rule 5
   22AB CA D7 22          11991 	jp	z,00123$
   22AE                   11992 00183$:
                          11993 ; genCmpEq
                          11994 ; AOP_HL for _x
   22AE 21 33 01          11995 	ld	hl,#_x + 0
   22B1 7E                11996 	ld	a,(hl) ; 2
   22B2 FE 0D             11997 	cp	a,#0x0D
                          11998 ; Rule 5
   22B4 CA 46 23          11999 	jp	z,00127$
   22B7                   12000 00184$:
                          12001 ; genCmpEq
                          12002 ; AOP_HL for _x
   22B7 21 33 01          12003 	ld	hl,#_x + 0
   22BA 7E                12004 	ld	a,(hl) ; 2
   22BB FE 13             12005 	cp	a,#0x13
                          12006 ; Rule 5
   22BD CA D7 22          12007 	jp	z,00123$
   22C0                   12008 00185$:
                          12009 ; genCmpEq
                          12010 ; AOP_HL for _x
   22C0 21 33 01          12011 	ld	hl,#_x + 0
   22C3 7E                12012 	ld	a,(hl) ; 2
   22C4 FE 14             12013 	cp	a,#0x14
                          12014 ; Rule 5
   22C6 CA 46 23          12015 	jp	z,00127$
   22C9                   12016 00186$:
                          12017 ; genCmpEq
                          12018 ; AOP_HL for _x
   22C9 21 33 01          12019 	ld	hl,#_x + 0
   22CC 7E                12020 	ld	a,(hl) ; 2
   22CD FE 17             12021 	cp	a,#0x17
   22CF C2 D4 22          12022 	jp	nz,00187$
   22D2 18 03             12023 	jr	00188$
   22D4                   12024 00187$:
   22D4 C3 4A 23          12025 	jp	00141$
   22D7                   12026 00188$:
                          12027 ;	mGBUserFunctions.c 46
                          12028 ; genLabel
   22D7                   12029 00123$:
                          12030 ;	mGBUserFunctions.c 37
                          12031 ; genAnd
                          12032 ; AOP_HL for _i
   22D7 21 32 01          12033 	ld	hl,#_i + 0
   22DA 7E                12034 	ld	a,(hl)
   22DB CB 5F             12035 	bit	3,a
   22DD CA F3 22          12036 	jp	z,00121$
                          12037 ;	mGBUserFunctions.c 38
                          12038 ; genAssign
                          12039 ; AOP_HL for _x
   22E0 21 33 01          12040 	ld	hl,#_x + 0
   22E3 4E                12041 	ld	c,(hl)
                          12042 ; genPlus
   22E4 3E CF             12043 	ld	a,#<_dataSet
   22E6 81                12044 	add	a,c
   22E7 5F                12045 	ld	e,a
   22E8 3E 01             12046 	ld	a,#>_dataSet
   22EA CE 00             12047 	adc	a,#0x00
   22EC 57                12048 	ld	d,a
                          12049 ; genAssign (pointer)
   22ED 3E 00             12050 	ld	a,#0x00
   22EF 12                12051 	ld	(de),a
                          12052 ; genGoto
   22F0 C3 12 24          12053 	jp	00142$
                          12054 ; genLabel
   22F3                   12055 00121$:
                          12056 ;	mGBUserFunctions.c 39
                          12057 ; genIfx
                          12058 ; AOP_STK for _setDataValue_sloc0_1_0
   22F3 AF                12059 	xor	a,a
   22F4 F8 02             12060 	lda	hl,2(sp)
   22F6 B6                12061 	or	a,(hl)
   22F7 B7                12062 	or	a,a
   22F8 CA 0E 23          12063 	jp	z,00118$
                          12064 ;	mGBUserFunctions.c 40
                          12065 ; genAssign
                          12066 ; AOP_HL for _x
   22FB 21 33 01          12067 	ld	hl,#_x + 0
   22FE 4E                12068 	ld	c,(hl)
                          12069 ; genPlus
   22FF 3E CF             12070 	ld	a,#<_dataSet
   2301 81                12071 	add	a,c
   2302 5F                12072 	ld	e,a
   2303 3E 01             12073 	ld	a,#>_dataSet
   2305 CE 00             12074 	adc	a,#0x00
   2307 57                12075 	ld	d,a
                          12076 ; genAssign (pointer)
   2308 3E 03             12077 	ld	a,#0x03
   230A 12                12078 	ld	(de),a
                          12079 ; genGoto
   230B C3 12 24          12080 	jp	00142$
                          12081 ; genLabel
   230E                   12082 00118$:
                          12083 ;	mGBUserFunctions.c 41
                          12084 ; genAnd
                          12085 ; AOP_HL for _i
   230E 21 32 01          12086 	ld	hl,#_i + 0
   2311 7E                12087 	ld	a,(hl)
   2312 CB 4F             12088 	bit	1,a
   2314 CA 2A 23          12089 	jp	z,00115$
                          12090 ;	mGBUserFunctions.c 42
                          12091 ; genAssign
                          12092 ; AOP_HL for _x
   2317 21 33 01          12093 	ld	hl,#_x + 0
   231A 4E                12094 	ld	c,(hl)
                          12095 ; genPlus
   231B 3E CF             12096 	ld	a,#<_dataSet
   231D 81                12097 	add	a,c
   231E 5F                12098 	ld	e,a
   231F 3E 01             12099 	ld	a,#>_dataSet
   2321 CE 00             12100 	adc	a,#0x00
   2323 57                12101 	ld	d,a
                          12102 ; genAssign (pointer)
   2324 3E 02             12103 	ld	a,#0x02
   2326 12                12104 	ld	(de),a
                          12105 ; genGoto
   2327 C3 12 24          12106 	jp	00142$
                          12107 ; genLabel
   232A                   12108 00115$:
                          12109 ;	mGBUserFunctions.c 43
                          12110 ; genAnd
                          12111 ; AOP_HL for _i
   232A 21 32 01          12112 	ld	hl,#_i + 0
   232D 7E                12113 	ld	a,(hl)
   232E CB 47             12114 	bit	0,a
   2330 CA 12 24          12115 	jp	z,00142$
                          12116 ;	mGBUserFunctions.c 44
                          12117 ; genAssign
                          12118 ; AOP_HL for _x
   2333 21 33 01          12119 	ld	hl,#_x + 0
   2336 4E                12120 	ld	c,(hl)
                          12121 ; genPlus
   2337 3E CF             12122 	ld	a,#<_dataSet
   2339 81                12123 	add	a,c
   233A 5F                12124 	ld	e,a
   233B 3E 01             12125 	ld	a,#>_dataSet
   233D CE 00             12126 	adc	a,#0x00
   233F 57                12127 	ld	d,a
                          12128 ; genAssign (pointer)
   2340 3E 01             12129 	ld	a,#0x01
   2342 12                12130 	ld	(de),a
                          12131 ;	mGBUserFunctions.c 46
                          12132 ; genGoto
   2343 C3 12 24          12133 	jp	00142$
                          12134 ;	mGBUserFunctions.c 51
                          12135 ; genLabel
   2346                   12136 00127$:
                          12137 ; genAssign
                          12138 ; AOP_STK for _setDataValue_inc_1_1
   2346 F8 03             12139 	lda	hl,3(sp)
   2348 36 01             12140 	ld	(hl),#0x01 ; 3
                          12141 ;	mGBUserFunctions.c 63
                          12142 ; genLabel
   234A                   12143 00141$:
                          12144 ;	mGBUserFunctions.c 53
                          12145 ; genIfx
                          12146 ; AOP_STK for _setDataValue_up_1_1
   234A AF                12147 	xor	a,a
   234B F8 04             12148 	lda	hl,4(sp)
   234D B6                12149 	or	a,(hl)
   234E B7                12150 	or	a,a
   234F CA AC 23          12151 	jp	z,00139$
                          12152 ;	mGBUserFunctions.c 54
                          12153 ; genAssign
                          12154 ; AOP_HL for _x
   2352 21 33 01          12155 	ld	hl,#_x + 0
   2355 4E                12156 	ld	c,(hl)
                          12157 ; genPlus
                          12158 ; AOP_STK for _setDataValue_sloc1_1_0
   2356 3E CF             12159 	ld	a,#<_dataSet
   2358 81                12160 	add	a,c
   2359 F8 00             12161 	lda	hl,0(sp)
   235B 77                12162 	ld	(hl),a ; 3
   235C 3E 01             12163 	ld	a,#>_dataSet
   235E CE 00             12164 	adc	a,#0x00
   2360 23                12165 	inc	hl
   2361 77                12166 	ld	(hl),a ; 3
                          12167 ; genAssign
                          12168 ; AOP_HL for _x
   2362 21 33 01          12169 	ld	hl,#_x + 0
   2365 4E                12170 	ld	c,(hl)
                          12171 ; genPlus
   2366 3E CF             12172 	ld	a,#<_dataSet
   2368 81                12173 	add	a,c
   2369 5F                12174 	ld	e,a
   236A 3E 01             12175 	ld	a,#>_dataSet
   236C CE 00             12176 	adc	a,#0x00
   236E 57                12177 	ld	d,a
                          12178 ; genPointerGet
   236F 1A                12179 	ld	a,(de)
                          12180 ; genPlus
                          12181 ; AOP_STK for _setDataValue_inc_1_1
   2370 F8 03             12182 	lda	hl,3(sp)
   2372 86                12183 	add	a,(hl)
   2373 4F                12184 	ld	c,a
                          12185 ; genAssign (pointer)
                          12186 ; AOP_STK for _setDataValue_sloc1_1_0
   2374 F8 00             12187 	lda	hl,0(sp)
   2376 5E                12188 	ld	e,(hl)
   2377 23                12189 	inc	hl
   2378 56                12190 	ld	d,(hl)
   2379 79                12191 	ld	a,c
   237A 12                12192 	ld	(de),a
                          12193 ;	mGBUserFunctions.c 55
                          12194 ; genAssign
                          12195 ; AOP_HL for _x
   237B 21 33 01          12196 	ld	hl,#_x + 0
   237E 4E                12197 	ld	c,(hl)
                          12198 ; genPlus
   237F 3E CF             12199 	ld	a,#<_dataSet
   2381 81                12200 	add	a,c
   2382 5F                12201 	ld	e,a
   2383 3E 01             12202 	ld	a,#>_dataSet
   2385 CE 00             12203 	adc	a,#0x00
   2387 57                12204 	ld	d,a
                          12205 ; genPointerGet
   2388 1A                12206 	ld	a,(de)
   2389 4F                12207 	ld	c,a
                          12208 ; genCmpLt
                          12209 ; AOP_HL for _l
   238A AF                12210 	xor	a,a
   238B 79                12211 	ld	a,c
   238C 21 35 01          12212 	ld	hl,#_l + 0
   238F 9E                12213 	sbc	a,(hl) ; 2
   2390 DA 12 24          12214 	jp	c,00142$
                          12215 ; genAssign
                          12216 ; AOP_HL for _x
   2393 21 33 01          12217 	ld	hl,#_x + 0
   2396 4E                12218 	ld	c,(hl)
                          12219 ; genPlus
   2397 3E CF             12220 	ld	a,#<_dataSet
   2399 81                12221 	add	a,c
   239A 5F                12222 	ld	e,a
   239B 3E 01             12223 	ld	a,#>_dataSet
   239D CE 00             12224 	adc	a,#0x00
   239F 57                12225 	ld	d,a
                          12226 ; genMinus
                          12227 ; AOP_HL for _l
   23A0 21 35 01          12228 	ld	hl,#_l + 0
   23A3 7E                12229 	ld	a,(hl)
   23A4 C6 FF             12230 	add	a,#0xFF
   23A6 4F                12231 	ld	c,a
                          12232 ; genAssign (pointer)
   23A7 79                12233 	ld	a,c
   23A8 12                12234 	ld	(de),a
                          12235 ; genGoto
   23A9 C3 12 24          12236 	jp	00142$
                          12237 ; genLabel
   23AC                   12238 00139$:
                          12239 ;	mGBUserFunctions.c 56
                          12240 ; genAssign
                          12241 ; AOP_HL for _x
   23AC 21 33 01          12242 	ld	hl,#_x + 0
   23AF 4E                12243 	ld	c,(hl)
                          12244 ; genPlus
   23B0 3E CF             12245 	ld	a,#<_dataSet
   23B2 81                12246 	add	a,c
   23B3 5F                12247 	ld	e,a
   23B4 3E 01             12248 	ld	a,#>_dataSet
   23B6 CE 00             12249 	adc	a,#0x00
   23B8 57                12250 	ld	d,a
                          12251 ; genPointerGet
   23B9 1A                12252 	ld	a,(de)
   23BA 4F                12253 	ld	c,a
                          12254 ; genIfx
                          12255 ; Removed redundent or a,a
   23BB AF                12256 	xor	a,a
   23BC B1                12257 	or	a,c
   23BD CA 12 24          12258 	jp	z,00142$
                          12259 ;	mGBUserFunctions.c 57
                          12260 ; genAssign
                          12261 ; AOP_HL for _x
   23C0 4E                12262 	ld	c,(hl)
                          12263 ; genPlus
   23C1 3E CF             12264 	ld	a,#<_dataSet
   23C3 81                12265 	add	a,c
   23C4 5F                12266 	ld	e,a
   23C5 3E 01             12267 	ld	a,#>_dataSet
   23C7 CE 00             12268 	adc	a,#0x00
   23C9 57                12269 	ld	d,a
                          12270 ; genPointerGet
   23CA 1A                12271 	ld	a,(de)
   23CB 4F                12272 	ld	c,a
                          12273 ; genCmpGt
                          12274 ; AOP_STK for _setDataValue_inc_1_1
   23CC AF                12275 	xor	a,a
   23CD F8 03             12276 	lda	hl,3(sp)
   23CF 7E                12277 	ld	a,(hl)
   23D0 99                12278 	sbc	a,c ; 2
   23D1 D2 02 24          12279 	jp	nc,00134$
                          12280 ;	mGBUserFunctions.c 58
                          12281 ; genAssign
                          12282 ; AOP_HL for _x
   23D4 21 33 01          12283 	ld	hl,#_x + 0
   23D7 4E                12284 	ld	c,(hl)
                          12285 ; genPlus
                          12286 ; AOP_STK for _setDataValue_sloc1_1_0
   23D8 3E CF             12287 	ld	a,#<_dataSet
   23DA 81                12288 	add	a,c
   23DB F8 00             12289 	lda	hl,0(sp)
   23DD 77                12290 	ld	(hl),a ; 3
   23DE 3E 01             12291 	ld	a,#>_dataSet
   23E0 CE 00             12292 	adc	a,#0x00
   23E2 23                12293 	inc	hl
   23E3 77                12294 	ld	(hl),a ; 3
                          12295 ; genAssign
                          12296 ; AOP_HL for _x
   23E4 21 33 01          12297 	ld	hl,#_x + 0
   23E7 4E                12298 	ld	c,(hl)
                          12299 ; genPlus
   23E8 3E CF             12300 	ld	a,#<_dataSet
   23EA 81                12301 	add	a,c
   23EB 5F                12302 	ld	e,a
   23EC 3E 01             12303 	ld	a,#>_dataSet
   23EE CE 00             12304 	adc	a,#0x00
   23F0 57                12305 	ld	d,a
                          12306 ; genPointerGet
   23F1 1A                12307 	ld	a,(de)
   23F2 4F                12308 	ld	c,a
                          12309 ; genMinus
                          12310 ; AOP_STK for _setDataValue_inc_1_1
   23F3 79                12311 	ld	a,c
   23F4 F8 03             12312 	lda	hl,3(sp)
   23F6 96                12313 	sub	a,(hl)
   23F7 4F                12314 	ld	c,a
                          12315 ; genAssign (pointer)
                          12316 ; AOP_STK for _setDataValue_sloc1_1_0
   23F8 F8 00             12317 	lda	hl,0(sp)
   23FA 5E                12318 	ld	e,(hl)
   23FB 23                12319 	inc	hl
   23FC 56                12320 	ld	d,(hl)
   23FD 79                12321 	ld	a,c
   23FE 12                12322 	ld	(de),a
                          12323 ; genGoto
   23FF C3 12 24          12324 	jp	00142$
                          12325 ; genLabel
   2402                   12326 00134$:
                          12327 ;	mGBUserFunctions.c 60
                          12328 ; genAssign
                          12329 ; AOP_HL for _x
   2402 21 33 01          12330 	ld	hl,#_x + 0
   2405 4E                12331 	ld	c,(hl)
                          12332 ; genPlus
   2406 3E CF             12333 	ld	a,#<_dataSet
   2408 81                12334 	add	a,c
   2409 5F                12335 	ld	e,a
   240A 3E 01             12336 	ld	a,#>_dataSet
   240C CE 00             12337 	adc	a,#0x00
   240E 57                12338 	ld	d,a
                          12339 ; genAssign (pointer)
   240F 3E 00             12340 	ld	a,#0x00
   2411 12                12341 	ld	(de),a
                          12342 ;	mGBUserFunctions.c 63
                          12343 ; genLabel
   2412                   12344 00142$:
                          12345 ;	mGBUserFunctions.c 64
                          12346 ; genAssign
                          12347 ; AOP_HL for _x
   2412 21 33 01          12348 	ld	hl,#_x + 0
   2415 4E                12349 	ld	c,(hl)
                          12350 ; genPlus
   2416 3E EC             12351 	ld	a,#<_parameterLock
   2418 81                12352 	add	a,c
   2419 5F                12353 	ld	e,a
   241A 3E 01             12354 	ld	a,#>_parameterLock
   241C CE 00             12355 	adc	a,#0x00
   241E 57                12356 	ld	d,a
                          12357 ; genAssign (pointer)
   241F 3E 01             12358 	ld	a,#0x01
   2421 12                12359 	ld	(de),a
                          12360 ;	mGBUserFunctions.c 65
                          12361 ; genIpush
                          12362 ; AOP_HL for _x
   2422 7E                12363 	ld	a,(hl)
   2423 F5                12364 	push	af
   2424 33                12365 	inc	sp
                          12366 ; genCall
   2425 CD 71 07          12367 	call	_updateValueSynth
   2428 E8 01             12368 	lda	sp,1(sp)
                          12369 ; genLabel
   242A                   12370 00150$:
                          12371 ;	mGBUserFunctions.c 28
                          12372 ; genPlus
                          12373 ; AOP_HL for _j
                          12374 ; genPlusIncr
   242A 21 34 01          12375 	ld	hl,#_j + 0
   242D 34                12376 	inc	(hl)
                          12377 ; genGoto
   242E C3 F7 21          12378 	jp	00148$
                          12379 ; genLabel
   2431                   12380 00152$:
                          12381 ; genEndFunction
   2431 E8 05             12382 	lda	sp,5(sp)
   2433 C1                12383 	pop bc
   2434 C9                12384 	ret
   2435                   12385 ___setDataValue_end:
                          12386 ;	mGBUserFunctions.c 72
                          12387 ; genLabel
                          12388 ; genFunction
                          12389 ;	---------------------------------
                          12390 ; Function getPad
                          12391 ; ---------------------------------
   2435                   12392 ___getPad_start:
   2435                   12393 _getPad:
   2435 C5                12394 	push	bc
   2436 E8 FB             12395 	lda sp,-5(sp)
                          12396 ;	mGBUserFunctions.c 74
                          12397 ; genCall
   2438 CD 00 00          12398 	call	_joypad
                          12399 ; AOP_HL for _i
   243B 21 32 01          12400 	ld	hl,#_i + 0
   243E 73                12401 	ld	(hl),e
                          12402 ;	mGBUserFunctions.c 75
                          12403 ; genCmpEq
                          12404 ; AOP_HL for _i
                          12405 ; AOP_HL for _lastPadRead
   243F 21 36 01          12406 	ld	hl,#_lastPadRead + 0
   2442 7E                12407 	ld	a,(hl)
   2443 21 32 01          12408 	ld	hl,#_i + 0
   2446 BE                12409 	cp	(hl) ; 5
   2447 20 03             12410 	jr	nz,00201$
   2449 C3 C6 26          12411 	jp	00168$
   244C                   12412 00201$:
                          12413 ;	mGBUserFunctions.c 76
                          12414 ; genAssign
                          12415 ; AOP_HL for _i
                          12416 ; AOP_HL for _lastPadRead
   244C 21 32 01          12417 	ld	hl,#_i + 0
   244F 7E                12418 	ld	a,(hl)
   2450 21 36 01          12419 	ld	hl,#_lastPadRead + 0
   2453 77                12420 	ld	(hl),a
                          12421 ;	mGBUserFunctions.c 77
                          12422 ; genIfx
                          12423 ; AOP_HL for _i
   2454 AF                12424 	xor	a,a
   2455 21 32 01          12425 	ld	hl,#_i + 0
   2458 B6                12426 	or	a,(hl)
   2459 B7                12427 	or	a,a
   245A CA 8D 26          12428 	jp	z,00160$
                          12429 ;	mGBUserFunctions.c 78
                          12430 ; genAnd
                          12431 ; AOP_HL for _i
   245D 7E                12432 	ld	a,(hl)
   245E CB 67             12433 	bit	4,a
   2460 CA 85 24          12434 	jp	z,00107$
                          12435 ; genPointerGet
   2463 11 37 01          12436 	ld	de,#_joyState + 0
   2466 1A                12437 	ld	a,(de)
   2467 4F                12438 	ld	c,a
                          12439 ; genIfx
                          12440 ; Removed redundent or a,a
   2468 AF                12441 	xor	a,a
   2469 B1                12442 	or	a,c
   246A C2 85 24          12443 	jp	nz,00107$
                          12444 ;	mGBUserFunctions.c 79
                          12445 ; genAssign (pointer)
   246D 11 37 01          12446 	ld	de,#_joyState + 0
   2470 3E 01             12447 	ld	a,#0x01
   2472 12                12448 	ld	(de),a
                          12449 ;	mGBUserFunctions.c 80
                          12450 ; genAnd
                          12451 ; AOP_HL for _i
   2473 7E                12452 	ld	a,(hl)
   2474 CB 77             12453 	bit	6,a
   2476 CA 7F 24          12454 	jp	z,00102$
                          12455 ;	mGBUserFunctions.c 81
                          12456 ; genCall
   2479 CD 9E 18          12457 	call	_toggleScreen
                          12458 ; genGoto
   247C C3 82 24          12459 	jp	00103$
                          12460 ; genLabel
   247F                   12461 00102$:
                          12462 ;	mGBUserFunctions.c 83
                          12463 ; genCall
   247F CD 83 21          12464 	call	_setDataValue
                          12465 ; genLabel
   2482                   12466 00103$:
                          12467 ;	mGBUserFunctions.c 85
                          12468 ; genRet
   2482 C3 C6 26          12469 	jp	00168$
                          12470 ; genLabel
   2485                   12471 00107$:
                          12472 ;	mGBUserFunctions.c 86
                          12473 ; genPointerGet
   2485 11 37 01          12474 	ld	de,#_joyState + 0
   2488 1A                12475 	ld	a,(de)
   2489 4F                12476 	ld	c,a
                          12477 ; genIfx
                          12478 ; Removed redundent or a,a
   248A AF                12479 	xor	a,a
   248B B1                12480 	or	a,c
   248C CA 9B 24          12481 	jp	z,00108$
                          12482 ;	mGBUserFunctions.c 87
                          12483 ; genAssign (pointer)
   248F 11 37 01          12484 	ld	de,#_joyState + 0
   2492 3E 00             12485 	ld	a,#0x00
   2494 12                12486 	ld	(de),a
                          12487 ;	mGBUserFunctions.c 88
                          12488 ; genCall
   2495 CD 83 21          12489 	call	_setDataValue
                          12490 ;	mGBUserFunctions.c 89
                          12491 ; genRet
   2498 C3 C6 26          12492 	jp	00168$
                          12493 ; genLabel
   249B                   12494 00108$:
                          12495 ;	mGBUserFunctions.c 91
                          12496 ; genAnd
                          12497 ; AOP_HL for _i
   249B 21 32 01          12498 	ld	hl,#_i + 0
   249E 7E                12499 	ld	a,(hl)
   249F CB 6F             12500 	bit	5,a
   24A1 CA CF 24          12501 	jp	z,00116$
                          12502 ; genPlus
                          12503 ; genPlusIncr
   24A4 01 38 01          12504 	ld	bc,#_joyState + 1
                          12505 ; genPointerGet
                          12506 ; AOP_STK for _getPad_sloc0_1_0
   24A7 0A                12507 	ld	a,(bc)
   24A8 F8 04             12508 	lda	hl,4(sp)
   24AA 77                12509 	ld	(hl),a ; 3
                          12510 ; genIfx
                          12511 ; AOP_STK for _getPad_sloc0_1_0
                          12512 ; Removed redundent or a,a
   24AB AF                12513 	xor	a,a
   24AC B6                12514 	or	a,(hl)
   24AD C2 CF 24          12515 	jp	nz,00116$
                          12516 ;	mGBUserFunctions.c 92
                          12517 ; genAssign (pointer)
   24B0 3E 01             12518 	ld	a,#0x01
   24B2 02                12519 	ld	(bc),a
                          12520 ;	mGBUserFunctions.c 93
                          12521 ; genAnd
                          12522 ; AOP_HL for _i
   24B3 21 32 01          12523 	ld	hl,#_i + 0
   24B6 7E                12524 	ld	a,(hl)
   24B7 CB 77             12525 	bit	6,a
   24B9 CA C4 24          12526 	jp	z,00111$
                          12527 ;	mGBUserFunctions.c 94
                          12528 ; genAssign
                          12529 ; AOP_HL for _recallMode
   24BC 21 6D 01          12530 	ld	hl,#_recallMode + 0
   24BF 36 00             12531 	ld	(hl),#0x00
                          12532 ; genGoto
   24C1 C3 C9 24          12533 	jp	00112$
                          12534 ; genLabel
   24C4                   12535 00111$:
                          12536 ;	mGBUserFunctions.c 96
                          12537 ; genAssign
                          12538 ; AOP_HL for _recallMode
   24C4 21 6D 01          12539 	ld	hl,#_recallMode + 0
   24C7 36 01             12540 	ld	(hl),#0x01
                          12541 ; genLabel
   24C9                   12542 00112$:
                          12543 ;	mGBUserFunctions.c 98
                          12544 ; genCall
   24C9 CD E2 1D          12545 	call	_snapRecall
                          12546 ;	mGBUserFunctions.c 99
                          12547 ; genRet
   24CC C3 C6 26          12548 	jp	00168$
                          12549 ; genLabel
   24CF                   12550 00116$:
                          12551 ;	mGBUserFunctions.c 100
                          12552 ; genPlus
                          12553 ; genPlusIncr
   24CF 01 38 01          12554 	ld	bc,#_joyState + 1
                          12555 ; genPointerGet
                          12556 ; AOP_STK for _getPad_sloc0_1_0
   24D2 0A                12557 	ld	a,(bc)
   24D3 F8 04             12558 	lda	hl,4(sp)
   24D5 77                12559 	ld	(hl),a ; 3
                          12560 ; genIfx
                          12561 ; AOP_STK for _getPad_sloc0_1_0
                          12562 ; Removed redundent or a,a
   24D6 AF                12563 	xor	a,a
   24D7 B6                12564 	or	a,(hl)
   24D8 CA E1 24          12565 	jp	z,00117$
                          12566 ;	mGBUserFunctions.c 101
                          12567 ; genAssign (pointer)
   24DB 3E 00             12568 	ld	a,#0x00
   24DD 02                12569 	ld	(bc),a
                          12570 ;	mGBUserFunctions.c 102
                          12571 ; genRet
   24DE C3 C6 26          12572 	jp	00168$
                          12573 ; genLabel
   24E1                   12574 00117$:
                          12575 ;	mGBUserFunctions.c 104
                          12576 ; genAnd
                          12577 ; AOP_HL for _i
   24E1 21 32 01          12578 	ld	hl,#_i + 0
   24E4 7E                12579 	ld	a,(hl)
   24E5 CB 57             12580 	bit	2,a
   24E7 CA 21 25          12581 	jp	z,00122$
                          12582 ; genPlus
                          12583 ; genPlusIncr
   24EA 01 39 01          12584 	ld	bc,#_joyState + 2
                          12585 ; genPointerGet
                          12586 ; AOP_STK for _getPad_sloc0_1_0
   24ED 0A                12587 	ld	a,(bc)
   24EE F8 04             12588 	lda	hl,4(sp)
   24F0 77                12589 	ld	(hl),a ; 3
                          12590 ; genIfx
                          12591 ; AOP_STK for _getPad_sloc0_1_0
                          12592 ; Removed redundent or a,a
   24F1 AF                12593 	xor	a,a
   24F2 B6                12594 	or	a,(hl)
   24F3 C2 21 25          12595 	jp	nz,00122$
                          12596 ;	mGBUserFunctions.c 105
                          12597 ; genAssign (pointer)
   24F6 3E 01             12598 	ld	a,#0x01
   24F8 02                12599 	ld	(bc),a
                          12600 ;	mGBUserFunctions.c 106
                          12601 ; genAssign
                          12602 ; AOP_HL for _cursorColumn
   24F9 21 72 01          12603 	ld	hl,#_cursorColumn + 0
   24FC 4E                12604 	ld	c,(hl)
                          12605 ; genPlus
                          12606 ; AOP_STK for _getPad_sloc1_1_0
   24FD 3E 73             12607 	ld	a,#<_cursorRow
   24FF 81                12608 	add	a,c
   2500 F8 02             12609 	lda	hl,2(sp)
   2502 77                12610 	ld	(hl),a ; 3
   2503 3E 01             12611 	ld	a,#>_cursorRow
   2505 CE 00             12612 	adc	a,#0x00
   2507 23                12613 	inc	hl
   2508 77                12614 	ld	(hl),a ; 3
                          12615 ; genPointerGet
                          12616 ; AOP_STK for _getPad_sloc1_1_0
                          12617 ; AOP_STK for _getPad_sloc0_1_0
   2509 2B                12618 	dec	hl
   250A 5E                12619 	ld	e,(hl)
   250B 23                12620 	inc	hl
   250C 56                12621 	ld	d,(hl)
   250D 1A                12622 	ld	a,(de)
   250E 23                12623 	inc	hl
   250F 77                12624 	ld	(hl),a ; 3
                          12625 ; genMinus
                          12626 ; AOP_STK for _getPad_sloc0_1_0
   2510 7E                12627 	ld	a,(hl)
   2511 C6 FF             12628 	add	a,#0xFF
   2513 4F                12629 	ld	c,a
                          12630 ; genAssign (pointer)
                          12631 ; AOP_STK for _getPad_sloc1_1_0
   2514 2B                12632 	dec	hl
   2515 2B                12633 	dec	hl
   2516 5E                12634 	ld	e,(hl)
   2517 23                12635 	inc	hl
   2518 56                12636 	ld	d,(hl)
   2519 79                12637 	ld	a,c
   251A 12                12638 	ld	(de),a
                          12639 ;	mGBUserFunctions.c 107
                          12640 ; genCall
   251B CD 71 13          12641 	call	_setCursor
                          12642 ;	mGBUserFunctions.c 108
                          12643 ; genRet
   251E C3 C6 26          12644 	jp	00168$
                          12645 ; genLabel
   2521                   12646 00122$:
                          12647 ;	mGBUserFunctions.c 109
                          12648 ; genPlus
                          12649 ; genPlusIncr
   2521 01 39 01          12650 	ld	bc,#_joyState + 2
                          12651 ; genPointerGet
                          12652 ; AOP_STK for _getPad_sloc1_1_0
   2524 0A                12653 	ld	a,(bc)
   2525 F8 02             12654 	lda	hl,2(sp)
   2527 77                12655 	ld	(hl),a ; 3
                          12656 ; genIfx
                          12657 ; AOP_STK for _getPad_sloc1_1_0
                          12658 ; Removed redundent or a,a
   2528 AF                12659 	xor	a,a
   2529 B6                12660 	or	a,(hl)
   252A CA 33 25          12661 	jp	z,00123$
                          12662 ;	mGBUserFunctions.c 110
                          12663 ; genAssign (pointer)
   252D 3E 00             12664 	ld	a,#0x00
   252F 02                12665 	ld	(bc),a
                          12666 ;	mGBUserFunctions.c 111
                          12667 ; genRet
   2530 C3 C6 26          12668 	jp	00168$
                          12669 ; genLabel
   2533                   12670 00123$:
                          12671 ;	mGBUserFunctions.c 113
                          12672 ; genAnd
                          12673 ; AOP_HL for _i
   2533 21 32 01          12674 	ld	hl,#_i + 0
   2536 7E                12675 	ld	a,(hl)
   2537 CB 47             12676 	bit	0,a
   2539 CA 55 25          12677 	jp	z,00128$
                          12678 ; genPlus
                          12679 ; genPlusIncr
   253C 01 3C 01          12680 	ld	bc,#_joyState + 5
                          12681 ; genPointerGet
                          12682 ; AOP_STK for _getPad_sloc1_1_0
   253F 0A                12683 	ld	a,(bc)
   2540 F8 02             12684 	lda	hl,2(sp)
   2542 77                12685 	ld	(hl),a ; 3
                          12686 ; genIfx
                          12687 ; AOP_STK for _getPad_sloc1_1_0
                          12688 ; Removed redundent or a,a
   2543 AF                12689 	xor	a,a
   2544 B6                12690 	or	a,(hl)
   2545 C2 55 25          12691 	jp	nz,00128$
                          12692 ;	mGBUserFunctions.c 114
                          12693 ; genAssign (pointer)
   2548 3E 01             12694 	ld	a,#0x01
   254A 02                12695 	ld	(bc),a
                          12696 ;	mGBUserFunctions.c 115
                          12697 ; genPlus
                          12698 ; AOP_HL for _cursorColumn
                          12699 ; genPlusIncr
   254B 21 72 01          12700 	ld	hl,#_cursorColumn + 0
   254E 34                12701 	inc	(hl)
                          12702 ;	mGBUserFunctions.c 116
                          12703 ; genCall
   254F CD 71 13          12704 	call	_setCursor
                          12705 ;	mGBUserFunctions.c 117
                          12706 ; genRet
   2552 C3 C6 26          12707 	jp	00168$
                          12708 ; genLabel
   2555                   12709 00128$:
                          12710 ;	mGBUserFunctions.c 118
                          12711 ; genPlus
                          12712 ; genPlusIncr
   2555 01 3C 01          12713 	ld	bc,#_joyState + 5
                          12714 ; genPointerGet
                          12715 ; AOP_STK for _getPad_sloc1_1_0
   2558 0A                12716 	ld	a,(bc)
   2559 F8 02             12717 	lda	hl,2(sp)
   255B 77                12718 	ld	(hl),a ; 3
                          12719 ; genIfx
                          12720 ; AOP_STK for _getPad_sloc1_1_0
                          12721 ; Removed redundent or a,a
   255C AF                12722 	xor	a,a
   255D B6                12723 	or	a,(hl)
   255E CA 67 25          12724 	jp	z,00129$
                          12725 ;	mGBUserFunctions.c 119
                          12726 ; genAssign (pointer)
   2561 3E 00             12727 	ld	a,#0x00
   2563 02                12728 	ld	(bc),a
                          12729 ;	mGBUserFunctions.c 120
                          12730 ; genRet
   2564 C3 C6 26          12731 	jp	00168$
                          12732 ; genLabel
   2567                   12733 00129$:
                          12734 ;	mGBUserFunctions.c 122
                          12735 ; genAnd
                          12736 ; AOP_HL for _i
   2567 21 32 01          12737 	ld	hl,#_i + 0
   256A 7E                12738 	ld	a,(hl)
   256B CB 5F             12739 	bit	3,a
   256D CA A7 25          12740 	jp	z,00134$
                          12741 ; genPlus
                          12742 ; genPlusIncr
   2570 01 3A 01          12743 	ld	bc,#_joyState + 3
                          12744 ; genPointerGet
                          12745 ; AOP_STK for _getPad_sloc1_1_0
   2573 0A                12746 	ld	a,(bc)
   2574 F8 02             12747 	lda	hl,2(sp)
   2576 77                12748 	ld	(hl),a ; 3
                          12749 ; genIfx
                          12750 ; AOP_STK for _getPad_sloc1_1_0
                          12751 ; Removed redundent or a,a
   2577 AF                12752 	xor	a,a
   2578 B6                12753 	or	a,(hl)
   2579 C2 A7 25          12754 	jp	nz,00134$
                          12755 ;	mGBUserFunctions.c 123
                          12756 ; genAssign (pointer)
   257C 3E 01             12757 	ld	a,#0x01
   257E 02                12758 	ld	(bc),a
                          12759 ;	mGBUserFunctions.c 124
                          12760 ; genAssign
                          12761 ; AOP_HL for _cursorColumn
   257F 21 72 01          12762 	ld	hl,#_cursorColumn + 0
   2582 4E                12763 	ld	c,(hl)
                          12764 ; genPlus
                          12765 ; AOP_STK for _getPad_sloc2_1_0
   2583 3E 73             12766 	ld	a,#<_cursorRow
   2585 81                12767 	add	a,c
   2586 F8 00             12768 	lda	hl,0(sp)
   2588 77                12769 	ld	(hl),a ; 3
   2589 3E 01             12770 	ld	a,#>_cursorRow
   258B CE 00             12771 	adc	a,#0x00
   258D 23                12772 	inc	hl
   258E 77                12773 	ld	(hl),a ; 3
                          12774 ; genPointerGet
                          12775 ; AOP_STK for _getPad_sloc2_1_0
                          12776 ; AOP_STK for _getPad_sloc1_1_0
   258F 2B                12777 	dec	hl
   2590 5E                12778 	ld	e,(hl)
   2591 23                12779 	inc	hl
   2592 56                12780 	ld	d,(hl)
   2593 1A                12781 	ld	a,(de)
   2594 23                12782 	inc	hl
   2595 77                12783 	ld	(hl),a ; 3
                          12784 ; genPlus
                          12785 ; AOP_STK for _getPad_sloc1_1_0
                          12786 ; genPlusIncr
   2596 7E                12787 	ld	a,(hl)
   2597 C6 01             12788 	add	a,#0x01
   2599 4F                12789 	ld	c,a
                          12790 ; genAssign (pointer)
                          12791 ; AOP_STK for _getPad_sloc2_1_0
   259A 2B                12792 	dec	hl
   259B 2B                12793 	dec	hl
   259C 5E                12794 	ld	e,(hl)
   259D 23                12795 	inc	hl
   259E 56                12796 	ld	d,(hl)
   259F 79                12797 	ld	a,c
   25A0 12                12798 	ld	(de),a
                          12799 ;	mGBUserFunctions.c 125
                          12800 ; genCall
   25A1 CD 71 13          12801 	call	_setCursor
                          12802 ;	mGBUserFunctions.c 126
                          12803 ; genRet
   25A4 C3 C6 26          12804 	jp	00168$
                          12805 ; genLabel
   25A7                   12806 00134$:
                          12807 ;	mGBUserFunctions.c 127
                          12808 ; genPlus
                          12809 ; genPlusIncr
   25A7 01 3A 01          12810 	ld	bc,#_joyState + 3
                          12811 ; genPointerGet
                          12812 ; AOP_STK for _getPad_sloc2_1_0
   25AA 0A                12813 	ld	a,(bc)
   25AB F8 00             12814 	lda	hl,0(sp)
   25AD 77                12815 	ld	(hl),a ; 3
                          12816 ; genIfx
                          12817 ; AOP_STK for _getPad_sloc2_1_0
                          12818 ; Removed redundent or a,a
   25AE AF                12819 	xor	a,a
   25AF B6                12820 	or	a,(hl)
   25B0 CA B9 25          12821 	jp	z,00135$
                          12822 ;	mGBUserFunctions.c 128
                          12823 ; genAssign (pointer)
   25B3 3E 00             12824 	ld	a,#0x00
   25B5 02                12825 	ld	(bc),a
                          12826 ;	mGBUserFunctions.c 129
                          12827 ; genRet
   25B6 C3 C6 26          12828 	jp	00168$
                          12829 ; genLabel
   25B9                   12830 00135$:
                          12831 ;	mGBUserFunctions.c 131
                          12832 ; genAnd
                          12833 ; AOP_HL for _i
   25B9 21 32 01          12834 	ld	hl,#_i + 0
   25BC 7E                12835 	ld	a,(hl)
   25BD CB 4F             12836 	bit	1,a
   25BF CA DB 25          12837 	jp	z,00140$
                          12838 ; genPlus
                          12839 ; genPlusIncr
   25C2 01 3B 01          12840 	ld	bc,#_joyState + 4
                          12841 ; genPointerGet
                          12842 ; AOP_STK for _getPad_sloc2_1_0
   25C5 0A                12843 	ld	a,(bc)
   25C6 F8 00             12844 	lda	hl,0(sp)
   25C8 77                12845 	ld	(hl),a ; 3
                          12846 ; genIfx
                          12847 ; AOP_STK for _getPad_sloc2_1_0
                          12848 ; Removed redundent or a,a
   25C9 AF                12849 	xor	a,a
   25CA B6                12850 	or	a,(hl)
   25CB C2 DB 25          12851 	jp	nz,00140$
                          12852 ;	mGBUserFunctions.c 132
                          12853 ; genAssign (pointer)
   25CE 3E 01             12854 	ld	a,#0x01
   25D0 02                12855 	ld	(bc),a
                          12856 ;	mGBUserFunctions.c 133
                          12857 ; genMinus
                          12858 ; AOP_HL for _cursorColumn
   25D1 21 72 01          12859 	ld	hl,#_cursorColumn + 0
   25D4 35                12860 	dec	(hl)
                          12861 ;	mGBUserFunctions.c 134
                          12862 ; genCall
   25D5 CD 71 13          12863 	call	_setCursor
                          12864 ;	mGBUserFunctions.c 135
                          12865 ; genRet
   25D8 C3 C6 26          12866 	jp	00168$
                          12867 ; genLabel
   25DB                   12868 00140$:
                          12869 ;	mGBUserFunctions.c 136
                          12870 ; genPlus
                          12871 ; genPlusIncr
   25DB 01 3B 01          12872 	ld	bc,#_joyState + 4
                          12873 ; genPointerGet
                          12874 ; AOP_STK for _getPad_sloc2_1_0
   25DE 0A                12875 	ld	a,(bc)
   25DF F8 00             12876 	lda	hl,0(sp)
   25E1 77                12877 	ld	(hl),a ; 3
                          12878 ; genIfx
                          12879 ; AOP_STK for _getPad_sloc2_1_0
                          12880 ; Removed redundent or a,a
   25E2 AF                12881 	xor	a,a
   25E3 B6                12882 	or	a,(hl)
   25E4 CA ED 25          12883 	jp	z,00141$
                          12884 ;	mGBUserFunctions.c 137
                          12885 ; genAssign (pointer)
   25E7 3E 00             12886 	ld	a,#0x00
   25E9 02                12887 	ld	(bc),a
                          12888 ;	mGBUserFunctions.c 138
                          12889 ; genRet
   25EA C3 C6 26          12890 	jp	00168$
                          12891 ; genLabel
   25ED                   12892 00141$:
                          12893 ;	mGBUserFunctions.c 140
                          12894 ; genAnd
                          12895 ; AOP_HL for _i
   25ED 21 32 01          12896 	ld	hl,#_i + 0
   25F0 7E                12897 	ld	a,(hl)
   25F1 CB 77             12898 	bit	6,a
   25F3 CA 08 26          12899 	jp	z,00146$
                          12900 ; genPlus
                          12901 ; genPlusIncr
   25F6 01 3D 01          12902 	ld	bc,#_joyState + 6
                          12903 ; genPointerGet
                          12904 ; AOP_STK for _getPad_sloc2_1_0
   25F9 0A                12905 	ld	a,(bc)
   25FA F8 00             12906 	lda	hl,0(sp)
   25FC 77                12907 	ld	(hl),a ; 3
                          12908 ; genIfx
                          12909 ; AOP_STK for _getPad_sloc2_1_0
                          12910 ; Removed redundent or a,a
   25FD AF                12911 	xor	a,a
   25FE B6                12912 	or	a,(hl)
   25FF C2 08 26          12913 	jp	nz,00146$
                          12914 ;	mGBUserFunctions.c 141
                          12915 ; genAssign (pointer)
   2602 3E 01             12916 	ld	a,#0x01
   2604 02                12917 	ld	(bc),a
                          12918 ;	mGBUserFunctions.c 142
                          12919 ; genRet
   2605 C3 C6 26          12920 	jp	00168$
                          12921 ; genLabel
   2608                   12922 00146$:
                          12923 ;	mGBUserFunctions.c 143
                          12924 ; genPlus
                          12925 ; genPlusIncr
   2608 01 3D 01          12926 	ld	bc,#_joyState + 6
                          12927 ; genPointerGet
                          12928 ; AOP_STK for _getPad_sloc2_1_0
   260B 0A                12929 	ld	a,(bc)
   260C F8 00             12930 	lda	hl,0(sp)
   260E 77                12931 	ld	(hl),a ; 3
                          12932 ; genIfx
                          12933 ; AOP_STK for _getPad_sloc2_1_0
                          12934 ; Removed redundent or a,a
   260F AF                12935 	xor	a,a
   2610 B6                12936 	or	a,(hl)
   2611 CA 1A 26          12937 	jp	z,00147$
                          12938 ;	mGBUserFunctions.c 144
                          12939 ; genAssign (pointer)
   2614 3E 00             12940 	ld	a,#0x00
   2616 02                12941 	ld	(bc),a
                          12942 ;	mGBUserFunctions.c 145
                          12943 ; genRet
   2617 C3 C6 26          12944 	jp	00168$
                          12945 ; genLabel
   261A                   12946 00147$:
                          12947 ;	mGBUserFunctions.c 147
                          12948 ; genAnd
                          12949 ; AOP_HL for _i
   261A 21 32 01          12950 	ld	hl,#_i + 0
   261D 7E                12951 	ld	a,(hl)
   261E CB 7F             12952 	bit	7,a
   2620 CA 7B 26          12953 	jp	z,00154$
                          12954 ; genPlus
                          12955 ; genPlusIncr
   2623 01 3E 01          12956 	ld	bc,#_joyState + 7
                          12957 ; genPointerGet
                          12958 ; AOP_STK for _getPad_sloc2_1_0
   2626 0A                12959 	ld	a,(bc)
   2627 F8 00             12960 	lda	hl,0(sp)
   2629 77                12961 	ld	(hl),a ; 3
                          12962 ; genIfx
                          12963 ; AOP_STK for _getPad_sloc2_1_0
                          12964 ; Removed redundent or a,a
   262A AF                12965 	xor	a,a
   262B B6                12966 	or	a,(hl)
   262C C2 7B 26          12967 	jp	nz,00154$
                          12968 ;	mGBUserFunctions.c 148
                          12969 ; genAssign (pointer)
   262F 3E 01             12970 	ld	a,#0x01
   2631 02                12971 	ld	(bc),a
                          12972 ;	mGBUserFunctions.c 149
                          12973 ; genAssign
                          12974 ; AOP_SFR for _NR12_REG
   2632 3E 00             12975 	ld	a,#0x00
   2634 E0 00             12976 	ldh	(_NR12_REG+0),a
                          12977 ;	mGBUserFunctions.c 150
                          12978 ; genAssign
                          12979 ; AOP_SFR for _NR22_REG
   2636 3E 00             12980 	ld	a,#0x00
   2638 E0 00             12981 	ldh	(_NR22_REG+0),a
                          12982 ;	mGBUserFunctions.c 151
                          12983 ; genAssign
                          12984 ; AOP_SFR for _NR32_REG
   263A 3E 00             12985 	ld	a,#0x00
   263C E0 00             12986 	ldh	(_NR32_REG+0),a
                          12987 ;	mGBUserFunctions.c 152
                          12988 ; genAssign
                          12989 ; AOP_SFR for _NR42_REG
   263E 3E 00             12990 	ld	a,#0x00
   2640 E0 00             12991 	ldh	(_NR42_REG+0),a
                          12992 ;	mGBUserFunctions.c 153
                          12993 ; genPlus
                          12994 ; AOP_STK for _getPad_sloc2_1_0
                          12995 ; genPlusIncr
   2642 3E 18             12996 	ld	a,#<_pbWheelIn
   2644 C6 01             12997 	add	a,#0x01
   2646 77                12998 	ld	(hl),a ; 3
   2647 3E 01             12999 	ld	a,#>_pbWheelIn
   2649 CE 00             13000 	adc	a,#0x00
   264B 23                13001 	inc	hl
   264C 77                13002 	ld	(hl),a ; 3
                          13003 ; genPlus
                          13004 ; genPlusIncr
   264D 01 1A 01          13005 	ld	bc,#_pbWheelIn + 2
                          13006 ; genPlus
                          13007 ; genPlusIncr
   2650 11 1B 01          13008 	ld	de,#_pbWheelIn + 3
                          13009 ; genAssign (pointer)
   2653 3E 80             13010 	ld	a,#0x80
   2655 12                13011 	ld	(de),a
                          13012 ; genAssign (pointer)
   2656 3E 80             13013 	ld	a,#0x80
   2658 02                13014 	ld	(bc),a
                          13015 ; genAssign (pointer)
                          13016 ; AOP_STK for _getPad_sloc2_1_0
   2659 2B                13017 	dec	hl
   265A 5E                13018 	ld	e,(hl)
   265B 23                13019 	inc	hl
   265C 56                13020 	ld	d,(hl)
   265D 3E 80             13021 	ld	a,#0x80
   265F 12                13022 	ld	(de),a
                          13023 ; genAssign (pointer)
   2660 11 18 01          13024 	ld	de,#_pbWheelIn + 0
   2663 3E 80             13025 	ld	a,#0x80
   2665 12                13026 	ld	(de),a
                          13027 ;	mGBUserFunctions.c 154
                          13028 ; genAssign
                          13029 ; AOP_HL for _wavSus
   2666 21 07 01          13030 	ld	hl,#_wavSus + 0
   2669 36 00             13031 	ld	(hl),#0x00
                          13032 ; genAssign
                          13033 ; AOP_HL for _pu2Sus
   266B 21 05 01          13034 	ld	hl,#_pu2Sus + 0
   266E 36 00             13035 	ld	(hl),#0x00
                          13036 ; genAssign
                          13037 ; AOP_HL for _pu1Sus
   2670 21 04 01          13038 	ld	hl,#_pu1Sus + 0
   2673 36 00             13039 	ld	(hl),#0x00
                          13040 ;	mGBUserFunctions.c 157
                          13041 ; genCall
   2675 CD E3 28          13042 	call	_testSynths
                          13043 ;	mGBUserFunctions.c 159
                          13044 ; genRet
   2678 C3 C6 26          13045 	jp	00168$
                          13046 ; genLabel
   267B                   13047 00154$:
                          13048 ;	mGBUserFunctions.c 160
                          13049 ; genPlus
                          13050 ; genPlusIncr
   267B 01 3E 01          13051 	ld	bc,#_joyState + 7
                          13052 ; genPointerGet
                          13053 ; AOP_STK for _getPad_sloc2_1_0
   267E 0A                13054 	ld	a,(bc)
   267F F8 00             13055 	lda	hl,0(sp)
   2681 77                13056 	ld	(hl),a ; 3
                          13057 ; genIfx
                          13058 ; AOP_STK for _getPad_sloc2_1_0
                          13059 ; Removed redundent or a,a
   2682 AF                13060 	xor	a,a
   2683 B6                13061 	or	a,(hl)
   2684 CA C6 26          13062 	jp	z,00168$
                          13063 ;	mGBUserFunctions.c 161
                          13064 ; genAssign (pointer)
   2687 3E 00             13065 	ld	a,#0x00
   2689 02                13066 	ld	(bc),a
                          13067 ;	mGBUserFunctions.c 162
                          13068 ; genRet
   268A C3 C6 26          13069 	jp	00168$
                          13070 ; genLabel
   268D                   13071 00160$:
                          13072 ;	mGBUserFunctions.c 165
                          13073 ; genCall
   268D CD 5E 21          13074 	call	_clearParameterLocks
                          13075 ;	mGBUserFunctions.c 166
                          13076 ; genAssign
                          13077 ; AOP_HL for _j
   2690 21 34 01          13078 	ld	hl,#_j + 0
   2693 36 00             13079 	ld	(hl),#0x00
                          13080 ; genLabel
   2695                   13081 00164$:
                          13082 ; genCmpEq
                          13083 ; AOP_HL for _j
   2695 21 34 01          13084 	ld	hl,#_j + 0
   2698 7E                13085 	ld	a,(hl) ; 2
   2699 FE 08             13086 	cp	a,#0x08
                          13087 ; Rule 5
   269B CA C6 26          13088 	jp	z,00167$
   269E                   13089 00202$:
                          13090 ;	mGBUserFunctions.c 167
                          13091 ; genAssign
                          13092 ; AOP_HL for _j
   269E 21 34 01          13093 	ld	hl,#_j + 0
   26A1 4E                13094 	ld	c,(hl)
                          13095 ; genPlus
   26A2 3E 37             13096 	ld	a,#<_joyState
   26A4 81                13097 	add	a,c
   26A5 5F                13098 	ld	e,a
   26A6 3E 01             13099 	ld	a,#>_joyState
   26A8 CE 00             13100 	adc	a,#0x00
   26AA 57                13101 	ld	d,a
                          13102 ; genPointerGet
   26AB 1A                13103 	ld	a,(de)
   26AC 4F                13104 	ld	c,a
                          13105 ; genIfx
                          13106 ; Removed redundent or a,a
   26AD AF                13107 	xor	a,a
   26AE B1                13108 	or	a,c
   26AF CA BF 26          13109 	jp	z,00166$
                          13110 ;	mGBUserFunctions.c 168
                          13111 ; genAssign
                          13112 ; AOP_HL for _j
   26B2 4E                13113 	ld	c,(hl)
                          13114 ; genPlus
   26B3 3E 37             13115 	ld	a,#<_joyState
   26B5 81                13116 	add	a,c
   26B6 5F                13117 	ld	e,a
   26B7 3E 01             13118 	ld	a,#>_joyState
   26B9 CE 00             13119 	adc	a,#0x00
   26BB 57                13120 	ld	d,a
                          13121 ; genAssign (pointer)
   26BC 3E 00             13122 	ld	a,#0x00
   26BE 12                13123 	ld	(de),a
                          13124 ; genLabel
   26BF                   13125 00166$:
                          13126 ;	mGBUserFunctions.c 166
                          13127 ; genPlus
                          13128 ; AOP_HL for _j
                          13129 ; genPlusIncr
   26BF 21 34 01          13130 	ld	hl,#_j + 0
   26C2 34                13131 	inc	(hl)
                          13132 ; genGoto
   26C3 C3 95 26          13133 	jp	00164$
                          13134 ; genLabel
   26C6                   13135 00167$:
                          13136 ;	mGBUserFunctions.c 171
                          13137 ; genRet
                          13138 ; genLabel
   26C6                   13139 00168$:
                          13140 ; genEndFunction
   26C6 E8 05             13141 	lda	sp,5(sp)
   26C8 C1                13142 	pop bc
   26C9 C9                13143 	ret
   26CA                   13144 ___getPad_end:
                          13145 ;	mGB.c 38
                          13146 ; genLabel
                          13147 ; genFunction
                          13148 ;	---------------------------------
                          13149 ; Function setSoundDefaults
                          13150 ; ---------------------------------
   26CA                   13151 ___setSoundDefaults_start:
   26CA                   13152 _setSoundDefaults:
   26CA C5                13153 	push	bc
                          13154 ;	mGB.c 40
                          13155 ; genAssign
                          13156 ; AOP_SFR for _NR52_REG
   26CB 3E 8F             13157 	ld	a,#0x8F
   26CD E0 00             13158 	ldh	(_NR52_REG+0),a
                          13159 ;	mGB.c 41
                          13160 ; genAssign
                          13161 ; AOP_SFR for _NR50_REG
   26CF 3E 77             13162 	ld	a,#0x77
   26D1 E0 00             13163 	ldh	(_NR50_REG+0),a
                          13164 ;	mGB.c 43
                          13165 ; genIpush
   26D3 3E 40             13166 	ld	a,#0x40
   26D5 F5                13167 	push	af
   26D6 33                13168 	inc	sp
                          13169 ; genIpush
   26D7 3E 00             13170 	ld	a,#0x00
   26D9 F5                13171 	push	af
   26DA 33                13172 	inc	sp
                          13173 ; genCall
   26DB CD D1 06          13174 	call	_setOutputPan
   26DE E8 02             13175 	lda	sp,2(sp)
                          13176 ;	mGB.c 44
                          13177 ; genIpush
   26E0 3E 40             13178 	ld	a,#0x40
   26E2 F5                13179 	push	af
   26E3 33                13180 	inc	sp
                          13181 ; genIpush
   26E4 3E 01             13182 	ld	a,#0x01
   26E6 F5                13183 	push	af
   26E7 33                13184 	inc	sp
                          13185 ; genCall
   26E8 CD D1 06          13186 	call	_setOutputPan
   26EB E8 02             13187 	lda	sp,2(sp)
                          13188 ;	mGB.c 45
                          13189 ; genIpush
   26ED 3E 40             13190 	ld	a,#0x40
   26EF F5                13191 	push	af
   26F0 33                13192 	inc	sp
                          13193 ; genIpush
   26F1 3E 02             13194 	ld	a,#0x02
   26F3 F5                13195 	push	af
   26F4 33                13196 	inc	sp
                          13197 ; genCall
   26F5 CD D1 06          13198 	call	_setOutputPan
   26F8 E8 02             13199 	lda	sp,2(sp)
                          13200 ;	mGB.c 46
                          13201 ; genIpush
   26FA 3E 40             13202 	ld	a,#0x40
   26FC F5                13203 	push	af
   26FD 33                13204 	inc	sp
                          13205 ; genIpush
   26FE 3E 03             13206 	ld	a,#0x03
   2700 F5                13207 	push	af
   2701 33                13208 	inc	sp
                          13209 ; genCall
   2702 CD D1 06          13210 	call	_setOutputPan
   2705 E8 02             13211 	lda	sp,2(sp)
                          13212 ;	mGB.c 48
                          13213 ; genIpush
                          13214 ; AOP_HL for _wavDataOffset
   2707 21 17 01          13215 	ld	hl,#_wavDataOffset + 0
   270A 7E                13216 	ld	a,(hl)
   270B F5                13217 	push	af
   270C 33                13218 	inc	sp
                          13219 ; genCall
   270D CD 00 00          13220 	call	_asmLoadWav
   2710 E8 01             13221 	lda	sp,1(sp)
                          13222 ;	mGB.c 49
                          13223 ; genAssign
                          13224 ; AOP_SFR for _NR32_REG
   2712 3E 00             13225 	ld	a,#0x00
   2714 E0 00             13226 	ldh	(_NR32_REG+0),a
                          13227 ;	mGB.c 51
                          13228 ; genAssign
                          13229 ; AOP_SFR for _NR44_REG
   2716 3E 80             13230 	ld	a,#0x80
   2718 E0 00             13231 	ldh	(_NR44_REG+0),a
                          13232 ;	mGB.c 52
                          13233 ; genAssign
                          13234 ; AOP_SFR for _NR41_REG
   271A 3E 3F             13235 	ld	a,#0x3F
   271C E0 00             13236 	ldh	(_NR41_REG+0),a
                          13237 ; genLabel
   271E                   13238 00101$:
                          13239 ; genEndFunction
   271E C1                13240 	pop	bc
   271F C9                13241 	ret
   2720                   13242 ___setSoundDefaults_end:
                          13243 ;	mGB.c 57
                          13244 ; genLabel
                          13245 ; genFunction
                          13246 ;	---------------------------------
                          13247 ; Function noOp
                          13248 ; ---------------------------------
   2720                   13249 ___noOp_start:
   2720                   13250 _noOp:
   2720 C5                13251 	push	bc
                          13252 ;	mGB.c 59
                          13253 ; genLabel
   2721                   13254 00101$:
                          13255 ; genEndFunction
   2721 C1                13256 	pop	bc
   2722 C9                13257 	ret
   2723                   13258 ___noOp_end:
                          13259 ;	mGB.c 61
                          13260 ; genLabel
                          13261 ; genFunction
                          13262 ;	---------------------------------
                          13263 ; Function glideTo
                          13264 ; ---------------------------------
   2723                   13265 ___glideTo_start:
   2723                   13266 _glideTo:
   2723 C5                13267 	push	bc
   2724 E8 FD             13268 	lda sp,-3(sp)
                          13269 ;	mGB.c 62
                          13270 ; genCmpEq
                          13271 ; AOP_HL for _valueByte
   2726 21 02 00          13272 	ld	hl,#_valueByte + 0
   2729 7E                13273 	ld	a,(hl)
   272A B7                13274 	or	a,a
                          13275 ; Rule 5
   272B CA D9 28          13276 	jp	z,00112$
   272E                   13277 00121$:
                          13278 ;	mGB.c 64
                          13279 ; genCmpEq
                          13280 ; AOP_HL for _newNote
   272E 21 06 00          13281 	ld	hl,#_newNote + 0
   2731 7E                13282 	ld	a,(hl)
   2732 B7                13283 	or	a,a
   2733 C2 38 27          13284 	jp	nz,00122$
   2736 18 03             13285 	jr	00123$
   2738                   13286 00122$:
   2738 C3 43 27          13287 	jp	00102$
   273B                   13288 00123$:
                          13289 ;	mGB.c 65
                          13290 ; genAssign
                          13291 ; AOP_HL for _addressByte
                          13292 ; AOP_HL for _newNote
   273B 21 01 00          13293 	ld	hl,#_addressByte + 0
   273E 7E                13294 	ld	a,(hl)
   273F 21 06 00          13295 	ld	hl,#_newNote + 0
   2742 77                13296 	ld	(hl),a
                          13297 ; genLabel
   2743                   13298 00102$:
                          13299 ;	mGB.c 69
                          13300 ; genPlus
                          13301 ; AOP_STK for _glideTo_sloc1_1_0
                          13302 ; genPlusIncr
   2743 3E 9F             13303 	ld	a,#<_noteStatus
   2745 C6 01             13304 	add	a,#0x01
   2747 F8 00             13305 	lda	hl,0(sp)
   2749 77                13306 	ld	(hl),a ; 3
   274A 3E 00             13307 	ld	a,#>_noteStatus
   274C CE 00             13308 	adc	a,#0x00
   274E 23                13309 	inc	hl
   274F 77                13310 	ld	(hl),a ; 3
                          13311 ; genPointerGet
                          13312 ; AOP_STK for _glideTo_sloc1_1_0
                          13313 ; AOP_STK for _glideTo_sloc0_1_0
   2750 2B                13314 	dec	hl
   2751 5E                13315 	ld	e,(hl)
   2752 23                13316 	inc	hl
   2753 56                13317 	ld	d,(hl)
   2754 1A                13318 	ld	a,(de)
   2755 23                13319 	inc	hl
   2756 77                13320 	ld	(hl),a ; 3
                          13321 ; genPlus
                          13322 ; AOP_STK for _glideTo_sloc0_1_0
                          13323 ; AOP_HL for _prevNoteTmp
                          13324 ; genPlusIncr
   2757 7E                13325 	ld	a,(hl)
   2758 C6 24             13326 	add	a,#0x24
   275A 21 AB 00          13327 	ld	hl,#_prevNoteTmp + 0
   275D 77                13328 	ld	(hl),a
                          13329 ;	mGB.c 71
                          13330 ; genCmpEq
                          13331 ; AOP_HL for _prevNoteTmp
   275E 7E                13332 	ld	a,(hl)
   275F B7                13333 	or	a,a
   2760 C2 65 27          13334 	jp	nz,00124$
   2763 18 03             13335 	jr	00125$
   2765                   13336 00124$:
   2765 C3 6D 27          13337 	jp	00104$
   2768                   13338 00125$:
                          13339 ;	mGB.c 72
                          13340 ; genAssign
                          13341 ; AOP_HL for _prevNoteTmp
   2768 21 AB 00          13342 	ld	hl,#_prevNoteTmp + 0
   276B 36 24             13343 	ld	(hl),#0x24
                          13344 ; genLabel
   276D                   13345 00104$:
                          13346 ;	mGB.c 74
                          13347 ; genAssign (pointer)
                          13348 ; AOP_HL for _prevNoteTmp
   276D 11 A7 00          13349 	ld	de,#_prevNote + 0
   2770 21 AB 00          13350 	ld	hl,#_prevNoteTmp + 0
   2773 7E                13351 	ld	a,(hl)
   2774 12                13352 	ld	(de),a
                          13353 ;	mGB.c 76
                          13354 ; genCmpGt
                          13355 ; AOP_HL for _prevNoteTmp
                          13356 ; AOP_HL for _newNote
   2775 AF                13357 	xor	a,a
   2776 21 06 00          13358 	ld	hl,#_newNote + 0
   2779 7E                13359 	ld	a,(hl)
   277A 21 AB 00          13360 	ld	hl,#_prevNoteTmp + 0
   277D 9E                13361 	sbc	a,(hl) ; 2
   277E D2 0A 28          13362 	jp	nc,00106$
                          13363 ;	mGB.c 83
                          13364 ; genCall
   2781 CD 20 27          13365 	call	_noOp
                          13366 ;	mGB.c 85
                          13367 ; genAssign
                          13368 ; AOP_HL for _prevNoteTmp
                          13369 ; AOP_HL for _tmp1
   2784 21 AB 00          13370 	ld	hl,#_prevNoteTmp + 0
   2787 7E                13371 	ld	a,(hl)
   2788 21 07 00          13372 	ld	hl,#_tmp1 + 0
   278B 77                13373 	ld	(hl),a
                          13374 ;	mGB.c 86
                          13375 ; genMinus
                          13376 ; AOP_HL for _tmp1
   278C 7E                13377 	ld	a,(hl)
   278D C6 DC             13378 	add	a,#0xDC
   278F 77                13379 	ld	(hl),a
                          13380 ;	mGB.c 87
                          13381 ; genLeftShift
                          13382 ; AOP_HL for _tmp1
   2790 7E                13383 	ld	a,(hl)
   2791 87                13384 	add	a,a
   2792 4F                13385 	ld	c,a
                          13386 ; genPlus
   2793 3E 0F             13387 	ld	a,#<_freq
   2795 81                13388 	add	a,c
   2796 5F                13389 	ld	e,a
   2797 3E 00             13390 	ld	a,#>_freq
   2799 CE 00             13391 	adc	a,#0x00
   279B 57                13392 	ld	d,a
                          13393 ; genPointerGet
                          13394 ; AOP_HL for _tmp1Freq
                          13395 ; Removed redundent load
                          13396 ; Removed redundent load
   279C 1A                13397 	ld	a,(de)
   279D 21 08 00          13398 	ld	hl,#_tmp1Freq + 0
   27A0 77                13399 	ld	(hl),a
   27A1 13                13400 	inc	de
   27A2 1A                13401 	ld	a,(de)
   27A3 21 09 00          13402 	ld	hl,#_tmp1Freq + 1
   27A6 77                13403 	ld	(hl),a
                          13404 ;	mGB.c 88
                          13405 ; genAssign
                          13406 ; AOP_HL for _newNote
                          13407 ; AOP_HL for _tmp2
   27A7 21 06 00          13408 	ld	hl,#_newNote + 0
   27AA 7E                13409 	ld	a,(hl)
   27AB 21 0A 00          13410 	ld	hl,#_tmp2 + 0
   27AE 77                13411 	ld	(hl),a
                          13412 ;	mGB.c 89
                          13413 ; genMinus
                          13414 ; AOP_HL for _tmp2
   27AF 7E                13415 	ld	a,(hl)
   27B0 C6 DC             13416 	add	a,#0xDC
   27B2 77                13417 	ld	(hl),a
                          13418 ;	mGB.c 90
                          13419 ; genLeftShift
                          13420 ; AOP_HL for _tmp2
   27B3 7E                13421 	ld	a,(hl)
   27B4 87                13422 	add	a,a
   27B5 4F                13423 	ld	c,a
                          13424 ; genPlus
   27B6 3E 0F             13425 	ld	a,#<_freq
   27B8 81                13426 	add	a,c
   27B9 5F                13427 	ld	e,a
   27BA 3E 00             13428 	ld	a,#>_freq
   27BC CE 00             13429 	adc	a,#0x00
   27BE 57                13430 	ld	d,a
                          13431 ; genPointerGet
                          13432 ; AOP_HL for _tmp2Freq
                          13433 ; Removed redundent load
                          13434 ; Removed redundent load
   27BF 1A                13435 	ld	a,(de)
   27C0 21 0B 00          13436 	ld	hl,#_tmp2Freq + 0
   27C3 77                13437 	ld	(hl),a
   27C4 13                13438 	inc	de
   27C5 1A                13439 	ld	a,(de)
   27C6 21 0C 00          13440 	ld	hl,#_tmp2Freq + 1
   27C9 77                13441 	ld	(hl),a
                          13442 ;	mGB.c 91
                          13443 ; genAssign
                          13444 ; AOP_HL for _tmp1Freq
                          13445 ; AOP_HL for _newStepSize
   27CA 21 08 00          13446 	ld	hl,#_tmp1Freq + 0
   27CD 7E                13447 	ld	a,(hl)
   27CE 21 09 00          13448 	ld	hl,#_tmp1Freq + 1
   27D1 5E                13449 	ld	e,(hl)
   27D2 21 0D 00          13450 	ld	hl,#_newStepSize + 0
   27D5 77                13451 	ld	(hl),a
   27D6 21 0E 00          13452 	ld	hl,#_newStepSize + 1
   27D9 73                13453 	ld	(hl),e
                          13454 ;	mGB.c 92
                          13455 ; genMinus
                          13456 ; AOP_HL for _newStepSize
                          13457 ; AOP_HL for _tmp2Freq
   27DA 21 0D 00          13458 	ld	hl,#_newStepSize + 0
   27DD 7E                13459 	ld	a,(hl)
   27DE 21 0B 00          13460 	ld	hl,#_tmp2Freq + 0
   27E1 96                13461 	sub	a,(hl)
   27E2 21 0D 00          13462 	ld	hl,#_newStepSize + 0
   27E5 77                13463 	ld	(hl),a
   27E6 21 0E 00          13464 	ld	hl,#_newStepSize + 1
   27E9 7E                13465 	ld	a,(hl)
   27EA 21 0C 00          13466 	ld	hl,#_tmp2Freq + 1
   27ED 9E                13467 	sbc	a,(hl)
   27EE 21 0E 00          13468 	ld	hl,#_newStepSize + 1
   27F1 77                13469 	ld	(hl),a
                          13470 ;	mGB.c 93
                          13471 ; genIpush
   27F2 21 6F 00          13472 	ld	hl,#0x006F
   27F5 E5                13473 	push	hl
                          13474 ; genIpush
                          13475 ; AOP_HL for _newStepSize
   27F6 21 0D 00          13476 	ld	hl,#_newStepSize + 0
   27F9 2A                13477 	ld	a,(hl+)
   27FA 66                13478 	ld	h,(hl)
   27FB 6F                13479 	ld	l,a
   27FC E5                13480 	push	hl
                          13481 ; genCall
   27FD CD 00 00          13482 	call	__divuint
                          13483 ; AOP_HL for _newStepSize
   2800 21 0E 00          13484 	ld	hl,#_newStepSize + 1
   2803 72                13485 	ld	(hl),d
   2804 21 0D 00          13486 	ld	hl,#_newStepSize + 0
   2807 73                13487 	ld	(hl),e
   2808 E8 04             13488 	lda	sp,4(sp)
                          13489 ; genLabel
   280A                   13490 00106$:
                          13491 ;	mGB.c 95
                          13492 ; genCmpLt
                          13493 ; AOP_HL for _prevNoteTmp
                          13494 ; AOP_HL for _newNote
   280A AF                13495 	xor	a,a
   280B 21 AB 00          13496 	ld	hl,#_prevNoteTmp + 0
   280E 7E                13497 	ld	a,(hl)
   280F 21 06 00          13498 	ld	hl,#_newNote + 0
   2812 9E                13499 	sbc	a,(hl) ; 2
   2813 D2 9C 28          13500 	jp	nc,00108$
                          13501 ;	mGB.c 96
                          13502 ; genAssign
                          13503 ; AOP_HL for _prevNoteTmp
                          13504 ; AOP_HL for _tmp1
   2816 21 AB 00          13505 	ld	hl,#_prevNoteTmp + 0
   2819 7E                13506 	ld	a,(hl)
   281A 21 07 00          13507 	ld	hl,#_tmp1 + 0
   281D 77                13508 	ld	(hl),a
                          13509 ;	mGB.c 97
                          13510 ; genMinus
                          13511 ; AOP_HL for _tmp1
   281E 7E                13512 	ld	a,(hl)
   281F C6 DC             13513 	add	a,#0xDC
   2821 77                13514 	ld	(hl),a
                          13515 ;	mGB.c 98
                          13516 ; genLeftShift
                          13517 ; AOP_HL for _tmp1
   2822 7E                13518 	ld	a,(hl)
   2823 87                13519 	add	a,a
   2824 4F                13520 	ld	c,a
                          13521 ; genPlus
   2825 3E 0F             13522 	ld	a,#<_freq
   2827 81                13523 	add	a,c
   2828 5F                13524 	ld	e,a
   2829 3E 00             13525 	ld	a,#>_freq
   282B CE 00             13526 	adc	a,#0x00
   282D 57                13527 	ld	d,a
                          13528 ; genPointerGet
                          13529 ; AOP_HL for _tmp1Freq
                          13530 ; Removed redundent load
                          13531 ; Removed redundent load
   282E 1A                13532 	ld	a,(de)
   282F 21 08 00          13533 	ld	hl,#_tmp1Freq + 0
   2832 77                13534 	ld	(hl),a
   2833 13                13535 	inc	de
   2834 1A                13536 	ld	a,(de)
   2835 21 09 00          13537 	ld	hl,#_tmp1Freq + 1
   2838 77                13538 	ld	(hl),a
                          13539 ;	mGB.c 99
                          13540 ; genAssign
                          13541 ; AOP_HL for _newNote
                          13542 ; AOP_HL for _tmp2
   2839 21 06 00          13543 	ld	hl,#_newNote + 0
   283C 7E                13544 	ld	a,(hl)
   283D 21 0A 00          13545 	ld	hl,#_tmp2 + 0
   2840 77                13546 	ld	(hl),a
                          13547 ;	mGB.c 100
                          13548 ; genMinus
                          13549 ; AOP_HL for _tmp2
   2841 7E                13550 	ld	a,(hl)
   2842 C6 DC             13551 	add	a,#0xDC
   2844 77                13552 	ld	(hl),a
                          13553 ;	mGB.c 101
                          13554 ; genLeftShift
                          13555 ; AOP_HL for _tmp2
   2845 7E                13556 	ld	a,(hl)
   2846 87                13557 	add	a,a
   2847 4F                13558 	ld	c,a
                          13559 ; genPlus
   2848 3E 0F             13560 	ld	a,#<_freq
   284A 81                13561 	add	a,c
   284B 5F                13562 	ld	e,a
   284C 3E 00             13563 	ld	a,#>_freq
   284E CE 00             13564 	adc	a,#0x00
   2850 57                13565 	ld	d,a
                          13566 ; genPointerGet
                          13567 ; AOP_HL for _tmp2Freq
                          13568 ; Removed redundent load
                          13569 ; Removed redundent load
   2851 1A                13570 	ld	a,(de)
   2852 21 0B 00          13571 	ld	hl,#_tmp2Freq + 0
   2855 77                13572 	ld	(hl),a
   2856 13                13573 	inc	de
   2857 1A                13574 	ld	a,(de)
   2858 21 0C 00          13575 	ld	hl,#_tmp2Freq + 1
   285B 77                13576 	ld	(hl),a
                          13577 ;	mGB.c 102
                          13578 ; genAssign
                          13579 ; AOP_HL for _tmp2Freq
                          13580 ; AOP_HL for _newStepSize
   285C 21 0B 00          13581 	ld	hl,#_tmp2Freq + 0
   285F 7E                13582 	ld	a,(hl)
   2860 21 0C 00          13583 	ld	hl,#_tmp2Freq + 1
   2863 5E                13584 	ld	e,(hl)
   2864 21 0D 00          13585 	ld	hl,#_newStepSize + 0
   2867 77                13586 	ld	(hl),a
   2868 21 0E 00          13587 	ld	hl,#_newStepSize + 1
   286B 73                13588 	ld	(hl),e
                          13589 ;	mGB.c 103
                          13590 ; genMinus
                          13591 ; AOP_HL for _newStepSize
                          13592 ; AOP_HL for _tmp1Freq
   286C 21 0D 00          13593 	ld	hl,#_newStepSize + 0
   286F 7E                13594 	ld	a,(hl)
   2870 21 08 00          13595 	ld	hl,#_tmp1Freq + 0
   2873 96                13596 	sub	a,(hl)
   2874 21 0D 00          13597 	ld	hl,#_newStepSize + 0
   2877 77                13598 	ld	(hl),a
   2878 21 0E 00          13599 	ld	hl,#_newStepSize + 1
   287B 7E                13600 	ld	a,(hl)
   287C 21 09 00          13601 	ld	hl,#_tmp1Freq + 1
   287F 9E                13602 	sbc	a,(hl)
   2880 21 0E 00          13603 	ld	hl,#_newStepSize + 1
   2883 77                13604 	ld	(hl),a
                          13605 ;	mGB.c 104
                          13606 ; genIpush
   2884 21 6F 00          13607 	ld	hl,#0x006F
   2887 E5                13608 	push	hl
                          13609 ; genIpush
                          13610 ; AOP_HL for _newStepSize
   2888 21 0D 00          13611 	ld	hl,#_newStepSize + 0
   288B 2A                13612 	ld	a,(hl+)
   288C 66                13613 	ld	h,(hl)
   288D 6F                13614 	ld	l,a
   288E E5                13615 	push	hl
                          13616 ; genCall
   288F CD 00 00          13617 	call	__divuint
                          13618 ; AOP_HL for _newStepSize
   2892 21 0E 00          13619 	ld	hl,#_newStepSize + 1
   2895 72                13620 	ld	(hl),d
   2896 21 0D 00          13621 	ld	hl,#_newStepSize + 0
   2899 73                13622 	ld	(hl),e
   289A E8 04             13623 	lda	sp,4(sp)
                          13624 ; genLabel
   289C                   13625 00108$:
                          13626 ;	mGB.c 106
                          13627 ; genCmpEq
                          13628 ; AOP_HL for _newStepSize
   289C 21 0D 00          13629 	ld	hl,#_newStepSize + 0
   289F 7E                13630 	ld	a,(hl)
   28A0 21 0E 00          13631 	ld	hl,#_newStepSize + 1
   28A3 B6                13632 	or	a,(hl)
   28A4 C2 A9 28          13633 	jp	nz,00126$
   28A7 18 03             13634 	jr	00127$
   28A9                   13635 00126$:
   28A9 C3 B6 28          13636 	jp	00110$
   28AC                   13637 00127$:
                          13638 ;	mGB.c 107
                          13639 ; genAssign
                          13640 ; AOP_HL for _newStepSize
   28AC 21 0D 00          13641 	ld	hl,#_newStepSize + 0
   28AF 36 01             13642 	ld	(hl),#0x01
   28B1 21 0E 00          13643 	ld	hl,#_newStepSize + 1
   28B4 36 00             13644 	ld	(hl),#0x00
                          13645 ; genLabel
   28B6                   13646 00110$:
                          13647 ;	mGB.c 110
                          13648 ; genAssign (pointer)
   28B6 11 AB 01          13649 	ld	de,#_portDelay + 0
   28B9 3E 00             13650 	ld	a,#0x00
   28BB 12                13651 	ld	(de),a
                          13652 ;	mGB.c 111
                          13653 ; genAssign (pointer)
                          13654 ; AOP_HL for _newStepSize
   28BC 11 9B 01          13655 	ld	de,#_portStepSize + 0
   28BF 21 0D 00          13656 	ld	hl,#_newStepSize + 0
   28C2 7E                13657 	ld	a,(hl)
   28C3 12                13658 	ld	(de),a
   28C4 13                13659 	inc	de
   28C5 21 0E 00          13660 	ld	hl,#_newStepSize + 1
   28C8 7E                13661 	ld	a,(hl)
   28C9 12                13662 	ld	(de),a
                          13663 ;	mGB.c 112
                          13664 ; genAssign (pointer)
                          13665 ; AOP_STK for _glideTo_sloc1_1_0
                          13666 ; AOP_HL for _newNote
   28CA F8 00             13667 	lda	hl,0(sp)
   28CC 5E                13668 	ld	e,(hl)
   28CD 23                13669 	inc	hl
   28CE 56                13670 	ld	d,(hl)
   28CF 21 06 00          13671 	ld	hl,#_newNote + 0
   28D2 7E                13672 	ld	a,(hl)
   28D3 12                13673 	ld	(de),a
                          13674 ;	mGB.c 113
                          13675 ; genAssign
                          13676 ; AOP_HL for _newNote
                          13677 ; AOP_HL for _addressByte
   28D4 7E                13678 	ld	a,(hl)
   28D5 21 01 00          13679 	ld	hl,#_addressByte + 0
   28D8 77                13680 	ld	(hl),a
                          13681 ; genLabel
   28D9                   13682 00112$:
                          13683 ;	mGB.c 115
                          13684 ; genCall
   28D9 CD 00 00          13685 	call	_asmPlayNotePu1
                          13686 ;	mGB.c 118
                          13687 ; genCall
   28DC CD 20 27          13688 	call	_noOp
                          13689 ; genLabel
   28DF                   13690 00113$:
                          13691 ; genEndFunction
   28DF E8 03             13692 	lda	sp,3(sp)
   28E1 C1                13693 	pop bc
   28E2 C9                13694 	ret
   28E3                   13695 ___glideTo_end:
                          13696 ;	mGB.c 122
                          13697 ; genLabel
                          13698 ; genFunction
                          13699 ;	---------------------------------
                          13700 ; Function testSynths
                          13701 ; ---------------------------------
   28E3                   13702 ___testSynths_start:
   28E3                   13703 _testSynths:
   28E3 C5                13704 	push	bc
                          13705 ;	mGB.c 124
                          13706 ; genPlus
                          13707 ; AOP_HL for _newNote
                          13708 ; genPlusIncr
   28E4 21 06 00          13709 	ld	hl,#_newNote + 0
   28E7 7E                13710 	ld	a,(hl)
   28E8 C6 08             13711 	add	a,#0x08
   28EA 77                13712 	ld	(hl),a
                          13713 ;	mGB.c 125
                          13714 ; genCall
   28EB CD 23 27          13715 	call	_glideTo
                          13716 ;	mGB.c 126
                          13717 ; genAssign (pointer)
   28EE 11 6E 01          13718 	ld	de,#_cursorEnable + 0
   28F1 3E 01             13719 	ld	a,#0x01
   28F3 12                13720 	ld	(de),a
                          13721 ; genLabel
   28F4                   13722 00101$:
                          13723 ; genEndFunction
   28F4 C1                13724 	pop	bc
   28F5 C9                13725 	ret
   28F6                   13726 ___testSynths_end:
                          13727 ;	mGB.c 129
                          13728 ; genLabel
                          13729 ; genFunction
                          13730 ;	---------------------------------
                          13731 ; Function main
                          13732 ; ---------------------------------
   28F6                   13733 ___main_start:
   28F6                   13734 _main:
   28F6 C5                13735 	push	bc
                          13736 ;	mGB.c 132
                          13737 ; genAssign
                          13738 ; AOP_HL for _addressByte
   28F7 21 01 00          13739 	ld	hl,#_addressByte + 0
   28FA 36 25             13740 	ld	(hl),#0x25
                          13741 ;	mGB.c 133
                          13742 ; genAssign
                          13743 ; AOP_HL for _newNote
   28FC 21 06 00          13744 	ld	hl,#_newNote + 0
   28FF 36 25             13745 	ld	(hl),#0x25
                          13746 ;	mGB.c 134
                          13747 ; genCall
   2901 CD 00 00          13748 	call	_disable_interrupts
                          13749 ;	mGB.c 135
                          13750 ; genCall
   2904 CD 00 00          13751 	call	_cpu_fast
                          13752 ;	mGB.c 136
                          13753 ; genCall
   2907 CD CC 1E          13754 	call	_checkMemory
                          13755 ;	mGB.c 137
                          13756 ; genCall
   290A CD C2 18          13757 	call	_displaySetup
                          13758 ;	mGB.c 138
                          13759 ; genCall
   290D CD CA 26          13760 	call	_setSoundDefaults
                          13761 ;	mGB.c 139
                          13762 ; genAssign
   2910 01 9F 0B          13763 	ld	bc,#_updateSynths + 0
                          13764 ; genIpush
   2913 C5                13765 	push	bc
                          13766 ; genCall
   2914 CD 00 00          13767 	call	_add_TIM
   2917 E8 02             13768 	lda	sp,2(sp)
                          13769 ;	mGB.c 141
                          13770 ; genIpush
   2919 3E 00             13771 	ld	a,#0x00
   291B F5                13772 	push	af
   291C 33                13773 	inc	sp
                          13774 ; genCall
   291D CD 07 1C          13775 	call	_loadDataSet
   2920 E8 01             13776 	lda	sp,1(sp)
                          13777 ;	mGB.c 142
                          13778 ; genIpush
   2922 3E 01             13779 	ld	a,#0x01
   2924 F5                13780 	push	af
   2925 33                13781 	inc	sp
                          13782 ; genCall
   2926 CD 07 1C          13783 	call	_loadDataSet
   2929 E8 01             13784 	lda	sp,1(sp)
                          13785 ;	mGB.c 143
                          13786 ; genIpush
   292B 3E 02             13787 	ld	a,#0x02
   292D F5                13788 	push	af
   292E 33                13789 	inc	sp
                          13790 ; genCall
   292F CD 07 1C          13791 	call	_loadDataSet
   2932 E8 01             13792 	lda	sp,1(sp)
                          13793 ;	mGB.c 144
                          13794 ; genIpush
   2934 3E 03             13795 	ld	a,#0x03
   2936 F5                13796 	push	af
   2937 33                13797 	inc	sp
                          13798 ; genCall
   2938 CD 07 1C          13799 	call	_loadDataSet
   293B E8 01             13800 	lda	sp,1(sp)
                          13801 ;	mGB.c 145
                          13802 ; genCall
   293D CD 00 00          13803 	call	_enable_interrupts
                          13804 ;	mGB.c 149
                          13805 ; genAssign
                          13806 ; AOP_SFR for _TMA_REG
   2940 3E 00             13807 	ld	a,#0x00
   2942 E0 00             13808 	ldh	(_TMA_REG+0),a
                          13809 ;	mGB.c 151
                          13810 ; genAssign
                          13811 ; AOP_SFR for _TAC_REG
   2944 3E 05             13812 	ld	a,#0x05
   2946 E0 00             13813 	ldh	(_TAC_REG+0),a
                          13814 ;	mGB.c 154
                          13815 ; genIpush
   2948 3E 0D             13816 	ld	a,#0x0D
   294A F5                13817 	push	af
   294B 33                13818 	inc	sp
                          13819 ; genCall
   294C CD 00 00          13820 	call	_set_interrupts
   294F E8 01             13821 	lda	sp,1(sp)
                          13822 ;	mGB.c 156
                          13823 ; genOr
                          13824 ; AOP_SFR for _LCDC_REG
                          13825 ; Type res[4] = l[4]&r[1]
                          13826 ; Size res[1] = l[1]&r[1]
   2951 F0 00             13827 	ldh	a,(_LCDC_REG+0) ; x
   2953 F6 01             13828 	or	a,#0x01
   2955 E0 00             13829 	ldh	(_LCDC_REG+0),a
                          13830 ;	mGB.c 157
                          13831 ; genOr
                          13832 ; AOP_SFR for _LCDC_REG
                          13833 ; Type res[4] = l[4]&r[1]
                          13834 ; Size res[1] = l[1]&r[1]
   2957 F0 00             13835 	ldh	a,(_LCDC_REG+0) ; x
   2959 F6 02             13836 	or	a,#0x02
   295B E0 00             13837 	ldh	(_LCDC_REG+0),a
                          13838 ;	mGB.c 159
                          13839 ; genCall
   295D CD 7C 18          13840 	call	_showSplashScreen
                          13841 ;	mGB.c 162
                          13842 ; genCall
   2960 CD 7B 17          13843 	call	_showMainScreen
                          13844 ;	mGB.c 163
                          13845 ; genCall
   2963 CD B8 0C          13846 	call	_printversion
                          13847 ;	mGB.c 164
                          13848 ; genCall
   2966 CD 00 00          13849 	call	_asmMain
                          13850 ; genLabel
   2969                   13851 00101$:
                          13852 ; genEndFunction
   2969 C1                13853 	pop	bc
   296A C9                13854 	ret
   296B                   13855 ___main_end:
                          13856 	.area _CODE
   296B                   13857 _wavData:
   296B 01                13858 	.db #0x01
   296C 23                13859 	.db #0x23
   296D 45                13860 	.db #0x45
   296E 67                13861 	.db #0x67
   296F 89                13862 	.db #0x89
   2970 AB                13863 	.db #0xAB
   2971 CD                13864 	.db #0xCD
   2972 EF                13865 	.db #0xEF
   2973 FE                13866 	.db #0xFE
   2974 DC                13867 	.db #0xDC
   2975 BA                13868 	.db #0xBA
   2976 98                13869 	.db #0x98
   2977 76                13870 	.db #0x76
   2978 54                13871 	.db #0x54
   2979 32                13872 	.db #0x32
   297A 10                13873 	.db #0x10
   297B 22                13874 	.db #0x22
   297C 55                13875 	.db #0x55
   297D 77                13876 	.db #0x77
   297E AA                13877 	.db #0xAA
   297F BB                13878 	.db #0xBB
   2980 DD                13879 	.db #0xDD
   2981 EE                13880 	.db #0xEE
   2982 FF                13881 	.db #0xFF
   2983 EE                13882 	.db #0xEE
   2984 DD                13883 	.db #0xDD
   2985 BB                13884 	.db #0xBB
   2986 AA                13885 	.db #0xAA
   2987 77                13886 	.db #0x77
   2988 66                13887 	.db #0x66
   2989 44                13888 	.db #0x44
   298A 00                13889 	.db #0x00
   298B 01                13890 	.db #0x01
   298C 23                13891 	.db #0x23
   298D 45                13892 	.db #0x45
   298E 67                13893 	.db #0x67
   298F 89                13894 	.db #0x89
   2990 AB                13895 	.db #0xAB
   2991 CD                13896 	.db #0xCD
   2992 EF                13897 	.db #0xEF
   2993 00                13898 	.db #0x00
   2994 00                13899 	.db #0x00
   2995 00                13900 	.db #0x00
   2996 00                13901 	.db #0x00
   2997 00                13902 	.db #0x00
   2998 00                13903 	.db #0x00
   2999 00                13904 	.db #0x00
   299A 00                13905 	.db #0x00
   299B FF                13906 	.db #0xFF
   299C EE                13907 	.db #0xEE
   299D DD                13908 	.db #0xDD
   299E CC                13909 	.db #0xCC
   299F BB                13910 	.db #0xBB
   29A0 AA                13911 	.db #0xAA
   29A1 99                13912 	.db #0x99
   29A2 88                13913 	.db #0x88
   29A3 77                13914 	.db #0x77
   29A4 66                13915 	.db #0x66
   29A5 55                13916 	.db #0x55
   29A6 44                13917 	.db #0x44
   29A7 33                13918 	.db #0x33
   29A8 22                13919 	.db #0x22
   29A9 11                13920 	.db #0x11
   29AA 00                13921 	.db #0x00
   29AB FF                13922 	.db #0xFF
   29AC 00                13923 	.db #0x00
   29AD 00                13924 	.db #0x00
   29AE 00                13925 	.db #0x00
   29AF 00                13926 	.db #0x00
   29B0 00                13927 	.db #0x00
   29B1 00                13928 	.db #0x00
   29B2 00                13929 	.db #0x00
   29B3 00                13930 	.db #0x00
   29B4 00                13931 	.db #0x00
   29B5 00                13932 	.db #0x00
   29B6 00                13933 	.db #0x00
   29B7 00                13934 	.db #0x00
   29B8 00                13935 	.db #0x00
   29B9 00                13936 	.db #0x00
   29BA 00                13937 	.db #0x00
   29BB 00                13938 	.db #0x00
   29BC 00                13939 	.db #0x00
   29BD 00                13940 	.db #0x00
   29BE 00                13941 	.db #0x00
   29BF 00                13942 	.db #0x00
   29C0 00                13943 	.db #0x00
   29C1 00                13944 	.db #0x00
   29C2 00                13945 	.db #0x00
   29C3 00                13946 	.db #0x00
   29C4 00                13947 	.db #0x00
   29C5 00                13948 	.db #0x00
   29C6 00                13949 	.db #0x00
   29C7 FF                13950 	.db #0xFF
   29C8 FF                13951 	.db #0xFF
   29C9 00                13952 	.db #0x00
   29CA 00                13953 	.db #0x00
   29CB FF                13954 	.db #0xFF
   29CC FF                13955 	.db #0xFF
   29CD FF                13956 	.db #0xFF
   29CE FF                13957 	.db #0xFF
   29CF 00                13958 	.db #0x00
   29D0 00                13959 	.db #0x00
   29D1 00                13960 	.db #0x00
   29D2 00                13961 	.db #0x00
   29D3 00                13962 	.db #0x00
   29D4 00                13963 	.db #0x00
   29D5 00                13964 	.db #0x00
   29D6 00                13965 	.db #0x00
   29D7 00                13966 	.db #0x00
   29D8 00                13967 	.db #0x00
   29D9 00                13968 	.db #0x00
   29DA 00                13969 	.db #0x00
   29DB 00                13970 	.db #0x00
   29DC 00                13971 	.db #0x00
   29DD 00                13972 	.db #0x00
   29DE 00                13973 	.db #0x00
   29DF 00                13974 	.db #0x00
   29E0 00                13975 	.db #0x00
   29E1 00                13976 	.db #0x00
   29E2 00                13977 	.db #0x00
   29E3 FF                13978 	.db #0xFF
   29E4 FF                13979 	.db #0xFF
   29E5 FF                13980 	.db #0xFF
   29E6 FF                13981 	.db #0xFF
   29E7 FF                13982 	.db #0xFF
   29E8 FF                13983 	.db #0xFF
   29E9 FF                13984 	.db #0xFF
   29EA FF                13985 	.db #0xFF
   29EB 16                13986 	.db #0x16
   29EC 13                13987 	.db #0x13
   29ED AA                13988 	.db #0xAA
   29EE B3                13989 	.db #0xB3
   29EF 25                13990 	.db #0x25
   29F0 81                13991 	.db #0x81
   29F1 E8                13992 	.db #0xE8
   29F2 2A                13993 	.db #0x2A
   29F3 1B                13994 	.db #0x1B
   29F4 EB                13995 	.db #0xEB
   29F5 F8                13996 	.db #0xF8
   29F6 85                13997 	.db #0x85
   29F7 E1                13998 	.db #0xE1
   29F8 28                13999 	.db #0x28
   29F9 FF                14000 	.db #0xFF
   29FA A4                14001 	.db #0xA4
   29FB 34                14002 	.db #0x34
   29FC 09                14003 	.db #0x09
   29FD 91                14004 	.db #0x91
   29FE A7                14005 	.db #0xA7
   29FF 63                14006 	.db #0x63
   2A00 B8                14007 	.db #0xB8
   2A01 99                14008 	.db #0x99
   2A02 A1                14009 	.db #0xA1
   2A03 3F                14010 	.db #0x3F
   2A04 E4                14011 	.db #0xE4
   2A05 D0                14012 	.db #0xD0
   2A06 61                14013 	.db #0x61
   2A07 66                14014 	.db #0x66
   2A08 73                14015 	.db #0x73
   2A09 59                14016 	.db #0x59
   2A0A 7C                14017 	.db #0x7C
   2A0B 86                14018 	.db #0x86
   2A0C 04                14019 	.db #0x04
   2A0D 2F                14020 	.db #0x2F
   2A0E AC                14021 	.db #0xAC
   2A0F 85                14022 	.db #0x85
   2A10 17                14023 	.db #0x17
   2A11 D6                14024 	.db #0xD6
   2A12 A1                14025 	.db #0xA1
   2A13 03                14026 	.db #0x03
   2A14 CF                14027 	.db #0xCF
   2A15 27                14028 	.db #0x27
   2A16 E4                14029 	.db #0xE4
   2A17 F8                14030 	.db #0xF8
   2A18 27                14031 	.db #0x27
   2A19 89                14032 	.db #0x89
   2A1A 2C                14033 	.db #0x2C
   2A1B 30                14034 	.db #0x30
   2A1C 1B                14035 	.db #0x1B
   2A1D D4                14036 	.db #0xD4
   2A1E 93                14037 	.db #0x93
   2A1F D3                14038 	.db #0xD3
   2A20 6E                14039 	.db #0x6E
   2A21 35                14040 	.db #0x35
   2A22 13                14041 	.db #0x13
   2A23 53                14042 	.db #0x53
   2A24 05                14043 	.db #0x05
   2A25 75                14044 	.db #0x75
   2A26 B9                14045 	.db #0xB9
   2A27 79                14046 	.db #0x79
   2A28 CF                14047 	.db #0xCF
   2A29 36                14048 	.db #0x36
   2A2A 00                14049 	.db #0x00
   2A2B D4                14050 	.db #0xD4
   2A2C 2C                14051 	.db #0x2C
   2A2D C6                14052 	.db #0xC6
   2A2E 4E                14053 	.db #0x4E
   2A2F 2C                14054 	.db #0x2C
   2A30 12                14055 	.db #0x12
   2A31 E2                14056 	.db #0xE2
   2A32 15                14057 	.db #0x15
   2A33 8B                14058 	.db #0x8B
   2A34 AF                14059 	.db #0xAF
   2A35 3D                14060 	.db #0x3D
   2A36 EF                14061 	.db #0xEF
   2A37 6E                14062 	.db #0x6E
   2A38 F1                14063 	.db #0xF1
   2A39 BF                14064 	.db #0xBF
   2A3A D9                14065 	.db #0xD9
   2A3B 43                14066 	.db #0x43
   2A3C 17                14067 	.db #0x17
   2A3D 2B                14068 	.db #0x2B
   2A3E F3                14069 	.db #0xF3
   2A3F 12                14070 	.db #0x12
   2A40 C2                14071 	.db #0xC2
   2A41 CB                14072 	.db #0xCB
   2A42 8C                14073 	.db #0x8C
   2A43 3B                14074 	.db #0x3B
   2A44 43                14075 	.db #0x43
   2A45 F2                14076 	.db #0xF2
   2A46 DF                14077 	.db #0xDF
   2A47 5D                14078 	.db #0x5D
   2A48 F9                14079 	.db #0xF9
   2A49 EF                14080 	.db #0xEF
   2A4A 31                14081 	.db #0x31
   2A4B 6D                14082 	.db #0x6D
   2A4C 46                14083 	.db #0x46
   2A4D F6                14084 	.db #0xF6
   2A4E 7A                14085 	.db #0x7A
   2A4F EE                14086 	.db #0xEE
   2A50 17                14087 	.db #0x17
   2A51 35                14088 	.db #0x35
   2A52 F4                14089 	.db #0xF4
   2A53 DA                14090 	.db #0xDA
   2A54 FE                14091 	.db #0xFE
   2A55 7C                14092 	.db #0x7C
   2A56 28                14093 	.db #0x28
   2A57 B8                14094 	.db #0xB8
   2A58 55                14095 	.db #0x55
   2A59 12                14096 	.db #0x12
   2A5A 57                14097 	.db #0x57
   2A5B FF                14098 	.db #0xFF
   2A5C 82                14099 	.db #0x82
   2A5D BB                14100 	.db #0xBB
   2A5E 85                14101 	.db #0x85
   2A5F EF                14102 	.db #0xEF
   2A60 D4                14103 	.db #0xD4
   2A61 7C                14104 	.db #0x7C
   2A62 A1                14105 	.db #0xA1
   2A63 05                14106 	.db #0x05
   2A64 B4                14107 	.db #0xB4
   2A65 FF                14108 	.db #0xFF
   2A66 C1                14109 	.db #0xC1
   2A67 95                14110 	.db #0x95
   2A68 27                14111 	.db #0x27
   2A69 30                14112 	.db #0x30
   2A6A 03                14113 	.db #0x03
   2A6B                   14114 _data_barrow:
   2A6B 00                14115 	.db #0x00
   2A6C 00                14116 	.db #0x00
   2A6D E7                14117 	.db #0xE7
   2A6E E7                14118 	.db #0xE7
   2A6F 7E                14119 	.db #0x7E
   2A70 7E                14120 	.db #0x7E
   2A71 3C                14121 	.db #0x3C
   2A72 3C                14122 	.db #0x3C
   2A73 18                14123 	.db #0x18
   2A74 18                14124 	.db #0x18
   2A75 00                14125 	.db #0x00
   2A76 00                14126 	.db #0x00
   2A77 00                14127 	.db #0x00
   2A78 00                14128 	.db #0x00
   2A79 00                14129 	.db #0x00
   2A7A 00                14130 	.db #0x00
   2A7B                   14131 _data_larrow:
   2A7B C0                14132 	.db #0xC0
   2A7C C0                14133 	.db #0xC0
   2A7D E0                14134 	.db #0xE0
   2A7E E0                14135 	.db #0xE0
   2A7F 70                14136 	.db #0x70
   2A80 70                14137 	.db #0x70
   2A81 E0                14138 	.db #0xE0
   2A82 E0                14139 	.db #0xE0
   2A83 C0                14140 	.db #0xC0
   2A84 C0                14141 	.db #0xC0
   2A85 00                14142 	.db #0x00
   2A86 00                14143 	.db #0x00
   2A87 00                14144 	.db #0x00
   2A88 00                14145 	.db #0x00
   2A89 00                14146 	.db #0x00
   2A8A 00                14147 	.db #0x00
   2A8B                   14148 _data_font:
   2A8B 00                14149 	.db #0x00
   2A8C 00                14150 	.db #0x00
   2A8D 00                14151 	.db #0x00
   2A8E 00                14152 	.db #0x00
   2A8F 00                14153 	.db #0x00
   2A90 00                14154 	.db #0x00
   2A91 00                14155 	.db #0x00
   2A92 00                14156 	.db #0x00
   2A93 00                14157 	.db #0x00
   2A94 00                14158 	.db #0x00
   2A95 00                14159 	.db #0x00
   2A96 00                14160 	.db #0x00
   2A97 00                14161 	.db #0x00
   2A98 00                14162 	.db #0x00
   2A99 00                14163 	.db #0x00
   2A9A 00                14164 	.db #0x00
   2A9B FC                14165 	.db #0xFC
   2A9C FC                14166 	.db #0xFC
   2A9D C6                14167 	.db #0xC6
   2A9E C6                14168 	.db #0xC6
   2A9F E6                14169 	.db #0xE6
   2AA0 E6                14170 	.db #0xE6
   2AA1 D6                14171 	.db #0xD6
   2AA2 D6                14172 	.db #0xD6
   2AA3 CE                14173 	.db #0xCE
   2AA4 CE                14174 	.db #0xCE
   2AA5 C6                14175 	.db #0xC6
   2AA6 C6                14176 	.db #0xC6
   2AA7 7E                14177 	.db #0x7E
   2AA8 7E                14178 	.db #0x7E
   2AA9 00                14179 	.db #0x00
   2AAA 00                14180 	.db #0x00
   2AAB 38                14181 	.db #0x38
   2AAC 38                14182 	.db #0x38
   2AAD 18                14183 	.db #0x18
   2AAE 18                14184 	.db #0x18
   2AAF 18                14185 	.db #0x18
   2AB0 18                14186 	.db #0x18
   2AB1 18                14187 	.db #0x18
   2AB2 18                14188 	.db #0x18
   2AB3 18                14189 	.db #0x18
   2AB4 18                14190 	.db #0x18
   2AB5 18                14191 	.db #0x18
   2AB6 18                14192 	.db #0x18
   2AB7 08                14193 	.db #0x08
   2AB8 08                14194 	.db #0x08
   2AB9 00                14195 	.db #0x00
   2ABA 00                14196 	.db #0x00
   2ABB FC                14197 	.db #0xFC
   2ABC FC                14198 	.db #0xFC
   2ABD 06                14199 	.db #0x06
   2ABE 06                14200 	.db #0x06
   2ABF 06                14201 	.db #0x06
   2AC0 06                14202 	.db #0x06
   2AC1 FE                14203 	.db #0xFE
   2AC2 FE                14204 	.db #0xFE
   2AC3 C0                14205 	.db #0xC0
   2AC4 C0                14206 	.db #0xC0
   2AC5 C0                14207 	.db #0xC0
   2AC6 C0                14208 	.db #0xC0
   2AC7 7C                14209 	.db #0x7C
   2AC8 7C                14210 	.db #0x7C
   2AC9 00                14211 	.db #0x00
   2ACA 00                14212 	.db #0x00
   2ACB FC                14213 	.db #0xFC
   2ACC FC                14214 	.db #0xFC
   2ACD 06                14215 	.db #0x06
   2ACE 06                14216 	.db #0x06
   2ACF 06                14217 	.db #0x06
   2AD0 06                14218 	.db #0x06
   2AD1 3E                14219 	.db #0x3E
   2AD2 3E                14220 	.db #0x3E
   2AD3 06                14221 	.db #0x06
   2AD4 06                14222 	.db #0x06
   2AD5 06                14223 	.db #0x06
   2AD6 06                14224 	.db #0x06
   2AD7 FC                14225 	.db #0xFC
   2AD8 FC                14226 	.db #0xFC
   2AD9 00                14227 	.db #0x00
   2ADA 00                14228 	.db #0x00
   2ADB C6                14229 	.db #0xC6
   2ADC C6                14230 	.db #0xC6
   2ADD C6                14231 	.db #0xC6
   2ADE C6                14232 	.db #0xC6
   2ADF C6                14233 	.db #0xC6
   2AE0 C6                14234 	.db #0xC6
   2AE1 7E                14235 	.db #0x7E
   2AE2 7E                14236 	.db #0x7E
   2AE3 06                14237 	.db #0x06
   2AE4 06                14238 	.db #0x06
   2AE5 06                14239 	.db #0x06
   2AE6 06                14240 	.db #0x06
   2AE7 02                14241 	.db #0x02
   2AE8 02                14242 	.db #0x02
   2AE9 00                14243 	.db #0x00
   2AEA 00                14244 	.db #0x00
   2AEB FE                14245 	.db #0xFE
   2AEC FE                14246 	.db #0xFE
   2AED C0                14247 	.db #0xC0
   2AEE C0                14248 	.db #0xC0
   2AEF C0                14249 	.db #0xC0
   2AF0 C0                14250 	.db #0xC0
   2AF1 FE                14251 	.db #0xFE
   2AF2 FE                14252 	.db #0xFE
   2AF3 06                14253 	.db #0x06
   2AF4 06                14254 	.db #0x06
   2AF5 06                14255 	.db #0x06
   2AF6 06                14256 	.db #0x06
   2AF7 FE                14257 	.db #0xFE
   2AF8 FE                14258 	.db #0xFE
   2AF9 00                14259 	.db #0x00
   2AFA 00                14260 	.db #0x00
   2AFB 7E                14261 	.db #0x7E
   2AFC 7E                14262 	.db #0x7E
   2AFD C0                14263 	.db #0xC0
   2AFE C0                14264 	.db #0xC0
   2AFF FE                14265 	.db #0xFE
   2B00 FE                14266 	.db #0xFE
   2B01 C6                14267 	.db #0xC6
   2B02 C6                14268 	.db #0xC6
   2B03 C6                14269 	.db #0xC6
   2B04 C6                14270 	.db #0xC6
   2B05 C6                14271 	.db #0xC6
   2B06 C6                14272 	.db #0xC6
   2B07 FC                14273 	.db #0xFC
   2B08 FC                14274 	.db #0xFC
   2B09 00                14275 	.db #0x00
   2B0A 00                14276 	.db #0x00
   2B0B FE                14277 	.db #0xFE
   2B0C FE                14278 	.db #0xFE
   2B0D 06                14279 	.db #0x06
   2B0E 06                14280 	.db #0x06
   2B0F 0E                14281 	.db #0x0E
   2B10 0E                14282 	.db #0x0E
   2B11 1C                14283 	.db #0x1C
   2B12 1C                14284 	.db #0x1C
   2B13 18                14285 	.db #0x18
   2B14 18                14286 	.db #0x18
   2B15 18                14287 	.db #0x18
   2B16 18                14288 	.db #0x18
   2B17 08                14289 	.db #0x08
   2B18 08                14290 	.db #0x08
   2B19 00                14291 	.db #0x00
   2B1A 00                14292 	.db #0x00
   2B1B FC                14293 	.db #0xFC
   2B1C FC                14294 	.db #0xFC
   2B1D C6                14295 	.db #0xC6
   2B1E C6                14296 	.db #0xC6
   2B1F C6                14297 	.db #0xC6
   2B20 C6                14298 	.db #0xC6
   2B21 FE                14299 	.db #0xFE
   2B22 FE                14300 	.db #0xFE
   2B23 C6                14301 	.db #0xC6
   2B24 C6                14302 	.db #0xC6
   2B25 C6                14303 	.db #0xC6
   2B26 C6                14304 	.db #0xC6
   2B27 7E                14305 	.db #0x7E
   2B28 7E                14306 	.db #0x7E
   2B29 00                14307 	.db #0x00
   2B2A 00                14308 	.db #0x00
   2B2B FC                14309 	.db #0xFC
   2B2C FC                14310 	.db #0xFC
   2B2D C6                14311 	.db #0xC6
   2B2E C6                14312 	.db #0xC6
   2B2F C6                14313 	.db #0xC6
   2B30 C6                14314 	.db #0xC6
   2B31 FE                14315 	.db #0xFE
   2B32 FE                14316 	.db #0xFE
   2B33 06                14317 	.db #0x06
   2B34 06                14318 	.db #0x06
   2B35 06                14319 	.db #0x06
   2B36 06                14320 	.db #0x06
   2B37 0C                14321 	.db #0x0C
   2B38 0C                14322 	.db #0x0C
   2B39 00                14323 	.db #0x00
   2B3A 00                14324 	.db #0x00
   2B3B 7E                14325 	.db #0x7E
   2B3C 7E                14326 	.db #0x7E
   2B3D C6                14327 	.db #0xC6
   2B3E C6                14328 	.db #0xC6
   2B3F FE                14329 	.db #0xFE
   2B40 FE                14330 	.db #0xFE
   2B41 C6                14331 	.db #0xC6
   2B42 C6                14332 	.db #0xC6
   2B43 C6                14333 	.db #0xC6
   2B44 C6                14334 	.db #0xC6
   2B45 C6                14335 	.db #0xC6
   2B46 C6                14336 	.db #0xC6
   2B47 82                14337 	.db #0x82
   2B48 82                14338 	.db #0x82
   2B49 00                14339 	.db #0x00
   2B4A 00                14340 	.db #0x00
   2B4B FC                14341 	.db #0xFC
   2B4C FC                14342 	.db #0xFC
   2B4D C6                14343 	.db #0xC6
   2B4E C6                14344 	.db #0xC6
   2B4F FC                14345 	.db #0xFC
   2B50 FC                14346 	.db #0xFC
   2B51 C6                14347 	.db #0xC6
   2B52 C6                14348 	.db #0xC6
   2B53 C6                14349 	.db #0xC6
   2B54 C6                14350 	.db #0xC6
   2B55 C6                14351 	.db #0xC6
   2B56 C6                14352 	.db #0xC6
   2B57 FC                14353 	.db #0xFC
   2B58 FC                14354 	.db #0xFC
   2B59 00                14355 	.db #0x00
   2B5A 00                14356 	.db #0x00
   2B5B 7E                14357 	.db #0x7E
   2B5C 7E                14358 	.db #0x7E
   2B5D C0                14359 	.db #0xC0
   2B5E C0                14360 	.db #0xC0
   2B5F C0                14361 	.db #0xC0
   2B60 C0                14362 	.db #0xC0
   2B61 C0                14363 	.db #0xC0
   2B62 C0                14364 	.db #0xC0
   2B63 C0                14365 	.db #0xC0
   2B64 C0                14366 	.db #0xC0
   2B65 C0                14367 	.db #0xC0
   2B66 C0                14368 	.db #0xC0
   2B67 7E                14369 	.db #0x7E
   2B68 7E                14370 	.db #0x7E
   2B69 00                14371 	.db #0x00
   2B6A 00                14372 	.db #0x00
   2B6B F8                14373 	.db #0xF8
   2B6C F8                14374 	.db #0xF8
   2B6D C6                14375 	.db #0xC6
   2B6E C6                14376 	.db #0xC6
   2B6F C6                14377 	.db #0xC6
   2B70 C6                14378 	.db #0xC6
   2B71 C6                14379 	.db #0xC6
   2B72 C6                14380 	.db #0xC6
   2B73 C6                14381 	.db #0xC6
   2B74 C6                14382 	.db #0xC6
   2B75 C6                14383 	.db #0xC6
   2B76 C6                14384 	.db #0xC6
   2B77 F8                14385 	.db #0xF8
   2B78 F8                14386 	.db #0xF8
   2B79 00                14387 	.db #0x00
   2B7A 00                14388 	.db #0x00
   2B7B 7E                14389 	.db #0x7E
   2B7C 7E                14390 	.db #0x7E
   2B7D C0                14391 	.db #0xC0
   2B7E C0                14392 	.db #0xC0
   2B7F C0                14393 	.db #0xC0
   2B80 C0                14394 	.db #0xC0
   2B81 F8                14395 	.db #0xF8
   2B82 F8                14396 	.db #0xF8
   2B83 C0                14397 	.db #0xC0
   2B84 C0                14398 	.db #0xC0
   2B85 C0                14399 	.db #0xC0
   2B86 C0                14400 	.db #0xC0
   2B87 7E                14401 	.db #0x7E
   2B88 7E                14402 	.db #0x7E
   2B89 00                14403 	.db #0x00
   2B8A 00                14404 	.db #0x00
   2B8B 7E                14405 	.db #0x7E
   2B8C 7E                14406 	.db #0x7E
   2B8D C0                14407 	.db #0xC0
   2B8E C0                14408 	.db #0xC0
   2B8F C0                14409 	.db #0xC0
   2B90 C0                14410 	.db #0xC0
   2B91 F8                14411 	.db #0xF8
   2B92 F8                14412 	.db #0xF8
   2B93 C0                14413 	.db #0xC0
   2B94 C0                14414 	.db #0xC0
   2B95 C0                14415 	.db #0xC0
   2B96 C0                14416 	.db #0xC0
   2B97 40                14417 	.db #0x40
   2B98 40                14418 	.db #0x40
   2B99 00                14419 	.db #0x00
   2B9A 00                14420 	.db #0x00
   2B9B 7C                14421 	.db #0x7C
   2B9C 7C                14422 	.db #0x7C
   2B9D C0                14423 	.db #0xC0
   2B9E C0                14424 	.db #0xC0
   2B9F CE                14425 	.db #0xCE
   2BA0 CE                14426 	.db #0xCE
   2BA1 C6                14427 	.db #0xC6
   2BA2 C6                14428 	.db #0xC6
   2BA3 C6                14429 	.db #0xC6
   2BA4 C6                14430 	.db #0xC6
   2BA5 C6                14431 	.db #0xC6
   2BA6 C6                14432 	.db #0xC6
   2BA7 7C                14433 	.db #0x7C
   2BA8 7C                14434 	.db #0x7C
   2BA9 00                14435 	.db #0x00
   2BAA 00                14436 	.db #0x00
   2BAB C4                14437 	.db #0xC4
   2BAC C4                14438 	.db #0xC4
   2BAD C6                14439 	.db #0xC6
   2BAE C6                14440 	.db #0xC6
   2BAF FE                14441 	.db #0xFE
   2BB0 FE                14442 	.db #0xFE
   2BB1 C6                14443 	.db #0xC6
   2BB2 C6                14444 	.db #0xC6
   2BB3 C6                14445 	.db #0xC6
   2BB4 C6                14446 	.db #0xC6
   2BB5 C6                14447 	.db #0xC6
   2BB6 C6                14448 	.db #0xC6
   2BB7 46                14449 	.db #0x46
   2BB8 46                14450 	.db #0x46
   2BB9 00                14451 	.db #0x00
   2BBA 00                14452 	.db #0x00
   2BBB FE                14453 	.db #0xFE
   2BBC FE                14454 	.db #0xFE
   2BBD 30                14455 	.db #0x30
   2BBE 30                14456 	.db #0x30
   2BBF 30                14457 	.db #0x30
   2BC0 30                14458 	.db #0x30
   2BC1 30                14459 	.db #0x30
   2BC2 30                14460 	.db #0x30
   2BC3 30                14461 	.db #0x30
   2BC4 30                14462 	.db #0x30
   2BC5 30                14463 	.db #0x30
   2BC6 30                14464 	.db #0x30
   2BC7 FE                14465 	.db #0xFE
   2BC8 FE                14466 	.db #0xFE
   2BC9 00                14467 	.db #0x00
   2BCA 00                14468 	.db #0x00
   2BCB 06                14469 	.db #0x06
   2BCC 06                14470 	.db #0x06
   2BCD 06                14471 	.db #0x06
   2BCE 06                14472 	.db #0x06
   2BCF 06                14473 	.db #0x06
   2BD0 06                14474 	.db #0x06
   2BD1 06                14475 	.db #0x06
   2BD2 06                14476 	.db #0x06
   2BD3 06                14477 	.db #0x06
   2BD4 06                14478 	.db #0x06
   2BD5 06                14479 	.db #0x06
   2BD6 06                14480 	.db #0x06
   2BD7 FC                14481 	.db #0xFC
   2BD8 FC                14482 	.db #0xFC
   2BD9 00                14483 	.db #0x00
   2BDA 00                14484 	.db #0x00
   2BDB C6                14485 	.db #0xC6
   2BDC C6                14486 	.db #0xC6
   2BDD CC                14487 	.db #0xCC
   2BDE CC                14488 	.db #0xCC
   2BDF F8                14489 	.db #0xF8
   2BE0 F8                14490 	.db #0xF8
   2BE1 C6                14491 	.db #0xC6
   2BE2 C6                14492 	.db #0xC6
   2BE3 C6                14493 	.db #0xC6
   2BE4 C6                14494 	.db #0xC6
   2BE5 C6                14495 	.db #0xC6
   2BE6 C6                14496 	.db #0xC6
   2BE7 46                14497 	.db #0x46
   2BE8 46                14498 	.db #0x46
   2BE9 00                14499 	.db #0x00
   2BEA 00                14500 	.db #0x00
   2BEB C0                14501 	.db #0xC0
   2BEC C0                14502 	.db #0xC0
   2BED C0                14503 	.db #0xC0
   2BEE C0                14504 	.db #0xC0
   2BEF C0                14505 	.db #0xC0
   2BF0 C0                14506 	.db #0xC0
   2BF1 C0                14507 	.db #0xC0
   2BF2 C0                14508 	.db #0xC0
   2BF3 C0                14509 	.db #0xC0
   2BF4 C0                14510 	.db #0xC0
   2BF5 C0                14511 	.db #0xC0
   2BF6 C0                14512 	.db #0xC0
   2BF7 7E                14513 	.db #0x7E
   2BF8 7E                14514 	.db #0x7E
   2BF9 00                14515 	.db #0x00
   2BFA 00                14516 	.db #0x00
   2BFB C6                14517 	.db #0xC6
   2BFC C6                14518 	.db #0xC6
   2BFD EE                14519 	.db #0xEE
   2BFE EE                14520 	.db #0xEE
   2BFF D6                14521 	.db #0xD6
   2C00 D6                14522 	.db #0xD6
   2C01 C6                14523 	.db #0xC6
   2C02 C6                14524 	.db #0xC6
   2C03 C6                14525 	.db #0xC6
   2C04 C6                14526 	.db #0xC6
   2C05 C6                14527 	.db #0xC6
   2C06 C6                14528 	.db #0xC6
   2C07 82                14529 	.db #0x82
   2C08 82                14530 	.db #0x82
   2C09 00                14531 	.db #0x00
   2C0A 00                14532 	.db #0x00
   2C0B FC                14533 	.db #0xFC
   2C0C FC                14534 	.db #0xFC
   2C0D C6                14535 	.db #0xC6
   2C0E C6                14536 	.db #0xC6
   2C0F C6                14537 	.db #0xC6
   2C10 C6                14538 	.db #0xC6
   2C11 C6                14539 	.db #0xC6
   2C12 C6                14540 	.db #0xC6
   2C13 C6                14541 	.db #0xC6
   2C14 C6                14542 	.db #0xC6
   2C15 C6                14543 	.db #0xC6
   2C16 C6                14544 	.db #0xC6
   2C17 82                14545 	.db #0x82
   2C18 82                14546 	.db #0x82
   2C19 00                14547 	.db #0x00
   2C1A 00                14548 	.db #0x00
   2C1B 7C                14549 	.db #0x7C
   2C1C 7C                14550 	.db #0x7C
   2C1D C6                14551 	.db #0xC6
   2C1E C6                14552 	.db #0xC6
   2C1F C6                14553 	.db #0xC6
   2C20 C6                14554 	.db #0xC6
   2C21 C6                14555 	.db #0xC6
   2C22 C6                14556 	.db #0xC6
   2C23 C6                14557 	.db #0xC6
   2C24 C6                14558 	.db #0xC6
   2C25 C6                14559 	.db #0xC6
   2C26 C6                14560 	.db #0xC6
   2C27 7C                14561 	.db #0x7C
   2C28 7C                14562 	.db #0x7C
   2C29 00                14563 	.db #0x00
   2C2A 00                14564 	.db #0x00
   2C2B 7E                14565 	.db #0x7E
   2C2C 7E                14566 	.db #0x7E
   2C2D C6                14567 	.db #0xC6
   2C2E C6                14568 	.db #0xC6
   2C2F C6                14569 	.db #0xC6
   2C30 C6                14570 	.db #0xC6
   2C31 C6                14571 	.db #0xC6
   2C32 C6                14572 	.db #0xC6
   2C33 FC                14573 	.db #0xFC
   2C34 FC                14574 	.db #0xFC
   2C35 C0                14575 	.db #0xC0
   2C36 C0                14576 	.db #0xC0
   2C37 40                14577 	.db #0x40
   2C38 40                14578 	.db #0x40
   2C39 00                14579 	.db #0x00
   2C3A 00                14580 	.db #0x00
   2C3B 7E                14581 	.db #0x7E
   2C3C 7E                14582 	.db #0x7E
   2C3D C6                14583 	.db #0xC6
   2C3E C6                14584 	.db #0xC6
   2C3F C6                14585 	.db #0xC6
   2C40 C6                14586 	.db #0xC6
   2C41 C6                14587 	.db #0xC6
   2C42 C6                14588 	.db #0xC6
   2C43 7E                14589 	.db #0x7E
   2C44 7E                14590 	.db #0x7E
   2C45 06                14591 	.db #0x06
   2C46 06                14592 	.db #0x06
   2C47 06                14593 	.db #0x06
   2C48 06                14594 	.db #0x06
   2C49 00                14595 	.db #0x00
   2C4A 00                14596 	.db #0x00
   2C4B FE                14597 	.db #0xFE
   2C4C FE                14598 	.db #0xFE
   2C4D C6                14599 	.db #0xC6
   2C4E C6                14600 	.db #0xC6
   2C4F C6                14601 	.db #0xC6
   2C50 C6                14602 	.db #0xC6
   2C51 F8                14603 	.db #0xF8
   2C52 F8                14604 	.db #0xF8
   2C53 C6                14605 	.db #0xC6
   2C54 C6                14606 	.db #0xC6
   2C55 C6                14607 	.db #0xC6
   2C56 C6                14608 	.db #0xC6
   2C57 46                14609 	.db #0x46
   2C58 46                14610 	.db #0x46
   2C59 00                14611 	.db #0x00
   2C5A 00                14612 	.db #0x00
   2C5B 7E                14613 	.db #0x7E
   2C5C 7E                14614 	.db #0x7E
   2C5D C0                14615 	.db #0xC0
   2C5E C0                14616 	.db #0xC0
   2C5F C0                14617 	.db #0xC0
   2C60 C0                14618 	.db #0xC0
   2C61 7C                14619 	.db #0x7C
   2C62 7C                14620 	.db #0x7C
   2C63 06                14621 	.db #0x06
   2C64 06                14622 	.db #0x06
   2C65 06                14623 	.db #0x06
   2C66 06                14624 	.db #0x06
   2C67 FC                14625 	.db #0xFC
   2C68 FC                14626 	.db #0xFC
   2C69 00                14627 	.db #0x00
   2C6A 00                14628 	.db #0x00
   2C6B FE                14629 	.db #0xFE
   2C6C FE                14630 	.db #0xFE
   2C6D 18                14631 	.db #0x18
   2C6E 18                14632 	.db #0x18
   2C6F 18                14633 	.db #0x18
   2C70 18                14634 	.db #0x18
   2C71 18                14635 	.db #0x18
   2C72 18                14636 	.db #0x18
   2C73 18                14637 	.db #0x18
   2C74 18                14638 	.db #0x18
   2C75 18                14639 	.db #0x18
   2C76 18                14640 	.db #0x18
   2C77 08                14641 	.db #0x08
   2C78 08                14642 	.db #0x08
   2C79 00                14643 	.db #0x00
   2C7A 00                14644 	.db #0x00
   2C7B 46                14645 	.db #0x46
   2C7C 46                14646 	.db #0x46
   2C7D C6                14647 	.db #0xC6
   2C7E C6                14648 	.db #0xC6
   2C7F C6                14649 	.db #0xC6
   2C80 C6                14650 	.db #0xC6
   2C81 C6                14651 	.db #0xC6
   2C82 C6                14652 	.db #0xC6
   2C83 C6                14653 	.db #0xC6
   2C84 C6                14654 	.db #0xC6
   2C85 C6                14655 	.db #0xC6
   2C86 C6                14656 	.db #0xC6
   2C87 FC                14657 	.db #0xFC
   2C88 FC                14658 	.db #0xFC
   2C89 00                14659 	.db #0x00
   2C8A 00                14660 	.db #0x00
   2C8B 82                14661 	.db #0x82
   2C8C 82                14662 	.db #0x82
   2C8D C6                14663 	.db #0xC6
   2C8E C6                14664 	.db #0xC6
   2C8F C6                14665 	.db #0xC6
   2C90 C6                14666 	.db #0xC6
   2C91 C6                14667 	.db #0xC6
   2C92 C6                14668 	.db #0xC6
   2C93 C6                14669 	.db #0xC6
   2C94 C6                14670 	.db #0xC6
   2C95 6C                14671 	.db #0x6C
   2C96 6C                14672 	.db #0x6C
   2C97 10                14673 	.db #0x10
   2C98 10                14674 	.db #0x10
   2C99 00                14675 	.db #0x00
   2C9A 00                14676 	.db #0x00
   2C9B 82                14677 	.db #0x82
   2C9C 82                14678 	.db #0x82
   2C9D C6                14679 	.db #0xC6
   2C9E C6                14680 	.db #0xC6
   2C9F C6                14681 	.db #0xC6
   2CA0 C6                14682 	.db #0xC6
   2CA1 C6                14683 	.db #0xC6
   2CA2 C6                14684 	.db #0xC6
   2CA3 D6                14685 	.db #0xD6
   2CA4 D6                14686 	.db #0xD6
   2CA5 EE                14687 	.db #0xEE
   2CA6 EE                14688 	.db #0xEE
   2CA7 44                14689 	.db #0x44
   2CA8 44                14690 	.db #0x44
   2CA9 00                14691 	.db #0x00
   2CAA 00                14692 	.db #0x00
   2CAB C6                14693 	.db #0xC6
   2CAC C6                14694 	.db #0xC6
   2CAD EE                14695 	.db #0xEE
   2CAE EE                14696 	.db #0xEE
   2CAF 6C                14697 	.db #0x6C
   2CB0 6C                14698 	.db #0x6C
   2CB1 38                14699 	.db #0x38
   2CB2 38                14700 	.db #0x38
   2CB3 6C                14701 	.db #0x6C
   2CB4 6C                14702 	.db #0x6C
   2CB5 EE                14703 	.db #0xEE
   2CB6 EE                14704 	.db #0xEE
   2CB7 C6                14705 	.db #0xC6
   2CB8 C6                14706 	.db #0xC6
   2CB9 00                14707 	.db #0x00
   2CBA 00                14708 	.db #0x00
   2CBB C6                14709 	.db #0xC6
   2CBC C6                14710 	.db #0xC6
   2CBD C6                14711 	.db #0xC6
   2CBE C6                14712 	.db #0xC6
   2CBF C6                14713 	.db #0xC6
   2CC0 C6                14714 	.db #0xC6
   2CC1 7E                14715 	.db #0x7E
   2CC2 7E                14716 	.db #0x7E
   2CC3 0C                14717 	.db #0x0C
   2CC4 0C                14718 	.db #0x0C
   2CC5 18                14719 	.db #0x18
   2CC6 18                14720 	.db #0x18
   2CC7 30                14721 	.db #0x30
   2CC8 30                14722 	.db #0x30
   2CC9 00                14723 	.db #0x00
   2CCA 00                14724 	.db #0x00
   2CCB FE                14725 	.db #0xFE
   2CCC FE                14726 	.db #0xFE
   2CCD 0E                14727 	.db #0x0E
   2CCE 0E                14728 	.db #0x0E
   2CCF 1C                14729 	.db #0x1C
   2CD0 1C                14730 	.db #0x1C
   2CD1 38                14731 	.db #0x38
   2CD2 38                14732 	.db #0x38
   2CD3 70                14733 	.db #0x70
   2CD4 70                14734 	.db #0x70
   2CD5 E0                14735 	.db #0xE0
   2CD6 E0                14736 	.db #0xE0
   2CD7 FE                14737 	.db #0xFE
   2CD8 FE                14738 	.db #0xFE
   2CD9 00                14739 	.db #0x00
   2CDA 00                14740 	.db #0x00
   2CDB 82                14741 	.db #0x82
   2CDC 82                14742 	.db #0x82
   2CDD 44                14743 	.db #0x44
   2CDE 44                14744 	.db #0x44
   2CDF 28                14745 	.db #0x28
   2CE0 28                14746 	.db #0x28
   2CE1 10                14747 	.db #0x10
   2CE2 10                14748 	.db #0x10
   2CE3 28                14749 	.db #0x28
   2CE4 28                14750 	.db #0x28
   2CE5 44                14751 	.db #0x44
   2CE6 44                14752 	.db #0x44
   2CE7 82                14753 	.db #0x82
   2CE8 82                14754 	.db #0x82
   2CE9 00                14755 	.db #0x00
   2CEA 00                14756 	.db #0x00
   2CEB 00                14757 	.db #0x00
   2CEC 00                14758 	.db #0x00
   2CED 38                14759 	.db #0x38
   2CEE 38                14760 	.db #0x38
   2CEF 7C                14761 	.db #0x7C
   2CF0 7C                14762 	.db #0x7C
   2CF1 7C                14763 	.db #0x7C
   2CF2 7C                14764 	.db #0x7C
   2CF3 7C                14765 	.db #0x7C
   2CF4 7C                14766 	.db #0x7C
   2CF5 38                14767 	.db #0x38
   2CF6 38                14768 	.db #0x38
   2CF7 00                14769 	.db #0x00
   2CF8 00                14770 	.db #0x00
   2CF9 00                14771 	.db #0x00
   2CFA 00                14772 	.db #0x00
   2CFB 08                14773 	.db #0x08
   2CFC 08                14774 	.db #0x08
   2CFD 14                14775 	.db #0x14
   2CFE 14                14776 	.db #0x14
   2CFF 22                14777 	.db #0x22
   2D00 22                14778 	.db #0x22
   2D01 41                14779 	.db #0x41
   2D02 41                14780 	.db #0x41
   2D03 80                14781 	.db #0x80
   2D04 80                14782 	.db #0x80
   2D05 00                14783 	.db #0x00
   2D06 00                14784 	.db #0x00
   2D07 00                14785 	.db #0x00
   2D08 00                14786 	.db #0x00
   2D09 00                14787 	.db #0x00
   2D0A 00                14788 	.db #0x00
   2D0B 18                14789 	.db #0x18
   2D0C 18                14790 	.db #0x18
   2D0D 24                14791 	.db #0x24
   2D0E 24                14792 	.db #0x24
   2D0F 24                14793 	.db #0x24
   2D10 24                14794 	.db #0x24
   2D11 42                14795 	.db #0x42
   2D12 42                14796 	.db #0x42
   2D13 81                14797 	.db #0x81
   2D14 81                14798 	.db #0x81
   2D15 00                14799 	.db #0x00
   2D16 00                14800 	.db #0x00
   2D17 00                14801 	.db #0x00
   2D18 00                14802 	.db #0x00
   2D19 00                14803 	.db #0x00
   2D1A 00                14804 	.db #0x00
   2D1B 0C                14805 	.db #0x0C
   2D1C 0C                14806 	.db #0x0C
   2D1D 14                14807 	.db #0x14
   2D1E 14                14808 	.db #0x14
   2D1F 24                14809 	.db #0x24
   2D20 24                14810 	.db #0x24
   2D21 44                14811 	.db #0x44
   2D22 44                14812 	.db #0x44
   2D23 87                14813 	.db #0x87
   2D24 87                14814 	.db #0x87
   2D25 00                14815 	.db #0x00
   2D26 00                14816 	.db #0x00
   2D27 00                14817 	.db #0x00
   2D28 00                14818 	.db #0x00
   2D29 00                14819 	.db #0x00
   2D2A 00                14820 	.db #0x00
   2D2B 03                14821 	.db #0x03
   2D2C 03                14822 	.db #0x03
   2D2D 0D                14823 	.db #0x0D
   2D2E 0D                14824 	.db #0x0D
   2D2F 31                14825 	.db #0x31
   2D30 31                14826 	.db #0x31
   2D31 C1                14827 	.db #0xC1
   2D32 C1                14828 	.db #0xC1
   2D33 01                14829 	.db #0x01
   2D34 01                14830 	.db #0x01
   2D35 00                14831 	.db #0x00
   2D36 00                14832 	.db #0x00
   2D37 00                14833 	.db #0x00
   2D38 00                14834 	.db #0x00
   2D39 00                14835 	.db #0x00
   2D3A 00                14836 	.db #0x00
   2D3B 00                14837 	.db #0x00
   2D3C 00                14838 	.db #0x00
   2D3D 80                14839 	.db #0x80
   2D3E 80                14840 	.db #0x80
   2D3F 80                14841 	.db #0x80
   2D40 80                14842 	.db #0x80
   2D41 80                14843 	.db #0x80
   2D42 80                14844 	.db #0x80
   2D43 80                14845 	.db #0x80
   2D44 80                14846 	.db #0x80
   2D45 FF                14847 	.db #0xFF
   2D46 FF                14848 	.db #0xFF
   2D47 00                14849 	.db #0x00
   2D48 00                14850 	.db #0x00
   2D49 00                14851 	.db #0x00
   2D4A 00                14852 	.db #0x00
   2D4B 00                14853 	.db #0x00
   2D4C 00                14854 	.db #0x00
   2D4D C0                14855 	.db #0xC0
   2D4E C0                14856 	.db #0xC0
   2D4F 40                14857 	.db #0x40
   2D50 40                14858 	.db #0x40
   2D51 40                14859 	.db #0x40
   2D52 40                14860 	.db #0x40
   2D53 40                14861 	.db #0x40
   2D54 40                14862 	.db #0x40
   2D55 7F                14863 	.db #0x7F
   2D56 7F                14864 	.db #0x7F
   2D57 00                14865 	.db #0x00
   2D58 00                14866 	.db #0x00
   2D59 00                14867 	.db #0x00
   2D5A 00                14868 	.db #0x00
   2D5B 00                14869 	.db #0x00
   2D5C 00                14870 	.db #0x00
   2D5D E0                14871 	.db #0xE0
   2D5E E0                14872 	.db #0xE0
   2D5F 20                14873 	.db #0x20
   2D60 20                14874 	.db #0x20
   2D61 20                14875 	.db #0x20
   2D62 20                14876 	.db #0x20
   2D63 20                14877 	.db #0x20
   2D64 20                14878 	.db #0x20
   2D65 3F                14879 	.db #0x3F
   2D66 3F                14880 	.db #0x3F
   2D67 00                14881 	.db #0x00
   2D68 00                14882 	.db #0x00
   2D69 00                14883 	.db #0x00
   2D6A 00                14884 	.db #0x00
   2D6B 00                14885 	.db #0x00
   2D6C 00                14886 	.db #0x00
   2D6D F0                14887 	.db #0xF0
   2D6E F0                14888 	.db #0xF0
   2D6F 10                14889 	.db #0x10
   2D70 10                14890 	.db #0x10
   2D71 10                14891 	.db #0x10
   2D72 10                14892 	.db #0x10
   2D73 10                14893 	.db #0x10
   2D74 10                14894 	.db #0x10
   2D75 1F                14895 	.db #0x1F
   2D76 1F                14896 	.db #0x1F
   2D77 00                14897 	.db #0x00
   2D78 00                14898 	.db #0x00
   2D79 00                14899 	.db #0x00
   2D7A 00                14900 	.db #0x00
   2D7B 00                14901 	.db #0x00
   2D7C 00                14902 	.db #0x00
   2D7D FC                14903 	.db #0xFC
   2D7E FC                14904 	.db #0xFC
   2D7F 04                14905 	.db #0x04
   2D80 04                14906 	.db #0x04
   2D81 04                14907 	.db #0x04
   2D82 04                14908 	.db #0x04
   2D83 04                14909 	.db #0x04
   2D84 04                14910 	.db #0x04
   2D85 07                14911 	.db #0x07
   2D86 07                14912 	.db #0x07
   2D87 00                14913 	.db #0x00
   2D88 00                14914 	.db #0x00
   2D89 00                14915 	.db #0x00
   2D8A 00                14916 	.db #0x00
   2D8B 00                14917 	.db #0x00
   2D8C 00                14918 	.db #0x00
   2D8D 90                14919 	.db #0x90
   2D8E 90                14920 	.db #0x90
   2D8F 0D                14921 	.db #0x0D
   2D90 0D                14922 	.db #0x0D
   2D91 42                14923 	.db #0x42
   2D92 42                14924 	.db #0x42
   2D93 A9                14925 	.db #0xA9
   2D94 A9                14926 	.db #0xA9
   2D95 04                14927 	.db #0x04
   2D96 04                14928 	.db #0x04
   2D97 00                14929 	.db #0x00
   2D98 00                14930 	.db #0x00
   2D99 00                14931 	.db #0x00
   2D9A 00                14932 	.db #0x00
   2D9B 00                14933 	.db #0x00
   2D9C 00                14934 	.db #0x00
   2D9D 00                14935 	.db #0x00
   2D9E 00                14936 	.db #0x00
   2D9F 80                14937 	.db #0x80
   2DA0 80                14938 	.db #0x80
   2DA1 80                14939 	.db #0x80
   2DA2 80                14940 	.db #0x80
   2DA3 80                14941 	.db #0x80
   2DA4 80                14942 	.db #0x80
   2DA5 FF                14943 	.db #0xFF
   2DA6 FF                14944 	.db #0xFF
   2DA7 7F                14945 	.db #0x7F
   2DA8 7F                14946 	.db #0x7F
   2DA9 00                14947 	.db #0x00
   2DAA 00                14948 	.db #0x00
   2DAB 00                14949 	.db #0x00
   2DAC 00                14950 	.db #0x00
   2DAD 80                14951 	.db #0x80
   2DAE 80                14952 	.db #0x80
   2DAF 80                14953 	.db #0x80
   2DB0 80                14954 	.db #0x80
   2DB1 80                14955 	.db #0x80
   2DB2 80                14956 	.db #0x80
   2DB3 C0                14957 	.db #0xC0
   2DB4 C0                14958 	.db #0xC0
   2DB5 FF                14959 	.db #0xFF
   2DB6 FF                14960 	.db #0xFF
   2DB7 7F                14961 	.db #0x7F
   2DB8 7F                14962 	.db #0x7F
   2DB9 00                14963 	.db #0x00
   2DBA 00                14964 	.db #0x00
   2DBB 00                14965 	.db #0x00
   2DBC 00                14966 	.db #0x00
   2DBD 80                14967 	.db #0x80
   2DBE 80                14968 	.db #0x80
   2DBF 80                14969 	.db #0x80
   2DC0 80                14970 	.db #0x80
   2DC1 C0                14971 	.db #0xC0
   2DC2 C0                14972 	.db #0xC0
   2DC3 E0                14973 	.db #0xE0
   2DC4 E0                14974 	.db #0xE0
   2DC5 FF                14975 	.db #0xFF
   2DC6 FF                14976 	.db #0xFF
   2DC7 7F                14977 	.db #0x7F
   2DC8 7F                14978 	.db #0x7F
   2DC9 00                14979 	.db #0x00
   2DCA 00                14980 	.db #0x00
   2DCB 00                14981 	.db #0x00
   2DCC 00                14982 	.db #0x00
   2DCD 80                14983 	.db #0x80
   2DCE 80                14984 	.db #0x80
   2DCF C0                14985 	.db #0xC0
   2DD0 C0                14986 	.db #0xC0
   2DD1 E0                14987 	.db #0xE0
   2DD2 E0                14988 	.db #0xE0
   2DD3 F0                14989 	.db #0xF0
   2DD4 F0                14990 	.db #0xF0
   2DD5 FF                14991 	.db #0xFF
   2DD6 FF                14992 	.db #0xFF
   2DD7 7F                14993 	.db #0x7F
   2DD8 7F                14994 	.db #0x7F
   2DD9 00                14995 	.db #0x00
   2DDA 00                14996 	.db #0x00
   2DDB 00                14997 	.db #0x00
   2DDC 00                14998 	.db #0x00
   2DDD C0                14999 	.db #0xC0
   2DDE C0                15000 	.db #0xC0
   2DDF F0                15001 	.db #0xF0
   2DE0 F0                15002 	.db #0xF0
   2DE1 F8                15003 	.db #0xF8
   2DE2 F8                15004 	.db #0xF8
   2DE3 FC                15005 	.db #0xFC
   2DE4 FC                15006 	.db #0xFC
   2DE5 FF                15007 	.db #0xFF
   2DE6 FF                15008 	.db #0xFF
   2DE7 7F                15009 	.db #0x7F
   2DE8 7F                15010 	.db #0x7F
   2DE9 00                15011 	.db #0x00
   2DEA 00                15012 	.db #0x00
   2DEB 00                15013 	.db #0x00
   2DEC 00                15014 	.db #0x00
   2DED F0                15015 	.db #0xF0
   2DEE F0                15016 	.db #0xF0
   2DEF F8                15017 	.db #0xF8
   2DF0 F8                15018 	.db #0xF8
   2DF1 FC                15019 	.db #0xFC
   2DF2 FC                15020 	.db #0xFC
   2DF3 FE                15021 	.db #0xFE
   2DF4 FE                15022 	.db #0xFE
   2DF5 FF                15023 	.db #0xFF
   2DF6 FF                15024 	.db #0xFF
   2DF7 7F                15025 	.db #0x7F
   2DF8 7F                15026 	.db #0x7F
   2DF9 00                15027 	.db #0x00
   2DFA 00                15028 	.db #0x00
   2DFB 00                15029 	.db #0x00
   2DFC 00                15030 	.db #0x00
   2DFD FC                15031 	.db #0xFC
   2DFE FC                15032 	.db #0xFC
   2DFF FE                15033 	.db #0xFE
   2E00 FE                15034 	.db #0xFE
   2E01 FF                15035 	.db #0xFF
   2E02 FF                15036 	.db #0xFF
   2E03 FF                15037 	.db #0xFF
   2E04 FF                15038 	.db #0xFF
   2E05 FF                15039 	.db #0xFF
   2E06 FF                15040 	.db #0xFF
   2E07 7F                15041 	.db #0x7F
   2E08 7F                15042 	.db #0x7F
   2E09 00                15043 	.db #0x00
   2E0A 00                15044 	.db #0x00
   2E0B 00                15045 	.db #0x00
   2E0C 00                15046 	.db #0x00
   2E0D FF                15047 	.db #0xFF
   2E0E FF                15048 	.db #0xFF
   2E0F FF                15049 	.db #0xFF
   2E10 FF                15050 	.db #0xFF
   2E11 FF                15051 	.db #0xFF
   2E12 FF                15052 	.db #0xFF
   2E13 FF                15053 	.db #0xFF
   2E14 FF                15054 	.db #0xFF
   2E15 FF                15055 	.db #0xFF
   2E16 FF                15056 	.db #0xFF
   2E17 7F                15057 	.db #0x7F
   2E18 7F                15058 	.db #0x7F
   2E19 00                15059 	.db #0x00
   2E1A 00                15060 	.db #0x00
   2E1B 00                15061 	.db #0x00
   2E1C 00                15062 	.db #0x00
   2E1D 3F                15063 	.db #0x3F
   2E1E 3F                15064 	.db #0x3F
   2E1F 7F                15065 	.db #0x7F
   2E20 7F                15066 	.db #0x7F
   2E21 FF                15067 	.db #0xFF
   2E22 FF                15068 	.db #0xFF
   2E23 FF                15069 	.db #0xFF
   2E24 FF                15070 	.db #0xFF
   2E25 FF                15071 	.db #0xFF
   2E26 FF                15072 	.db #0xFF
   2E27 FE                15073 	.db #0xFE
   2E28 FE                15074 	.db #0xFE
   2E29 00                15075 	.db #0x00
   2E2A 00                15076 	.db #0x00
   2E2B 00                15077 	.db #0x00
   2E2C 00                15078 	.db #0x00
   2E2D 1F                15079 	.db #0x1F
   2E2E 1F                15080 	.db #0x1F
   2E2F 3F                15081 	.db #0x3F
   2E30 3F                15082 	.db #0x3F
   2E31 7F                15083 	.db #0x7F
   2E32 7F                15084 	.db #0x7F
   2E33 FF                15085 	.db #0xFF
   2E34 FF                15086 	.db #0xFF
   2E35 FF                15087 	.db #0xFF
   2E36 FF                15088 	.db #0xFF
   2E37 FE                15089 	.db #0xFE
   2E38 FE                15090 	.db #0xFE
   2E39 00                15091 	.db #0x00
   2E3A 00                15092 	.db #0x00
   2E3B 00                15093 	.db #0x00
   2E3C 00                15094 	.db #0x00
   2E3D 0F                15095 	.db #0x0F
   2E3E 0F                15096 	.db #0x0F
   2E3F 3F                15097 	.db #0x3F
   2E40 3F                15098 	.db #0x3F
   2E41 7F                15099 	.db #0x7F
   2E42 7F                15100 	.db #0x7F
   2E43 FF                15101 	.db #0xFF
   2E44 FF                15102 	.db #0xFF
   2E45 FF                15103 	.db #0xFF
   2E46 FF                15104 	.db #0xFF
   2E47 FE                15105 	.db #0xFE
   2E48 FE                15106 	.db #0xFE
   2E49 00                15107 	.db #0x00
   2E4A 00                15108 	.db #0x00
   2E4B 00                15109 	.db #0x00
   2E4C 00                15110 	.db #0x00
   2E4D 07                15111 	.db #0x07
   2E4E 07                15112 	.db #0x07
   2E4F 1F                15113 	.db #0x1F
   2E50 1F                15114 	.db #0x1F
   2E51 3F                15115 	.db #0x3F
   2E52 3F                15116 	.db #0x3F
   2E53 7F                15117 	.db #0x7F
   2E54 7F                15118 	.db #0x7F
   2E55 FF                15119 	.db #0xFF
   2E56 FF                15120 	.db #0xFF
   2E57 FE                15121 	.db #0xFE
   2E58 FE                15122 	.db #0xFE
   2E59 00                15123 	.db #0x00
   2E5A 00                15124 	.db #0x00
   2E5B 00                15125 	.db #0x00
   2E5C 00                15126 	.db #0x00
   2E5D 03                15127 	.db #0x03
   2E5E 03                15128 	.db #0x03
   2E5F 0F                15129 	.db #0x0F
   2E60 0F                15130 	.db #0x0F
   2E61 3F                15131 	.db #0x3F
   2E62 3F                15132 	.db #0x3F
   2E63 7F                15133 	.db #0x7F
   2E64 7F                15134 	.db #0x7F
   2E65 FF                15135 	.db #0xFF
   2E66 FF                15136 	.db #0xFF
   2E67 FE                15137 	.db #0xFE
   2E68 FE                15138 	.db #0xFE
   2E69 00                15139 	.db #0x00
   2E6A 00                15140 	.db #0x00
   2E6B 00                15141 	.db #0x00
   2E6C 00                15142 	.db #0x00
   2E6D 01                15143 	.db #0x01
   2E6E 01                15144 	.db #0x01
   2E6F 03                15145 	.db #0x03
   2E70 03                15146 	.db #0x03
   2E71 0F                15147 	.db #0x0F
   2E72 0F                15148 	.db #0x0F
   2E73 3F                15149 	.db #0x3F
   2E74 3F                15150 	.db #0x3F
   2E75 FF                15151 	.db #0xFF
   2E76 FF                15152 	.db #0xFF
   2E77 FE                15153 	.db #0xFE
   2E78 FE                15154 	.db #0xFE
   2E79 00                15155 	.db #0x00
   2E7A 00                15156 	.db #0x00
   2E7B 00                15157 	.db #0x00
   2E7C 00                15158 	.db #0x00
   2E7D 01                15159 	.db #0x01
   2E7E 01                15160 	.db #0x01
   2E7F 01                15161 	.db #0x01
   2E80 01                15162 	.db #0x01
   2E81 07                15163 	.db #0x07
   2E82 07                15164 	.db #0x07
   2E83 1F                15165 	.db #0x1F
   2E84 1F                15166 	.db #0x1F
   2E85 FF                15167 	.db #0xFF
   2E86 FF                15168 	.db #0xFF
   2E87 FE                15169 	.db #0xFE
   2E88 FE                15170 	.db #0xFE
   2E89 00                15171 	.db #0x00
   2E8A 00                15172 	.db #0x00
   2E8B 00                15173 	.db #0x00
   2E8C 00                15174 	.db #0x00
   2E8D 00                15175 	.db #0x00
   2E8E 00                15176 	.db #0x00
   2E8F 10                15177 	.db #0x10
   2E90 10                15178 	.db #0x10
   2E91 38                15179 	.db #0x38
   2E92 38                15180 	.db #0x38
   2E93 6C                15181 	.db #0x6C
   2E94 6C                15182 	.db #0x6C
   2E95 00                15183 	.db #0x00
   2E96 00                15184 	.db #0x00
   2E97 00                15185 	.db #0x00
   2E98 00                15186 	.db #0x00
   2E99 00                15187 	.db #0x00
   2E9A 00                15188 	.db #0x00
   2E9B 00                15189 	.db #0x00
   2E9C 00                15190 	.db #0x00
   2E9D 00                15191 	.db #0x00
   2E9E 00                15192 	.db #0x00
   2E9F 6C                15193 	.db #0x6C
   2EA0 6C                15194 	.db #0x6C
   2EA1 38                15195 	.db #0x38
   2EA2 38                15196 	.db #0x38
   2EA3 10                15197 	.db #0x10
   2EA4 10                15198 	.db #0x10
   2EA5 00                15199 	.db #0x00
   2EA6 00                15200 	.db #0x00
   2EA7 00                15201 	.db #0x00
   2EA8 00                15202 	.db #0x00
   2EA9 00                15203 	.db #0x00
   2EAA 00                15204 	.db #0x00
   2EAB 00                15205 	.db #0x00
   2EAC 70                15206 	.db #0x70
   2EAD 00                15207 	.db #0x00
   2EAE 18                15208 	.db #0x18
   2EAF 00                15209 	.db #0x00
   2EB0 18                15210 	.db #0x18
   2EB1 00                15211 	.db #0x00
   2EB2 18                15212 	.db #0x18
   2EB3 00                15213 	.db #0x00
   2EB4 18                15214 	.db #0x18
   2EB5 00                15215 	.db #0x00
   2EB6 18                15216 	.db #0x18
   2EB7 00                15217 	.db #0x00
   2EB8 08                15218 	.db #0x08
   2EB9 00                15219 	.db #0x00
   2EBA 00                15220 	.db #0x00
   2EBB 00                15221 	.db #0x00
   2EBC FC                15222 	.db #0xFC
   2EBD 00                15223 	.db #0x00
   2EBE 06                15224 	.db #0x06
   2EBF 00                15225 	.db #0x00
   2EC0 06                15226 	.db #0x06
   2EC1 00                15227 	.db #0x00
   2EC2 FE                15228 	.db #0xFE
   2EC3 00                15229 	.db #0x00
   2EC4 C0                15230 	.db #0xC0
   2EC5 00                15231 	.db #0x00
   2EC6 C0                15232 	.db #0xC0
   2EC7 00                15233 	.db #0x00
   2EC8 7E                15234 	.db #0x7E
   2EC9 00                15235 	.db #0x00
   2ECA 00                15236 	.db #0x00
   2ECB 00                15237 	.db #0x00
   2ECC FC                15238 	.db #0xFC
   2ECD 00                15239 	.db #0x00
   2ECE 06                15240 	.db #0x06
   2ECF 00                15241 	.db #0x00
   2ED0 06                15242 	.db #0x06
   2ED1 00                15243 	.db #0x00
   2ED2 3E                15244 	.db #0x3E
   2ED3 00                15245 	.db #0x00
   2ED4 06                15246 	.db #0x06
   2ED5 00                15247 	.db #0x00
   2ED6 06                15248 	.db #0x06
   2ED7 00                15249 	.db #0x00
   2ED8 FC                15250 	.db #0xFC
   2ED9 00                15251 	.db #0x00
   2EDA 00                15252 	.db #0x00
   2EDB 00                15253 	.db #0x00
   2EDC C6                15254 	.db #0xC6
   2EDD 00                15255 	.db #0x00
   2EDE C6                15256 	.db #0xC6
   2EDF 00                15257 	.db #0x00
   2EE0 C6                15258 	.db #0xC6
   2EE1 00                15259 	.db #0x00
   2EE2 7E                15260 	.db #0x7E
   2EE3 00                15261 	.db #0x00
   2EE4 06                15262 	.db #0x06
   2EE5 00                15263 	.db #0x00
   2EE6 06                15264 	.db #0x06
   2EE7 00                15265 	.db #0x00
   2EE8 02                15266 	.db #0x02
   2EE9 00                15267 	.db #0x00
   2EEA 00                15268 	.db #0x00
   2EEB 00                15269 	.db #0x00
   2EEC 00                15270 	.db #0x00
   2EED 00                15271 	.db #0x00
   2EEE 00                15272 	.db #0x00
   2EEF 00                15273 	.db #0x00
   2EF0 00                15274 	.db #0x00
   2EF1 00                15275 	.db #0x00
   2EF2 00                15276 	.db #0x00
   2EF3 00                15277 	.db #0x00
   2EF4 00                15278 	.db #0x00
   2EF5 03                15279 	.db #0x03
   2EF6 03                15280 	.db #0x03
   2EF7 04                15281 	.db #0x04
   2EF8 04                15282 	.db #0x04
   2EF9 05                15283 	.db #0x05
   2EFA 05                15284 	.db #0x05
   2EFB F3                15285 	.db #0xF3
   2EFC F3                15286 	.db #0xF3
   2EFD AB                15287 	.db #0xAB
   2EFE AB                15288 	.db #0xAB
   2EFF AB                15289 	.db #0xAB
   2F00 AB                15290 	.db #0xAB
   2F01 89                15291 	.db #0x89
   2F02 89                15292 	.db #0x89
   2F03 04                15293 	.db #0x04
   2F04 04                15294 	.db #0x04
   2F05 03                15295 	.db #0x03
   2F06 03                15296 	.db #0x03
   2F07 00                15297 	.db #0x00
   2F08 00                15298 	.db #0x00
   2F09 00                15299 	.db #0x00
   2F0A 00                15300 	.db #0x00
   2F0B 00                15301 	.db #0x00
   2F0C 00                15302 	.db #0x00
   2F0D 00                15303 	.db #0x00
   2F0E 00                15304 	.db #0x00
   2F0F 00                15305 	.db #0x00
   2F10 00                15306 	.db #0x00
   2F11 00                15307 	.db #0x00
   2F12 00                15308 	.db #0x00
   2F13 00                15309 	.db #0x00
   2F14 00                15310 	.db #0x00
   2F15 FF                15311 	.db #0xFF
   2F16 FF                15312 	.db #0xFF
   2F17 00                15313 	.db #0x00
   2F18 00                15314 	.db #0x00
   2F19 EF                15315 	.db #0xEF
   2F1A EF                15316 	.db #0xEF
   2F1B 0C                15317 	.db #0x0C
   2F1C 0C                15318 	.db #0x0C
   2F1D 7F                15319 	.db #0x7F
   2F1E 7F                15320 	.db #0x7F
   2F1F 0C                15321 	.db #0x0C
   2F20 0C                15322 	.db #0x0C
   2F21 FF                15323 	.db #0xFF
   2F22 FF                15324 	.db #0xFF
   2F23 00                15325 	.db #0x00
   2F24 00                15326 	.db #0x00
   2F25 FF                15327 	.db #0xFF
   2F26 FF                15328 	.db #0xFF
   2F27 00                15329 	.db #0x00
   2F28 00                15330 	.db #0x00
   2F29 00                15331 	.db #0x00
   2F2A 00                15332 	.db #0x00
   2F2B 00                15333 	.db #0x00
   2F2C 00                15334 	.db #0x00
   2F2D 00                15335 	.db #0x00
   2F2E 00                15336 	.db #0x00
   2F2F 00                15337 	.db #0x00
   2F30 00                15338 	.db #0x00
   2F31 00                15339 	.db #0x00
   2F32 00                15340 	.db #0x00
   2F33 00                15341 	.db #0x00
   2F34 00                15342 	.db #0x00
   2F35 C0                15343 	.db #0xC0
   2F36 C0                15344 	.db #0xC0
   2F37 20                15345 	.db #0x20
   2F38 20                15346 	.db #0x20
   2F39 90                15347 	.db #0x90
   2F3A 90                15348 	.db #0x90
   2F3B D1                15349 	.db #0xD1
   2F3C D1                15350 	.db #0xD1
   2F3D D1                15351 	.db #0xD1
   2F3E D1                15352 	.db #0xD1
   2F3F D0                15353 	.db #0xD0
   2F40 D0                15354 	.db #0xD0
   2F41 90                15355 	.db #0x90
   2F42 90                15356 	.db #0x90
   2F43 20                15357 	.db #0x20
   2F44 20                15358 	.db #0x20
   2F45 C0                15359 	.db #0xC0
   2F46 C0                15360 	.db #0xC0
   2F47 00                15361 	.db #0x00
   2F48 00                15362 	.db #0x00
   2F49 00                15363 	.db #0x00
   2F4A 00                15364 	.db #0x00
   2F4B B4                15365 	.db #0xB4
   2F4C B4                15366 	.db #0xB4
   2F4D F7                15367 	.db #0xF7
   2F4E F7                15368 	.db #0xF7
   2F4F E4                15369 	.db #0xE4
   2F50 E4                15370 	.db #0xE4
   2F51 44                15371 	.db #0x44
   2F52 44                15372 	.db #0x44
   2F53 03                15373 	.db #0x03
   2F54 03                15374 	.db #0x03
   2F55 00                15375 	.db #0x00
   2F56 00                15376 	.db #0x00
   2F57 00                15377 	.db #0x00
   2F58 00                15378 	.db #0x00
   2F59 00                15379 	.db #0x00
   2F5A 00                15380 	.db #0x00
   2F5B 76                15381 	.db #0x76
   2F5C 76                15382 	.db #0x76
   2F5D 55                15383 	.db #0x55
   2F5E 55                15384 	.db #0x55
   2F5F 67                15385 	.db #0x67
   2F60 67                15386 	.db #0x67
   2F61 55                15387 	.db #0x55
   2F62 55                15388 	.db #0x55
   2F63 11                15389 	.db #0x11
   2F64 11                15390 	.db #0x11
   2F65 00                15391 	.db #0x00
   2F66 00                15392 	.db #0x00
   2F67 00                15393 	.db #0x00
   2F68 00                15394 	.db #0x00
   2F69 00                15395 	.db #0x00
   2F6A 00                15396 	.db #0x00
   2F6B 75                15397 	.db #0x75
   2F6C 75                15398 	.db #0x75
   2F6D 45                15399 	.db #0x45
   2F6E 45                15400 	.db #0x45
   2F6F 77                15401 	.db #0x77
   2F70 77                15402 	.db #0x77
   2F71 15                15403 	.db #0x15
   2F72 15                15404 	.db #0x15
   2F73 31                15405 	.db #0x31
   2F74 31                15406 	.db #0x31
   2F75 00                15407 	.db #0x00
   2F76 00                15408 	.db #0x00
   2F77 00                15409 	.db #0x00
   2F78 00                15410 	.db #0x00
   2F79 00                15411 	.db #0x00
   2F7A 00                15412 	.db #0x00
   2F7B 77                15413 	.db #0x77
   2F7C 77                15414 	.db #0x77
   2F7D 05                15415 	.db #0x05
   2F7E 05                15416 	.db #0x05
   2F7F 77                15417 	.db #0x77
   2F80 77                15418 	.db #0x77
   2F81 05                15419 	.db #0x05
   2F82 05                15420 	.db #0x05
   2F83 77                15421 	.db #0x77
   2F84 77                15422 	.db #0x77
   2F85 00                15423 	.db #0x00
   2F86 00                15424 	.db #0x00
   2F87 00                15425 	.db #0x00
   2F88 00                15426 	.db #0x00
   2F89 00                15427 	.db #0x00
   2F8A 00                15428 	.db #0x00
   2F8B 70                15429 	.db #0x70
   2F8C 70                15430 	.db #0x70
   2F8D 50                15431 	.db #0x50
   2F8E 50                15432 	.db #0x50
   2F8F 50                15433 	.db #0x50
   2F90 50                15434 	.db #0x50
   2F91 50                15435 	.db #0x50
   2F92 50                15436 	.db #0x50
   2F93 30                15437 	.db #0x30
   2F94 30                15438 	.db #0x30
   2F95 00                15439 	.db #0x00
   2F96 00                15440 	.db #0x00
   2F97 00                15441 	.db #0x00
   2F98 00                15442 	.db #0x00
   2F99 00                15443 	.db #0x00
   2F9A 00                15444 	.db #0x00
   2F9B 00                15445 	.db #0x00
   2F9C 00                15446 	.db #0x00
   2F9D 00                15447 	.db #0x00
   2F9E 00                15448 	.db #0x00
   2F9F 00                15449 	.db #0x00
   2FA0 00                15450 	.db #0x00
   2FA1 00                15451 	.db #0x00
   2FA2 00                15452 	.db #0x00
   2FA3 00                15453 	.db #0x00
   2FA4 00                15454 	.db #0x00
   2FA5 18                15455 	.db #0x18
   2FA6 18                15456 	.db #0x18
   2FA7 18                15457 	.db #0x18
   2FA8 18                15458 	.db #0x18
   2FA9 00                15459 	.db #0x00
   2FAA 00                15460 	.db #0x00
   2FAB 00                15461 	.db #0x00
   2FAC 00                15462 	.db #0x00
   2FAD 70                15463 	.db #0x70
   2FAE 70                15464 	.db #0x70
   2FAF F8                15465 	.db #0xF8
   2FB0 F8                15466 	.db #0xF8
   2FB1 F8                15467 	.db #0xF8
   2FB2 F8                15468 	.db #0xF8
   2FB3 F8                15469 	.db #0xF8
   2FB4 F8                15470 	.db #0xF8
   2FB5 70                15471 	.db #0x70
   2FB6 70                15472 	.db #0x70
   2FB7 00                15473 	.db #0x00
   2FB8 00                15474 	.db #0x00
   2FB9 00                15475 	.db #0x00
   2FBA 00                15476 	.db #0x00
   2FBB 00                15477 	.db #0x00
   2FBC 00                15478 	.db #0x00
   2FBD 00                15479 	.db #0x00
   2FBE 00                15480 	.db #0x00
   2FBF 50                15481 	.db #0x50
   2FC0 50                15482 	.db #0x50
   2FC1 20                15483 	.db #0x20
   2FC2 20                15484 	.db #0x20
   2FC3 50                15485 	.db #0x50
   2FC4 50                15486 	.db #0x50
   2FC5 00                15487 	.db #0x00
   2FC6 00                15488 	.db #0x00
   2FC7 00                15489 	.db #0x00
   2FC8 00                15490 	.db #0x00
   2FC9 00                15491 	.db #0x00
   2FCA 00                15492 	.db #0x00
   2FCB 00                15493 	.db #0x00
   2FCC 00                15494 	.db #0x00
   2FCD 00                15495 	.db #0x00
   2FCE 00                15496 	.db #0x00
   2FCF 00                15497 	.db #0x00
   2FD0 00                15498 	.db #0x00
   2FD1 00                15499 	.db #0x00
   2FD2 00                15500 	.db #0x00
   2FD3 00                15501 	.db #0x00
   2FD4 00                15502 	.db #0x00
   2FD5 00                15503 	.db #0x00
   2FD6 00                15504 	.db #0x00
   2FD7 00                15505 	.db #0x00
   2FD8 00                15506 	.db #0x00
   2FD9 00                15507 	.db #0x00
   2FDA 00                15508 	.db #0x00
   2FDB 00                15509 	.db #0x00
   2FDC F0                15510 	.db #0xF0
   2FDD 00                15511 	.db #0x00
   2FDE F0                15512 	.db #0xF0
   2FDF 00                15513 	.db #0x00
   2FE0 F0                15514 	.db #0xF0
   2FE1 00                15515 	.db #0x00
   2FE2 F0                15516 	.db #0xF0
   2FE3 00                15517 	.db #0x00
   2FE4 00                15518 	.db #0x00
   2FE5 00                15519 	.db #0x00
   2FE6 00                15520 	.db #0x00
   2FE7 00                15521 	.db #0x00
   2FE8 00                15522 	.db #0x00
   2FE9 00                15523 	.db #0x00
   2FEA 00                15524 	.db #0x00
   2FEB 00                15525 	.db #0x00
   2FEC 0F                15526 	.db #0x0F
   2FED 00                15527 	.db #0x00
   2FEE 0F                15528 	.db #0x0F
   2FEF 00                15529 	.db #0x00
   2FF0 0F                15530 	.db #0x0F
   2FF1 00                15531 	.db #0x00
   2FF2 0F                15532 	.db #0x0F
   2FF3 00                15533 	.db #0x00
   2FF4 00                15534 	.db #0x00
   2FF5 00                15535 	.db #0x00
   2FF6 00                15536 	.db #0x00
   2FF7 00                15537 	.db #0x00
   2FF8 00                15538 	.db #0x00
   2FF9 00                15539 	.db #0x00
   2FFA 00                15540 	.db #0x00
   2FFB 00                15541 	.db #0x00
   2FFC 00                15542 	.db #0x00
   2FFD 00                15543 	.db #0x00
   2FFE 00                15544 	.db #0x00
   2FFF 00                15545 	.db #0x00
   3000 00                15546 	.db #0x00
   3001 00                15547 	.db #0x00
   3002 00                15548 	.db #0x00
   3003 00                15549 	.db #0x00
   3004 F0                15550 	.db #0xF0
   3005 00                15551 	.db #0x00
   3006 F0                15552 	.db #0xF0
   3007 00                15553 	.db #0x00
   3008 F0                15554 	.db #0xF0
   3009 00                15555 	.db #0x00
   300A F0                15556 	.db #0xF0
   300B 00                15557 	.db #0x00
   300C 00                15558 	.db #0x00
   300D 00                15559 	.db #0x00
   300E 00                15560 	.db #0x00
   300F 00                15561 	.db #0x00
   3010 00                15562 	.db #0x00
   3011 00                15563 	.db #0x00
   3012 00                15564 	.db #0x00
   3013 00                15565 	.db #0x00
   3014 0F                15566 	.db #0x0F
   3015 00                15567 	.db #0x00
   3016 0F                15568 	.db #0x0F
   3017 00                15569 	.db #0x00
   3018 0F                15570 	.db #0x0F
   3019 00                15571 	.db #0x00
   301A 0F                15572 	.db #0x0F
   301B 00                15573 	.db #0x00
   301C FF                15574 	.db #0xFF
   301D 00                15575 	.db #0x00
   301E FF                15576 	.db #0xFF
   301F 00                15577 	.db #0x00
   3020 FF                15578 	.db #0xFF
   3021 00                15579 	.db #0x00
   3022 FF                15580 	.db #0xFF
   3023 00                15581 	.db #0x00
   3024 00                15582 	.db #0x00
   3025 00                15583 	.db #0x00
   3026 00                15584 	.db #0x00
   3027 00                15585 	.db #0x00
   3028 00                15586 	.db #0x00
   3029 00                15587 	.db #0x00
   302A 00                15588 	.db #0x00
   302B 00                15589 	.db #0x00
   302C 00                15590 	.db #0x00
   302D 00                15591 	.db #0x00
   302E 00                15592 	.db #0x00
   302F 00                15593 	.db #0x00
   3030 00                15594 	.db #0x00
   3031 00                15595 	.db #0x00
   3032 00                15596 	.db #0x00
   3033 00                15597 	.db #0x00
   3034 FF                15598 	.db #0xFF
   3035 00                15599 	.db #0x00
   3036 FF                15600 	.db #0xFF
   3037 00                15601 	.db #0x00
   3038 FF                15602 	.db #0xFF
   3039 00                15603 	.db #0x00
   303A FF                15604 	.db #0xFF
   303B 00                15605 	.db #0x00
   303C 00                15606 	.db #0x00
   303D 00                15607 	.db #0x00
   303E 00                15608 	.db #0x00
   303F 00                15609 	.db #0x00
   3040 D8                15610 	.db #0xD8
   3041 00                15611 	.db #0x00
   3042 70                15612 	.db #0x70
   3043 00                15613 	.db #0x00
   3044 20                15614 	.db #0x20
   3045 00                15615 	.db #0x00
   3046 00                15616 	.db #0x00
   3047 00                15617 	.db #0x00
   3048 00                15618 	.db #0x00
   3049 00                15619 	.db #0x00
   304A 00                15620 	.db #0x00
   304B                   15621 _versionnumber:
   304B 20                15622 	.db #0x20
   304C 51                15623 	.db #0x51
   304D 02                15624 	.db #0x02
   304E 51                15625 	.db #0x51
   304F 04                15626 	.db #0x04
   3050 51                15627 	.db #0x51
   3051 05                15628 	.db #0x05
   3052 00                15629 	.db #0x00
   3053 00                15630 	.db #0x00
   3054 00                15631 	.db #0x00
   3055 1E                15632 	.db #0x1E
   3056 51                15633 	.db #0x51
   3057 12                15634 	.db #0x12
   3058 51                15635 	.db #0x51
   3059 17                15636 	.db #0x17
   305A 51                15637 	.db #0x51
   305B                   15638 _helpdata:
   305B 19                15639 	.db #0x19
   305C 0D                15640 	.db #0x0D
   305D 1E                15641 	.db #0x1E
   305E 0B                15642 	.db #0x0B
   305F 20                15643 	.db #0x20
   3060 0F                15644 	.db #0x0F
   3061 00                15645 	.db #0x00
   3062 00                15646 	.db #0x00
   3063 00                15647 	.db #0x00
   3064 00                15648 	.db #0x00
   3065 00                15649 	.db #0x00
   3066 00                15650 	.db #0x00
   3067 00                15651 	.db #0x00
   3068 00                15652 	.db #0x00
   3069 00                15653 	.db #0x00
   306A 00                15654 	.db #0x00
   306B 00                15655 	.db #0x00
   306C 00                15656 	.db #0x00
   306D 21                15657 	.db #0x21
   306E 0B                15658 	.db #0x0B
   306F 20                15659 	.db #0x20
   3070 00                15660 	.db #0x00
   3071 00                15661 	.db #0x00
   3072 00                15662 	.db #0x00
   3073 00                15663 	.db #0x00
   3074 00                15664 	.db #0x00
   3075 00                15665 	.db #0x00
   3076 00                15666 	.db #0x00
   3077 00                15667 	.db #0x00
   3078 00                15668 	.db #0x00
   3079 00                15669 	.db #0x00
   307A 00                15670 	.db #0x00
   307B 0D                15671 	.db #0x0D
   307C 0D                15672 	.db #0x0D
   307D 01                15673 	.db #0x01
   307E 02                15674 	.db #0x02
   307F 0F                15675 	.db #0x0F
   3080 18                15676 	.db #0x18
   3081 20                15677 	.db #0x20
   3082 0F                15678 	.db #0x0F
   3083 16                15679 	.db #0x16
   3084 19                15680 	.db #0x19
   3085 1A                15681 	.db #0x1A
   3086 0F                15682 	.db #0x0F
   3087 00                15683 	.db #0x00
   3088 00                15684 	.db #0x00
   3089 00                15685 	.db #0x00
   308A 00                15686 	.db #0x00
   308B 00                15687 	.db #0x00
   308C 00                15688 	.db #0x00
   308D 0D                15689 	.db #0x0D
   308E 0D                15690 	.db #0x0D
   308F 01                15691 	.db #0x01
   3090 03                15692 	.db #0x03
   3091 1D                15693 	.db #0x1D
   3092 21                15694 	.db #0x21
   3093 0F                15695 	.db #0x0F
   3094 0F                15696 	.db #0x0F
   3095 1A                15697 	.db #0x1A
   3096 00                15698 	.db #0x00
   3097 00                15699 	.db #0x00
   3098 00                15700 	.db #0x00
   3099 00                15701 	.db #0x00
   309A 00                15702 	.db #0x00
   309B 00                15703 	.db #0x00
   309C 00                15704 	.db #0x00
   309D 00                15705 	.db #0x00
   309E 00                15706 	.db #0x00
   309F 0D                15707 	.db #0x0D
   30A0 0D                15708 	.db #0x0D
   30A1 01                15709 	.db #0x01
   30A2 04                15710 	.db #0x04
   30A3 1A                15711 	.db #0x1A
   30A4 0C                15712 	.db #0x0C
   30A5 00                15713 	.db #0x00
   30A6 1C                15714 	.db #0x1C
   30A7 0B                15715 	.db #0x0B
   30A8 18                15716 	.db #0x18
   30A9 11                15717 	.db #0x11
   30AA 0F                15718 	.db #0x0F
   30AB 00                15719 	.db #0x00
   30AC 00                15720 	.db #0x00
   30AD 00                15721 	.db #0x00
   30AE 00                15722 	.db #0x00
   30AF 00                15723 	.db #0x00
   30B0 00                15724 	.db #0x00
   30B1 0D                15725 	.db #0x0D
   30B2 0D                15726 	.db #0x0D
   30B3 01                15727 	.db #0x01
   30B4 05                15728 	.db #0x05
   30B5 1D                15729 	.db #0x1D
   30B6 1F                15730 	.db #0x1F
   30B7 1D                15731 	.db #0x1D
   30B8 1E                15732 	.db #0x1E
   30B9 0B                15733 	.db #0x0B
   30BA 13                15734 	.db #0x13
   30BB 18                15735 	.db #0x18
   30BC 00                15736 	.db #0x00
   30BD 00                15737 	.db #0x00
   30BE 00                15738 	.db #0x00
   30BF 00                15739 	.db #0x00
   30C0 00                15740 	.db #0x00
   30C1 00                15741 	.db #0x00
   30C2 00                15742 	.db #0x00
   30C3 0D                15743 	.db #0x0D
   30C4 0D                15744 	.db #0x0D
   30C5 07                15745 	.db #0x07
   30C6 05                15746 	.db #0x05
   30C7 1A                15747 	.db #0x1A
   30C8 0B                15748 	.db #0x0B
   30C9 18                15749 	.db #0x18
   30CA 00                15750 	.db #0x00
   30CB 00                15751 	.db #0x00
   30CC 00                15752 	.db #0x00
   30CD 00                15753 	.db #0x00
   30CE 00                15754 	.db #0x00
   30CF 00                15755 	.db #0x00
   30D0 00                15756 	.db #0x00
   30D1 00                15757 	.db #0x00
   30D2 00                15758 	.db #0x00
   30D3 00                15759 	.db #0x00
   30D4 00                15760 	.db #0x00
   30D5 0D                15761 	.db #0x0D
   30D6 0D                15762 	.db #0x0D
   30D7 02                15763 	.db #0x02
   30D8 01                15764 	.db #0x01
   30D9 1A                15765 	.db #0x1A
   30DA 1C                15766 	.db #0x1C
   30DB 0F                15767 	.db #0x0F
   30DC 1D                15768 	.db #0x1D
   30DD 0F                15769 	.db #0x0F
   30DE 1E                15770 	.db #0x1E
   30DF 00                15771 	.db #0x00
   30E0 00                15772 	.db #0x00
   30E1 00                15773 	.db #0x00
   30E2 00                15774 	.db #0x00
   30E3 00                15775 	.db #0x00
   30E4 00                15776 	.db #0x00
   30E5 00                15777 	.db #0x00
   30E6 00                15778 	.db #0x00
   30E7 0D                15779 	.db #0x0D
   30E8 0D                15780 	.db #0x0D
   30E9 01                15781 	.db #0x01
   30EA 06                15782 	.db #0x06
   30EB 21                15783 	.db #0x21
   30EC 0B                15784 	.db #0x0B
   30ED 20                15785 	.db #0x20
   30EE 00                15786 	.db #0x00
   30EF 19                15787 	.db #0x19
   30F0 10                15788 	.db #0x10
   30F1 10                15789 	.db #0x10
   30F2 1D                15790 	.db #0x1D
   30F3 0F                15791 	.db #0x0F
   30F4 1E                15792 	.db #0x1E
   30F5 00                15793 	.db #0x00
   30F6 00                15794 	.db #0x00
   30F7 00                15795 	.db #0x00
   30F8 00                15796 	.db #0x00
   30F9 0D                15797 	.db #0x0D
   30FA 0D                15798 	.db #0x0D
   30FB 01                15799 	.db #0x01
   30FC 03                15800 	.db #0x03
   30FD 00                15801 	.db #0x00
   30FE 00                15802 	.db #0x00
   30FF 00                15803 	.db #0x00
   3100 00                15804 	.db #0x00
   3101 00                15805 	.db #0x00
   3102 00                15806 	.db #0x00
   3103 00                15807 	.db #0x00
   3104 00                15808 	.db #0x00
   3105 00                15809 	.db #0x00
   3106 00                15810 	.db #0x00
   3107 00                15811 	.db #0x00
   3108 00                15812 	.db #0x00
   3109 00                15813 	.db #0x00
   310A 00                15814 	.db #0x00
   310B 00                15815 	.db #0x00
   310C 00                15816 	.db #0x00
   310D 00                15817 	.db #0x00
   310E 00                15818 	.db #0x00
   310F                   15819 _helpmap:
   310F 00                15820 	.db #0x00
   3110 01                15821 	.db #0x01
   3111 02                15822 	.db #0x02
   3112 03                15823 	.db #0x03
   3113 04                15824 	.db #0x04
   3114 05                15825 	.db #0x05
   3115 06                15826 	.db #0x06
   3116 09                15827 	.db #0x09
   3117 07                15828 	.db #0x07
   3118 00                15829 	.db #0x00
   3119 01                15830 	.db #0x01
   311A 02                15831 	.db #0x02
   311B 09                15832 	.db #0x09
   311C 04                15833 	.db #0x04
   311D 05                15834 	.db #0x05
   311E 06                15835 	.db #0x06
   311F 09                15836 	.db #0x09
   3120 07                15837 	.db #0x07
   3121 00                15838 	.db #0x00
   3122 01                15839 	.db #0x01
   3123 08                15840 	.db #0x08
   3124 03                15841 	.db #0x03
   3125 04                15842 	.db #0x04
   3126 05                15843 	.db #0x05
   3127 06                15844 	.db #0x06
   3128 09                15845 	.db #0x09
   3129 07                15846 	.db #0x07
   312A 00                15847 	.db #0x00
   312B 09                15848 	.db #0x09
   312C 02                15849 	.db #0x02
   312D 09                15850 	.db #0x09
   312E 09                15851 	.db #0x09
   312F 05                15852 	.db #0x05
   3130 06                15853 	.db #0x06
   3131 09                15854 	.db #0x09
   3132 07                15855 	.db #0x07
   3133                   15856 _logo:
   3133 46                15857 	.db #0x46
   3134 48                15858 	.db #0x48
   3135 4A                15859 	.db #0x4A
   3136 00                15860 	.db #0x00
   3137 00                15861 	.db #0x00
   3138 00                15862 	.db #0x00
   3139 00                15863 	.db #0x00
   313A 00                15864 	.db #0x00
   313B 47                15865 	.db #0x47
   313C 49                15866 	.db #0x49
   313D 4B                15867 	.db #0x4B
   313E 4C                15868 	.db #0x4C
   313F 4D                15869 	.db #0x4D
   3140 4E                15870 	.db #0x4E
   3141 4F                15871 	.db #0x4F
   3142 50                15872 	.db #0x50
   3143                   15873 _bgpalette:
   3143 00 00             15874 	.byte #0x00,#0x00
   3145 00 00             15875 	.byte #0x00,#0x00
   3147 BF 7C             15876 	.byte #0xBF,#0x7C
   3149 FF 7F             15877 	.byte #0xFF,#0x7F
   314B                   15878 _spritepalette:
   314B FF 7F             15879 	.byte #0xFF,#0x7F
   314D B5 56             15880 	.byte #0xB5,#0x56
   314F B5 56             15881 	.byte #0xB5,#0x56
   3151 00 00             15882 	.byte #0x00,#0x00
   3153 BF 7C             15883 	.byte #0xBF,#0x7C
   3155 BF 7C             15884 	.byte #0xBF,#0x7C
   3157 BF 7C             15885 	.byte #0xBF,#0x7C
   3159 BF 7C             15886 	.byte #0xBF,#0x7C
   315B                   15887 _SCREEN_XO:
   315B 08                15888 	.db #0x08
   315C                   15889 _SCREEN_YO:
   315C 0C                15890 	.db #0x0C
   315D                   15891 _SCREEN_XSPACE:
   315D 20                15892 	.db #0x20
   315E                   15893 _SCREEN_YSPACE:
   315E 08                15894 	.db #0x08
   315F                   15895 _SCREEN_PSTARTX:
   315F 18                15896 	.db #0x18
   3160                   15897 _SCREEN_PSTARTY:
   3160 25                15898 	.db #0x25
   3161                   15899 _synthAddress:
   3161 00                15900 	.db #0x00
   3162 07                15901 	.db #0x07
   3163 07                15902 	.db #0x07
   3164 0D                15903 	.db #0x0D
   3165 0D                15904 	.db #0x0D
   3166 14                15905 	.db #0x14
   3167 14                15906 	.db #0x14
   3168 18                15907 	.db #0x18
   3169                   15908 _tableCursorLookup:
   3169 00                15909 	.db #0x00
   316A 01                15910 	.db #0x01
   316B 02                15911 	.db #0x02
   316C 03                15912 	.db #0x03
   316D 04                15913 	.db #0x04
   316E 05                15914 	.db #0x05
   316F 06                15915 	.db #0x06
   3170 FF                15916 	.db #0xFF
   3171 18                15917 	.db #0x18
   3172 07                15918 	.db #0x07
   3173 08                15919 	.db #0x08
   3174 09                15920 	.db #0x09
   3175 FF                15921 	.db #0xFF
   3176 0A                15922 	.db #0x0A
   3177 0B                15923 	.db #0x0B
   3178 0C                15924 	.db #0x0C
   3179 FF                15925 	.db #0xFF
   317A 19                15926 	.db #0x19
   317B 0D                15927 	.db #0x0D
   317C 0E                15928 	.db #0x0E
   317D 0F                15929 	.db #0x0F
   317E 10                15930 	.db #0x10
   317F 11                15931 	.db #0x11
   3180 12                15932 	.db #0x12
   3181 13                15933 	.db #0x13
   3182 FF                15934 	.db #0xFF
   3183 1A                15935 	.db #0x1A
   3184 14                15936 	.db #0x14
   3185 FF                15937 	.db #0xFF
   3186 15                15938 	.db #0x15
   3187 FF                15939 	.db #0xFF
   3188 FF                15940 	.db #0xFF
   3189 16                15941 	.db #0x16
   318A 17                15942 	.db #0x17
   318B FF                15943 	.db #0xFF
   318C 1B                15944 	.db #0x1B
   318D                   15945 _tableData:
   318D 03                15946 	.db #0x03
   318E 04                15947 	.db #0x04
   318F 06                15948 	.db #0x06
   3190 03                15949 	.db #0x03
   3191 05                15950 	.db #0x05
   3192 04                15951 	.db #0x04
   3193 03                15952 	.db #0x03
   3194 06                15953 	.db #0x06
   3195 10                15954 	.db #0x10
   3196 03                15955 	.db #0x03
   3197 07                15956 	.db #0x07
   3198 FF                15957 	.db #0xFF
   3199 03                15958 	.db #0x03
   319A 08                15959 	.db #0x08
   319B 31                15960 	.db #0x31
   319C 03                15961 	.db #0x03
   319D 09                15962 	.db #0x09
   319E 02                15963 	.db #0x02
   319F 03                15964 	.db #0x03
   31A0 0A                15965 	.db #0x0A
   31A1 04                15966 	.db #0x04
   31A2 07                15967 	.db #0x07
   31A3 04                15968 	.db #0x04
   31A4 06                15969 	.db #0x06
   31A5 07                15970 	.db #0x07
   31A6 05                15971 	.db #0x05
   31A7 04                15972 	.db #0x04
   31A8 07                15973 	.db #0x07
   31A9 06                15974 	.db #0x06
   31AA 10                15975 	.db #0x10
   31AB 07                15976 	.db #0x07
   31AC 08                15977 	.db #0x08
   31AD 31                15978 	.db #0x31
   31AE 07                15979 	.db #0x07
   31AF 09                15980 	.db #0x09
   31B0 02                15981 	.db #0x02
   31B1 07                15982 	.db #0x07
   31B2 0A                15983 	.db #0x0A
   31B3 04                15984 	.db #0x04
   31B4 0B                15985 	.db #0x0B
   31B5 04                15986 	.db #0x04
   31B6 06                15987 	.db #0x06
   31B7 0B                15988 	.db #0x0B
   31B8 05                15989 	.db #0x05
   31B9 10                15990 	.db #0x10
   31BA 0B                15991 	.db #0x0B
   31BB 06                15992 	.db #0x06
   31BC 20                15993 	.db #0x20
   31BD 0B                15994 	.db #0x0B
   31BE 07                15995 	.db #0x07
   31BF 10                15996 	.db #0x10
   31C0 0B                15997 	.db #0x0B
   31C1 08                15998 	.db #0x08
   31C2 31                15999 	.db #0x31
   31C3 0B                16000 	.db #0x0B
   31C4 09                16001 	.db #0x09
   31C5 02                16002 	.db #0x02
   31C6 0B                16003 	.db #0x0B
   31C7 0A                16004 	.db #0x0A
   31C8 04                16005 	.db #0x04
   31C9 0F                16006 	.db #0x0F
   31CA 04                16007 	.db #0x04
   31CB 06                16008 	.db #0x06
   31CC 0F                16009 	.db #0x0F
   31CD 06                16010 	.db #0x06
   31CE 10                16011 	.db #0x10
   31CF 0F                16012 	.db #0x0F
   31D0 09                16013 	.db #0x09
   31D1 02                16014 	.db #0x02
   31D2 0F                16015 	.db #0x0F
   31D3 0A                16016 	.db #0x0A
   31D4 04                16017 	.db #0x04
   31D5 03                16018 	.db #0x03
   31D6 0C                16019 	.db #0x0C
   31D7 10                16020 	.db #0x10
   31D8 07                16021 	.db #0x07
   31D9 0C                16022 	.db #0x0C
   31DA 10                16023 	.db #0x10
   31DB 0B                16024 	.db #0x0B
   31DC 0C                16025 	.db #0x0C
   31DD 10                16026 	.db #0x10
   31DE 0F                16027 	.db #0x0F
   31DF 0C                16028 	.db #0x0C
   31E0 10                16029 	.db #0x10
   31E1                   16030 _octmap:
   31E1 03                16031 	.db #0x03
   31E2 41                16032 	.db #0x41
   31E3 02                16033 	.db #0x02
   31E4 41                16034 	.db #0x41
   31E5 53                16035 	.db #0x53
   31E6 53                16036 	.db #0x53
   31E7 02                16037 	.db #0x02
   31E8 40                16038 	.db #0x40
   31E9 03                16039 	.db #0x03
   31EA 40                16040 	.db #0x40
   31EB 04                16041 	.db #0x04
   31EC 40                16042 	.db #0x40
   31ED                   16043 _panmap:
   31ED 25                16044 	.db #0x25
   31EE 25                16045 	.db #0x25
   31EF 25                16046 	.db #0x25
   31F0 1C                16047 	.db #0x1C
   31F1 16                16048 	.db #0x16
   31F2 25                16049 	.db #0x25
   31F3 16                16050 	.db #0x16
   31F4 1C                16051 	.db #0x1C
   31F5                   16052 _susmap:
   31F5 53                16053 	.db #0x53
   31F6 00                16054 	.db #0x00
   31F7 52                16055 	.db #0x52
   31F8 00                16056 	.db #0x00
   31F9                   16057 _markerMapTiles:
   31F9 03                16058 	.db #0x03
   31FA 02                16059 	.db #0x02
   31FB 00                16060 	.db #0x00
   31FC 5B                16061 	.db #0x5B
   31FD 07                16062 	.db #0x07
   31FE 02                16063 	.db #0x02
   31FF 00                16064 	.db #0x00
   3200 5B                16065 	.db #0x5B
   3201 0B                16066 	.db #0x0B
   3202 02                16067 	.db #0x02
   3203 00                16068 	.db #0x00
   3204 5B                16069 	.db #0x5B
   3205 0F                16070 	.db #0x0F
   3206 02                16071 	.db #0x02
   3207 00                16072 	.db #0x00
   3208 5B                16073 	.db #0x5B
ASxxxx Assembler V01.75  (GameBoy Z80-like CPU), page 1.

Symbol Table

    _BCPD_REG                          **** GX
    _BCPS_REG                          **** GX
    _BGP_REG                           **** GX
    _DIV_REG                           **** GX
    _DMA_REG                           **** GX
    _HDMA1_REG                         **** GX
    _HDMA2_REG                         **** GX
    _HDMA3_REG                         **** GX
    _HDMA4_REG                         **** GX
    _HDMA5_REG                         **** GX
    _IE_REG                            **** GX
    _IF_REG                            **** GX
    _KEY1_REG                          **** GX
    _LCDC_REG                          **** GX
    _LYC_REG                           **** GX
    _LY_REG                            **** GX
    _NR10_REG                          **** GX
    _NR11_REG                          **** GX
    _NR12_REG                          **** GX
    _NR13_REG                          **** GX
    _NR14_REG                          **** GX
    _NR21_REG                          **** GX
    _NR22_REG                          **** GX
    _NR23_REG                          **** GX
    _NR24_REG                          **** GX
    _NR30_REG                          **** GX
    _NR31_REG                          **** GX
    _NR32_REG                          **** GX
    _NR33_REG                          **** GX
    _NR34_REG                          **** GX
    _NR41_REG                          **** GX
    _NR42_REG                          **** GX
    _NR43_REG                          **** GX
    _NR44_REG                          **** GX
    _NR50_REG                          **** GX
    _NR51_REG                          **** GX
    _NR52_REG                          **** GX
    _OBP0_REG                          **** GX
    _OBP1_REG                          **** GX
    _OCPD_REG                          **** GX
    _OCPS_REG                          **** GX
    _P1_REG                            **** GX
    _RP_REG                            **** GX
    _SB_REG                            **** GX
  0 _SCREEN_PSTARTX                    315F GR
  0 _SCREEN_PSTARTY                    3160 GR
  0 _SCREEN_XO                         315B GR
  0 _SCREEN_XSPACE                     315D GR
  0 _SCREEN_YO                         315C GR
  0 _SCREEN_YSPACE                     315E GR
    _SCX_REG                           **** GX
    _SCY_REG                           **** GX
    _SC_REG                            **** GX
    _STAT_REG                          **** GX
    _SVBK_REG                          **** GX
    _TAC_REG                           **** GX
    _TIMA_REG                          **** GX
    _TMA_REG                           **** GX
    _VBK_REG                           **** GX
    _WX_REG                            **** GX
    _WY_REG                            **** GX
  0 ___addPortamento_end               049A R
  0 ___addPortamento_start             0303 R
  0 ___addVibrato_end                  0557 R
  0 ___addVibrato_start                049A R
  0 ___checkMemory_end                 215E R
  0 ___checkMemory_start               1ECC R
  0 ___clearParameterLocks_end         2183 R
  0 ___clearParameterLocks_start       215E R
  0 ___cls2_end                        176D R
  0 ___cls2_start                      1718 R
  0 ___displaySetup_end                1A6F R
  0 ___displaySetup_start              18C2 R
  0 ___getPad_end                      26CA R
  0 ___getPad_start                    2435 R
  0 ___glideTo_end                     28E3 R
  0 ___glideTo_start                   2723 R
  0 ___hideCursor_end                  15BD R
  0 ___hideCursor_start                157D R
  0 ___loadDataSet_end                 1DE2 R
  0 ___loadDataSet_start               1C07 R
  0 ___main_end                        296B R
  0 ___main_start                      28F6 R
  0 ___noOp_end                        2723 R
  0 ___noOp_start                      2720 R
  0 ___printbyte_end                   007D R
  0 ___printbyte_start                 0000 R
  0 ___printhelp_end                   0D36 R
  0 ___printhelp_start                 0CD4 R
  0 ___printversion_end                0CD4 R
  0 ___printversion_start              0CB8 R
  0 ___saveDataSet_end                 1C07 R
  0 ___saveDataSet_start               1A6F R
  0 ___setCursor_end                   157D R
  0 ___setCursor_start                 1371 R
  0 ___setDataValue_end                2435 R
  0 ___setDataValue_start              2183 R
  0 ___setOutputPanBySynth_end         06D1 R
  0 ___setOutputPanBySynth_start       0638 R
  0 ___setOutputPan_end                0771 R
  0 ___setOutputPan_start              06D1 R
  0 ___setOutputSwitch_end             0638 R
  0 ___setOutputSwitch_start           061D R
  0 ___setPitchBendFrequencyOffsetNo   0303 R
  0 ___setPitchBendFrequencyOffset_e   0274 R
  0 ___setPitchBendFrequencyOffset_s   007D R
  0 ___setPlayMarker_end               1718 R
  0 ___setPlayMarker_start             15C3 R
  0 ___setSoundDefaults_end            2720 R
  0 ___setSoundDefaults_start          26CA R
  0 ___showCursor_end                  15C3 R
  0 ___showCursor_start                15BD R
  0 ___showMainScreen_end              187C R
  0 ___showMainScreen_start            177B R
  0 ___showSampleScreen_end            177B R
  0 ___showSampleScreen_start          176D R
  0 ___showSplashScreen_end            189E R
  0 ___showSplashScreen_start          187C R
  0 ___snapRecall_end                  1ECC R
  0 ___snapRecall_start                1DE2 R
  0 ___testSynths_end                  28F6 R
  0 ___testSynths_start                28E3 R
  0 ___toggleScreen_end                18C2 R
  0 ___toggleScreen_start              189E R
  0 ___updateDisplaySynth_end          127C R
  0 ___updateDisplaySynth_start        11F8 R
  0 ___updateDisplayValue_end          11F8 R
  0 ___updateDisplayValue_start        0D36 R
  0 ___updateDisplay_end               1371 R
  0 ___updateDisplay_start             127C R
  0 ___updateSynth_end                 0B9F R
  0 ___updateSynth_start               0AE2 R
  0 ___updateSynths_end                0CB8 R
  0 ___updateSynths_start              0B9F R
  0 ___updateValueSynth_end            0AE2 R
  0 ___updateValueSynth_start          0771 R
  0 ___updateVibratoPosition_end       061D R
  0 ___updateVibratoPosition_start     0557 R
    __cpu                              **** GX
    __divuint                          **** GX
    __io_in                            **** GX
    __io_out                           **** GX
    __io_status                        **** GX
    __muluchar                         **** GX
    __muluint                          **** GX
  0 _addPortamento                     0303 GR
  0 _addVibrato                        049A GR
    _add_LCD                           **** GX
    _add_TIM                           **** GX
    _add_VBL                           **** GX
  1 _addressByte                       0001 GR
    _asmLoadWav                        **** GX
    _asmMain                           **** GX
    _asmPlayNotePu1                    **** GX
    _asmUpdateMidiBuffer               **** GX
    _asmUpdateNoi                      **** GX
    _asmUpdatePu1                      **** GX
    _asmUpdatePu2                      **** GX
    _asmUpdateSerial                   **** GX
    _asmUpdateWav                      **** GX
  0 _bgpalette                         3143 GR
  1 _bkg                               0159 GR
  1 _captureDataType                   0003 GR
  1 _capturedAddress                   0004 GR
    _cgb_compatibility                 **** GX
  0 _checkMemory                       1ECC GR
  0 _clearParameterLocks               215E GR
  0 _cls2                              1718 GR
  1 _counterWav                        0156 GR
  1 _counterWavStart                   0115 GR
    _cpu_fast                          **** GX
    _cpu_slow                          **** GX
  1 _cueWavSweep                       0158 GR
  1 _currentFreq                       0130 GR
  1 _currentFreqData                   0142 GR
  1 _currentPortFreqData               014A GR
  1 _currentScreen                     01EB GR
  1 _cursorBigStartX                   0177 GR
  1 _cursorBigStartY                   017B GR
  1 _cursorColumn                      0172 GR
  1 _cursorColumnLast                  0187 GR
  1 _cursorEnable                      016E GR
  1 _cursorRow                         0173 GR
  1 _cursorRowMain                     0188 GR
  1 _cursorStartX                      017F GR
  1 _cursorStartY                      0183 GR
  1 _dataSet                           01CF GR
  1 _dataSetSnap                       01B3 GR
  0 _data_barrow                       2A6B GR
  0 _data_font                         2A8B GR
  0 _data_larrow                       2A7B GR
    _delay                             **** GX
    _disable_interrupts                **** GX
  0 _displaySetup                      18C2 GR
    _display_off                       **** GX
    _enable_interrupts                 **** GX
  1 _freq                              000F GR
  0 _getPad                            2435 GR
    _get_bkg_tiles                     **** GX
    _get_data                          **** GX
    _get_mode                          **** GX
    _get_sprite_data                   **** GX
    _get_sprite_prop                   **** GX
    _get_sprite_tile                   **** GX
    _get_tiles                         **** GX
    _get_win_tiles                     **** GX
  0 _glideTo                           2723 GR
  0 _helpdata                          305B GR
  0 _helpmap                           310F GR
  0 _hideCursor                        157D GR
    _hiramcpy                          **** GX
  1 _i                                 0132 GR
  1 _j                                 0134 GR
  1 _joyState                          0137 GR
    _joypad                            **** GX
  1 _l                                 0135 GR
  1 _lastPadRead                       0136 GR
  0 _loadDataSet                       1C07 GR
  0 _logo                              3133 GR
  0 _main                              28F6 GR
  0 _markerMapTiles                    31F9 GR
    _mode                              **** GX
    _move_bkg                          **** GX
    _move_sprite                       **** GX
    _move_win                          **** GX
  1 _newNote                           0006 GR
  1 _newStepSize                       000D GR
  0 _noOp                              2720 GR
  1 _noiEnv                            00F6 GR
  1 _noiFreq                           00AC GR
  1 _noiMode                           00F7 GR
  1 _noiNoteOffTrigger                 00FF GR
  1 _noiOct                            0155 GR
  1 _noiSus                            0106 GR
  1 _noteStatus                        009F GR
  0 _octmap                            31E1 GR
  1 _outputSwitch                      0109 GR
  1 _outputSwitchMute                  010D GR
  1 _outputSwitchValue                 0111 GR
  0 _panmap                            31ED GR
  1 _parameterLock                     01EC GR
  1 _pbNoteRange                       0128 GR
  1 _pbRange                           0124 GR
  1 _pbWheelActive                     0120 GR
  1 _pbWheelIn                         0118 GR
  1 _pbWheelInLast                     011C GR
  1 _polyNoteState                     0101 GR
  1 _polyVoiceSelect                   0100 GR
  1 _portDelay                         01AB GR
  1 _portLength                        01A3 GR
  1 _portStepSize                      019B GR
  1 _prevNote                          00A7 GR
  1 _prevNoteTmp                       00AB GR
  0 _printbyte                         0000 GR
  0 _printhelp                         0CD4 GR
  0 _printversion                      0CB8 GR
  1 _pu1Env                            00F4 GR
  1 _pu1NoteOffTrigger                 00FC GR
  1 _pu1Oct                            0152 GR
  1 _pu1Por                            0108 GR
  1 _pu1Sus                            0104 GR
  1 _pu1Trig                           00F8 GR
  1 _pu1Vel                            00FA GR
  1 _pu2Env                            00F5 GR
  1 _pu2NoteOffTrigger                 00FD GR
  1 _pu2Oct                            0153 GR
  1 _pu2Sus                            0105 GR
  1 _pu2Trig                           00F9 GR
  1 _pu2Vel                            00FB GR
  1 _recallMode                        016D GR
    _receive_byte                      **** GX
    _remove_JOY                        **** GX
    _remove_LCD                        **** GX
    _remove_SIO                        **** GX
    _remove_TIM                        **** GX
    _remove_VBL                        **** GX
    _reset                             **** GX
    _saveData                          **** GX
  0 _saveDataSet                       1A6F GR
    _scroll_bkg                        **** GX
    _scroll_sprite                     **** GX
    _scroll_win                        **** GX
    _send_byte                         **** GX
    _serialBuffer                      **** GX
    _serialBufferPosition              **** GX
    _serialBufferReadPosition          **** GX
  0 _setCursor                         1371 GR
  0 _setDataValue                      2183 GR
  0 _setOutputPan                      06D1 GR
  0 _setOutputPanBySynth               0638 GR
  0 _setOutputSwitch                   061D GR
  0 _setPitchBendFrequencyOffset       007D GR
  0 _setPitchBendFrequencyOffsetNois   0274 GR
  0 _setPlayMarker                     15C3 GR
  0 _setSoundDefaults                  26CA GR
    _set_bkg_data                      **** GX
    _set_bkg_palette                   **** GX
    _set_bkg_palette_entry             **** GX
    _set_bkg_tiles                     **** GX
    _set_data                          **** GX
    _set_interrupts                    **** GX
    _set_sprite_data                   **** GX
    _set_sprite_palette                **** GX
    _set_sprite_palette_entry          **** GX
    _set_sprite_prop                   **** GX
    _set_sprite_tile                   **** GX
    _set_tiles                         **** GX
    _set_win_data                      **** GX
    _set_win_tiles                     **** GX
    _sgb_check                         **** GX
  1 _shiftSelect                       0189 GR
  0 _showCursor                        15BD GR
  0 _showMainScreen                    177B GR
  0 _showSampleScreen                  176D GR
  0 _showSplashScreen                  187C GR
  0 _snapRecall                        1DE2 GR
  0 _spritepalette                     314B GR
  1 _statusByte                        0000 GR
  1 _stepSize                          01B1 GR
  0 _susmap                            31F5 GR
  0 _synthAddress                      3161 GR
    _sys_time                          **** GX
  1 _systemIdle                        018A GR
  0 _tableCursorLookup                 3169 GR
  0 _tableData                         318D GR
  1 _targetFreq                        01AF GR
  0 _testSynths                        28E3 GR
  1 _tmp1                              0007 GR
  1 _tmp1Freq                          0008 GR
  1 _tmp2                              000A GR
  1 _tmp2Freq                          000B GR
  0 _toggleScreen                      189E GR
  0 _updateDisplay                     127C GR
  0 _updateDisplaySynth                11F8 GR
  1 _updateDisplaySynthCounter         0005 GR
  0 _updateDisplayValue                0D36 GR
  0 _updateSynth                       0AE2 GR
  0 _updateSynths                      0B9F GR
  0 _updateValueSynth                  0771 GR
  0 _updateVibratoPosition             0557 GR
  1 _valueByte                         0002 GR
  0 _versionnumber                     304B GR
  1 _vibratoDepth                      0193 GR
  1 _vibratoPosition                   018B GR
  1 _vibratoSlope                      0197 GR
  1 _vibratoSpeed                      018F GR
  1 _vibratoTimer                      0204 GR
    _wait_vbl_done                     **** GX
    _waitpad                           **** GX
    _waitpadup                         **** GX
  1 _wavCurrentFreq                    0140 GR
  0 _wavData                           296B GR
  1 _wavDataOffset                     0117 GR
  1 _wavNoteOffTrigger                 00FE GR
  1 _wavOct                            0154 GR
  1 _wavShapeLast                      0116 GR
  1 _wavStepCounter                    0208 GR
  1 _wavSus                            0107 GR
  1 _wavSweepSpeed                     013F GR
  1 _x                                 0133 GR

ASxxxx Assembler V01.75  (GameBoy Z80-like CPU), page 2.

Area Table

   0 _CODE                              size 3209   flags 0
   1 _DATA                              size  209   flags 0
   2 _OVERLAY                           size    0   flags 0
   3 _ISEG                              size    0   flags 0
   4 _BSEG                              size    0   flags 0
   5 _XSEG                              size    0   flags 0
   6 _GSINIT                            size  811   flags 0
   7 _GSFINAL                           size    0   flags 0
